
alarm_clock_jukebox.elf:     file format elf32-littlenios2
alarm_clock_jukebox.elf
architecture: nios2:r1, flags 0x00000112:
EXEC_P, HAS_SYMS, D_PAGED
start address 0x00010244

Program Header:
    LOAD off    0x00001000 vaddr 0x00010000 paddr 0x00010000 align 2**12
         filesz 0x00000020 memsz 0x00000020 flags r-x
    LOAD off    0x00001020 vaddr 0x00010020 paddr 0x00010020 align 2**12
         filesz 0x00005f68 memsz 0x00005f68 flags r-x
    LOAD off    0x00006f88 vaddr 0x00015f88 paddr 0x00017a28 align 2**12
         filesz 0x00001aa0 memsz 0x00001aa0 flags rw-
    LOAD off    0x000094c8 vaddr 0x000194c8 paddr 0x000194c8 align 2**12
         filesz 0x00000000 memsz 0x0000016c flags rw-

Sections:
Idx Name          Size      VMA       LMA       File off  Algn
  0 .entry        00000020  00010000  00010000  00001000  2**5
                  CONTENTS, ALLOC, LOAD, READONLY, CODE
  1 .exceptions   00000224  00010020  00010020  00001020  2**2
                  CONTENTS, ALLOC, LOAD, READONLY, CODE
  2 .text         00005c8c  00010244  00010244  00001244  2**2
                  CONTENTS, ALLOC, LOAD, READONLY, CODE
  3 .rodata       000000b8  00015ed0  00015ed0  00006ed0  2**2
                  CONTENTS, ALLOC, LOAD, READONLY, DATA
  4 .rwdata       00001aa0  00015f88  00017a28  00006f88  2**2
                  CONTENTS, ALLOC, LOAD, DATA, SMALL_DATA
  5 .bss          0000016c  000194c8  000194c8  000094c8  2**2
                  ALLOC, SMALL_DATA
  6 .MEMOIRE_ONCHIP 00000000  00019634  00019634  00008a28  2**0
                  CONTENTS
  7 .comment      00000023  00000000  00000000  00008a28  2**0
                  CONTENTS, READONLY
  8 .debug_aranges 00000ab0  00000000  00000000  00008a50  2**3
                  CONTENTS, READONLY, DEBUGGING
  9 .debug_info   00016b44  00000000  00000000  00009500  2**0
                  CONTENTS, READONLY, DEBUGGING
 10 .debug_abbrev 00006349  00000000  00000000  00020044  2**0
                  CONTENTS, READONLY, DEBUGGING
 11 .debug_line   00006d58  00000000  00000000  0002638d  2**0
                  CONTENTS, READONLY, DEBUGGING
 12 .debug_frame  000018c0  00000000  00000000  0002d0e8  2**2
                  CONTENTS, READONLY, DEBUGGING
 13 .debug_str    000029cc  00000000  00000000  0002e9a8  2**0
                  CONTENTS, READONLY, DEBUGGING
 14 .debug_loc    00004a4c  00000000  00000000  00031374  2**0
                  CONTENTS, READONLY, DEBUGGING
 15 .debug_alt_sim_info 00000020  00000000  00000000  00035dc0  2**2
                  CONTENTS, READONLY, DEBUGGING
 16 .debug_ranges 00000680  00000000  00000000  00035de0  2**3
                  CONTENTS, READONLY, DEBUGGING
 17 .thread_model 00000003  00000000  00000000  00038d7a  2**0
                  CONTENTS, READONLY
 18 .cpu          0000000a  00000000  00000000  00038d7d  2**0
                  CONTENTS, READONLY
 19 .qsys         00000001  00000000  00000000  00038d87  2**0
                  CONTENTS, READONLY
 20 .simulation_enabled 00000001  00000000  00000000  00038d88  2**0
                  CONTENTS, READONLY
 21 .sysid_hash   00000004  00000000  00000000  00038d89  2**0
                  CONTENTS, READONLY
 22 .sysid_base   00000004  00000000  00000000  00038d8d  2**0
                  CONTENTS, READONLY
 23 .sysid_time   00000004  00000000  00000000  00038d91  2**0
                  CONTENTS, READONLY
 24 .stderr_dev   0000000b  00000000  00000000  00038d95  2**0
                  CONTENTS, READONLY
 25 .stdin_dev    0000000b  00000000  00000000  00038da0  2**0
                  CONTENTS, READONLY
 26 .stdout_dev   0000000b  00000000  00000000  00038dab  2**0
                  CONTENTS, READONLY
 27 .sopc_system_name 0000000b  00000000  00000000  00038db6  2**0
                  CONTENTS, READONLY
 28 .quartus_project_dir 00000061  00000000  00000000  00038dc1  2**0
                  CONTENTS, READONLY
 29 .jdi          0000599a  00000000  00000000  00038e22  2**0
                  CONTENTS, READONLY
 30 .sopcinfo     00086c25  00000000  00000000  0003e7bc  2**0
                  CONTENTS, READONLY
SYMBOL TABLE:
00010000 l    d  .entry	00000000 .entry
00010020 l    d  .exceptions	00000000 .exceptions
00010244 l    d  .text	00000000 .text
00015ed0 l    d  .rodata	00000000 .rodata
00015f88 l    d  .rwdata	00000000 .rwdata
000194c8 l    d  .bss	00000000 .bss
00019634 l    d  .MEMOIRE_ONCHIP	00000000 .MEMOIRE_ONCHIP
00000000 l    d  .comment	00000000 .comment
00000000 l    d  .debug_aranges	00000000 .debug_aranges
00000000 l    d  .debug_info	00000000 .debug_info
00000000 l    d  .debug_abbrev	00000000 .debug_abbrev
00000000 l    d  .debug_line	00000000 .debug_line
00000000 l    d  .debug_frame	00000000 .debug_frame
00000000 l    d  .debug_str	00000000 .debug_str
00000000 l    d  .debug_loc	00000000 .debug_loc
00000000 l    d  .debug_alt_sim_info	00000000 .debug_alt_sim_info
00000000 l    d  .debug_ranges	00000000 .debug_ranges
00000000 l    df *ABS*	00000000 ../alarm_clock_jukebox_bsp//obj/HAL/src/crt0.o
0001027c l       .text	00000000 alt_after_alt_main
00000000 l    df *ABS*	00000000 alt_irq_handler.c
00000000 l    df *ABS*	00000000 alt_instruction_exception_entry.c
00000000 l    df *ABS*	00000000 button.c
00000000 l    df *ABS*	00000000 display.c
00000000 l    df *ABS*	00000000 interrupt.c
00000000 l    df *ABS*	00000000 led.c
00000000 l    df *ABS*	00000000 main.c
00000000 l    df *ABS*	00000000 timer.c
00000000 l    df *ABS*	00000000 lib2-divmod.c
00000000 l    df *ABS*	00000000 puts.c
00000000 l    df *ABS*	00000000 strlen.c
00000000 l    df *ABS*	00000000 findfp.c
00010ca0 l     F .text	00000008 __fp_unlock
00010cb4 l     F .text	0000019c __sinit.part.1
00010e50 l     F .text	00000008 __fp_lock
00000000 l    df *ABS*	00000000 fvwrite.c
00000000 l    df *ABS*	00000000 fwalk.c
00000000 l    df *ABS*	00000000 impure.c
00015fb8 l     O .rwdata	00000424 impure_data
00000000 l    df *ABS*	00000000 mallocr.c
00000000 l    df *ABS*	00000000 memchr.c
00000000 l    df *ABS*	00000000 memcpy.c
00000000 l    df *ABS*	00000000 memmove.c
00000000 l    df *ABS*	00000000 memset.c
00000000 l    df *ABS*	00000000 mallocr.c
00000000 l    df *ABS*	00000000 sbrkr.c
00000000 l    df *ABS*	00000000 stdio.c
00000000 l    df *ABS*	00000000 writer.c
00000000 l    df *ABS*	00000000 wsetup.c
00000000 l    df *ABS*	00000000 closer.c
00000000 l    df *ABS*	00000000 fclose.c
00000000 l    df *ABS*	00000000 fflush.c
00000000 l    df *ABS*	00000000 mallocr.c
00000000 l    df *ABS*	00000000 int_errno.c
00000000 l    df *ABS*	00000000 lseekr.c
00000000 l    df *ABS*	00000000 makebuf.c
00000000 l    df *ABS*	00000000 readr.c
00000000 l    df *ABS*	00000000 fstatr.c
00000000 l    df *ABS*	00000000 isattyr.c
00000000 l    df *ABS*	00000000 alt_close.c
00013748 l     F .text	0000003c alt_get_errno
00000000 l    df *ABS*	00000000 alt_dev.c
00013854 l     F .text	0000002c alt_dev_null_write
00000000 l    df *ABS*	00000000 alt_errno.c
00000000 l    df *ABS*	00000000 alt_fstat.c
00013880 l     F .text	0000003c alt_get_errno
00000000 l    df *ABS*	00000000 alt_iic.c
00000000 l    df *ABS*	00000000 alt_iic_isr_register.c
00000000 l    df *ABS*	00000000 alt_irq_vars.c
00000000 l    df *ABS*	00000000 alt_isatty.c
00013c0c l     F .text	0000003c alt_get_errno
00000000 l    df *ABS*	00000000 alt_load.c
00013cec l     F .text	00000068 alt_load_section
00000000 l    df *ABS*	00000000 alt_lseek.c
00013dd8 l     F .text	0000003c alt_get_errno
00000000 l    df *ABS*	00000000 alt_main.c
00000000 l    df *ABS*	00000000 alt_malloc_lock.c
00000000 l    df *ABS*	00000000 alt_read.c
00013fac l     F .text	0000003c alt_get_errno
00000000 l    df *ABS*	00000000 alt_release_fd.c
00000000 l    df *ABS*	00000000 alt_sbrk.c
00017a1c l     O .rwdata	00000004 heap_end
00000000 l    df *ABS*	00000000 alt_write.c
000141f8 l     F .text	0000003c alt_get_errno
00000000 l    df *ABS*	00000000 alt_sys_init.c
0001432c l     F .text	00000034 alt_dev_reg
0001698c l     O .rwdata	00001060 jtag_uart_0
00000000 l    df *ABS*	00000000 altera_avalon_jtag_uart_fd.c
00000000 l    df *ABS*	00000000 altera_avalon_jtag_uart_init.c
00014620 l     F .text	0000020c altera_avalon_jtag_uart_irq
0001482c l     F .text	000000a0 altera_avalon_jtag_uart_timeout
00000000 l    df *ABS*	00000000 altera_avalon_jtag_uart_ioctl.c
00000000 l    df *ABS*	00000000 altera_avalon_jtag_uart_read.c
00000000 l    df *ABS*	00000000 altera_avalon_jtag_uart_write.c
00000000 l    df *ABS*	00000000 altera_avalon_timer_sc.c
00014e64 l     F .text	00000078 alt_avalon_timer_sc_irq
00000000 l    df *ABS*	00000000 alt_alarm_start.c
00000000 l    df *ABS*	00000000 alt_dcache_flush_all.c
00000000 l    df *ABS*	00000000 alt_dev_llist_insert.c
000150a4 l     F .text	0000003c alt_get_errno
00000000 l    df *ABS*	00000000 alt_do_ctors.c
00000000 l    df *ABS*	00000000 alt_do_dtors.c
00000000 l    df *ABS*	00000000 alt_icache_flush_all.c
00000000 l    df *ABS*	00000000 alt_io_redirect.c
00015314 l     F .text	000000c4 alt_open_fd
00000000 l    df *ABS*	00000000 alt_open.c
00015454 l     F .text	0000003c alt_get_errno
00015490 l     F .text	000000c4 alt_file_locked
00000000 l    df *ABS*	00000000 alt_tick.c
00000000 l    df *ABS*	00000000 altera_nios2_gen2_irq.c
00000000 l    df *ABS*	00000000 alt_find_dev.c
00000000 l    df *ABS*	00000000 alt_find_file.c
00000000 l    df *ABS*	00000000 alt_get_fd.c
00000000 l    df *ABS*	00000000 alt_icache_flush.c
00000000 l    df *ABS*	00000000 atexit.c
00000000 l    df *ABS*	00000000 exit.c
00000000 l    df *ABS*	00000000 memcmp.c
00000000 l    df *ABS*	00000000 __atexit.c
00000000 l    df *ABS*	00000000 __call_atexit.c
00000000 l    df *ABS*	00000000 alt_exit.c
000194e8 g     O .bss	00000004 alt_instruction_exception_handler
00010500 g     F .text	00000030 enableTimerSecondISR
000136f4 g     F .text	00000054 _isatty_r
00013ee8 g     F .text	0000007c alt_main
00010b34 g     F .text	000000c0 _puts_r
00019534 g     O .bss	00000100 alt_irq
0001341c g     F .text	00000060 _lseek_r
00017a28 g       *ABS*	00000000 __flash_rwdata_start
00019634 g       *ABS*	00000000 __alt_heap_start
000129d0 g     F .text	0000005c __sseek
00010ff0 g     F .text	00000010 __sinit
00010e58 g     F .text	00000068 __sfmoreglue
00013f88 g     F .text	00000024 __malloc_unlock
00010570 g     F .text	00000048 registerTimerSecondISR
000120bc g     F .text	0000015c memmove
00010fd8 g     F .text	00000018 _cleanup
0001584c g     F .text	00000024 altera_nios2_gen2_irq_init
00010000 g     F .entry	0000001c __reset
00010020 g       *ABS*	00000000 __flash_exceptions_start
00013698 g     F .text	0000005c _fstat_r
000194d4 g     O .bss	00000004 errno
0001294c g     F .text	00000008 __seofread
000194e0 g     O .bss	00000004 alt_argv
0001f9ec g       *ABS*	00000000 _gp
000179ec g     O .rwdata	00000004 time_format
000105e8 g     F .text	00000030 alarmLEDon
0001680c g     O .rwdata	00000180 alt_fd_list
0001951c g     O .bss	0000000c current_time
00015870 g     F .text	00000090 alt_find_dev
00011f74 g     F .text	00000148 memcpy
0001043c g     F .text	00000044 updateMinutesTime
00010ca8 g     F .text	0000000c _cleanup_r
000153d8 g     F .text	0000007c alt_io_redirect
00015ed0 g       *ABS*	00000000 __DTOR_END__
00010bf4 g     F .text	00000014 puts
00015278 g     F .text	0000009c alt_exception_cause_generated_bad_addr
00019528 g     O .bss	0000000c alarm_time
00014a24 g     F .text	0000021c altera_avalon_jtag_uart_read
00010a78 g     F .text	00000064 .hidden __udivsi3
00013c48 g     F .text	000000a4 isatty
000107dc g     F .text	0000006c incrementAlarmMinute
00015aac g     F .text	00000090 alt_icache_flush
000194d0 g     O .bss	00000004 __malloc_top_pad
00010848 g     F .text	00000060 incrementTimeHour
00011040 g     F .text	000004bc __sfvwrite_r
000128a4 g     F .text	00000054 _sbrk_r
00013638 g     F .text	00000060 _read_r
00017a10 g     O .rwdata	00000004 alt_max_fd
00012c3c g     F .text	000000f0 _fclose_r
00012fb8 g     F .text	00000030 fflush
000194cc g     O .bss	00000004 __malloc_max_sbrked_mem
00013e14 g     F .text	000000d4 lseek
000179f0 g     O .rwdata	00000004 _global_impure_ptr
00012340 g     F .text	00000564 _realloc_r
00019634 g       *ABS*	00000000 __bss_end
00013b1c g     F .text	000000f0 alt_iic_isr_register
00015744 g     F .text	00000108 alt_tick
00011010 g     F .text	00000018 __fp_lock_all
00013ad0 g     F .text	0000004c alt_ic_irq_enabled
000156a8 g     F .text	0000009c alt_alarm_stop
000194d8 g     O .bss	00000004 alt_irq_active
000100fc g     F .exceptions	000000d4 alt_irq_handler
000167e4 g     O .rwdata	00000028 alt_dev_null
00015084 g     F .text	00000020 alt_dcache_flush_all
00010530 g     F .text	00000040 timerSecondISR
00017a28 g       *ABS*	00000000 __ram_rwdata_end
00017a08 g     O .rwdata	00000008 alt_dev_list
00010738 g     F .text	00000044 initializeAlarm
00014234 g     F .text	000000f8 write
00015f88 g       *ABS*	00000000 __ram_rodata_end
000138bc g     F .text	000000b0 fstat
000103f8 g     F .text	00000044 updateHourTime
00015f88 g     O .rwdata	00000030 COM_ANODE_SEG_TABLE
00010adc g     F .text	00000058 .hidden __umodsi3
000105b8 g     F .text	00000030 alarmLEDoff
00010618 g     F .text	00000048 alarmLEDtoggle
00019634 g       *ABS*	00000000 end
000104c4 g     F .text	0000003c registerISR
00014560 g     F .text	000000c0 altera_avalon_jtag_uart_init
000101d0 g     F .exceptions	00000074 alt_instruction_exception_entry
00015ed0 g       *ABS*	00000000 __CTOR_LIST__
0001a000 g       *ABS*	00000000 __alt_stack_pointer
00014edc g     F .text	0000007c alt_avalon_timer_sc_init
00014c40 g     F .text	00000224 altera_avalon_jtag_uart_write
00011000 g     F .text	00000004 __sfp_lock_acquire
00011e90 g     F .text	000000e4 memchr
0001310c g     F .text	00000310 _free_r
00015d1c g     F .text	00000180 __call_exitprocs
000179f8 g     O .rwdata	00000004 __malloc_sbrk_base
00010244 g     F .text	0000003c _start
000194ec g     O .bss	00000004 _alt_tick_rate
000194f0 g     O .bss	00000004 _alt_nticks
00013fe8 g     F .text	000000fc read
00014398 g     F .text	00000064 alt_sys_init
00015c04 g     F .text	00000118 __register_exitproc
000148cc g     F .text	00000068 altera_avalon_jtag_uart_close
00015f88 g       *ABS*	00000000 __ram_rwdata_start
00015ed0 g       *ABS*	00000000 __ram_rodata_start
000194f4 g     O .bss	00000028 __malloc_current_mallinfo
000143fc g     F .text	00000060 altera_avalon_jtag_uart_read_fd
00015a08 g     F .text	000000a4 alt_get_fd
00012be8 g     F .text	00000054 _close_r
00015b88 g     F .text	0000007c memcmp
000144bc g     F .text	00000050 altera_avalon_jtag_uart_close_fd
00019634 g       *ABS*	00000000 __alt_stack_base
0001450c g     F .text	00000054 altera_avalon_jtag_uart_ioctl_fd
00012a94 g     F .text	00000154 __swsetup_r
00010ec0 g     F .text	00000118 __sfp
000163dc g     O .rwdata	00000408 __malloc_av_
0001100c g     F .text	00000004 __sinit_lock_release
000128f8 g     F .text	00000054 __sread
00015900 g     F .text	00000108 alt_find_file
000150e0 g     F .text	000000a4 alt_dev_llist_insert
00013f64 g     F .text	00000024 __malloc_lock
00014148 g     F .text	000000b0 sbrk
00012f5c g     F .text	0000005c _fflush_r
00010320 g     F .text	000000d8 convertBCDToLED
000194c8 g       *ABS*	00000000 __bss_start
00012218 g     F .text	00000128 memset
00010660 g     F .text	0000005c main
000194e4 g     O .bss	00000004 alt_envp
000194c8 g     O .bss	00000004 __malloc_max_total_mem
0001445c g     F .text	00000060 altera_avalon_jtag_uart_write_fd
00012a2c g     F .text	00000008 __sclose
0001a000 g       *ABS*	00000000 __alt_heap_limit
00012d2c g     F .text	00000014 fclose
00011684 g     F .text	0000080c _malloc_r
00017a14 g     O .rwdata	00000004 alt_errno
000114fc g     F .text	000000c4 _fwalk
00010980 g     F .text	00000084 .hidden __divsi3
00012fe8 g     F .text	00000124 _malloc_trim_r
00015ed0 g       *ABS*	00000000 __CTOR_END__
00015ed0 g       *ABS*	00000000 __flash_rodata_start
00015ed0 g       *ABS*	00000000 __DTOR_LIST__
00014360 g     F .text	00000038 alt_irq_init
000140e4 g     F .text	00000064 alt_release_fd
00015b3c g     F .text	00000014 atexit
00012a34 g     F .text	00000060 _write_r
00010000 g       *ABS*	00000000 __alt_mem_MEMOIRE_ONCHIP
000179f4 g     O .rwdata	00000004 _impure_ptr
000194dc g     O .bss	00000004 alt_argc
00012d40 g     F .text	0000021c __sflush_r
000151e4 g     F .text	00000060 _do_dtors
00010020 g       .exceptions	00000000 alt_irq_entry
00011028 g     F .text	00000018 __fp_unlock_all
00017a00 g     O .rwdata	00000008 alt_fs_list
00010020 g       *ABS*	00000000 __ram_exceptions_start
000108a8 g     F .text	0000006c incrementTimeMinute
0001396c g     F .text	00000050 alt_ic_isr_register
00017a28 g       *ABS*	00000000 _edata
00019634 g       *ABS*	00000000 _end
000106bc g     F .text	00000038 timerSecondCallback
00010244 g       *ABS*	00000000 __ram_exceptions_end
00014934 g     F .text	000000f0 altera_avalon_jtag_uart_ioctl
00010480 g     F .text	00000044 updateSecondsTime
00013a44 g     F .text	0000008c alt_ic_irq_disable
00012954 g     F .text	0000007c __swrite
000179fc g     O .rwdata	00000004 __malloc_trim_threshold
00015b50 g     F .text	00000038 exit
00010280 g     F .text	000000a0 convert3DigitDecimalToLED
000115c0 g     F .text	000000c4 _fwalk_reent
00010a04 g     F .text	00000074 .hidden __modsi3
000106f4 g     F .text	00000044 initializeTime
0001a000 g       *ABS*	00000000 __alt_data_end
00010020 g     F .exceptions	00000000 alt_exception
00011004 g     F .text	00000004 __sfp_lock_release
00010914 g     F .text	0000006c incrementTimeSecond
00015e9c g     F .text	00000034 _exit
00014f58 g     F .text	0000012c alt_alarm_start
0001347c g     F .text	000001bc __smakebuf_r
00010c08 g     F .text	00000098 strlen
00015554 g     F .text	00000154 open
0001077c g     F .text	00000060 incrementAlarmHour
00015244 g     F .text	00000034 alt_icache_flush_all
00017a18 g     O .rwdata	00000004 alt_priority_mask
000139bc g     F .text	00000088 alt_ic_irq_enable
00017a20 g     O .rwdata	00000008 alt_alarm_list
00015184 g     F .text	00000060 _do_ctors
00013784 g     F .text	000000d0 close
00013d54 g     F .text	00000084 alt_load
00011008 g     F .text	00000004 __sinit_lock_acquire



Disassembly of section .entry:

00010000 <__reset>:
#if NIOS2_ICACHE_SIZE > 0 && defined(ALT_ALLOW_CODE_AT_RESET) && (!defined(ALT_SIM_OPTIMIZE) || defined(NIOS2_ECC_PRESENT))
    /* Assume the instruction cache size is always a power of two. */
#if NIOS2_ICACHE_SIZE > 0x8000
    movhi r2, %hi(NIOS2_ICACHE_SIZE)
#else
    movui r2, NIOS2_ICACHE_SIZE
   10000:	00820014 	movui	r2,2048
#endif

0:
    initi r2
   10004:	1001483a 	initi	r2
    addi r2, r2, -NIOS2_ICACHE_LINE_SIZE
   10008:	10bff804 	addi	r2,r2,-32
    bgt r2, zero, 0b
   1000c:	00bffd16 	blt	zero,r2,10004 <_gp+0xffff0618>
 * Jump to the _start entry point in the .text section if reset code
 * is allowed or if optimizing for RTL simulation.
 */
#if defined(ALT_ALLOW_CODE_AT_RESET) || defined(ALT_SIM_OPTIMIZE)
    /* Jump to the _start entry point in the .text section. */
    movhi r1, %hi(_start)
   10010:	00400074 	movhi	at,1
    ori r1, r1, %lo(_start)
   10014:	08409114 	ori	at,at,580
    jmp r1
   10018:	0800683a 	jmp	at
   1001c:	00000000 	call	0 <__alt_mem_MEMOIRE_ONCHIP-0x10000>

Disassembly of section .exceptions:

00010020 <alt_exception>:

#else /* ALT_EXCEPTION_STACK disabled */
        /* 
         * Reserve space on normal stack for registers about to be pushed.
         */
        addi  sp, sp, -76
   10020:	deffed04 	addi	sp,sp,-76
         * documentation for details).
         *
         * Leave a gap in the stack frame at 4(sp) for the muldiv handler to
         * store zero into.
         */
        stw   ra,  0(sp)
   10024:	dfc00015 	stw	ra,0(sp)
        stw   r1,   8(sp)
   10028:	d8400215 	stw	at,8(sp)
        stw   r2,  12(sp)
   1002c:	d8800315 	stw	r2,12(sp)
        stw   r3,  16(sp)
   10030:	d8c00415 	stw	r3,16(sp)
        stw   r4,  20(sp)
   10034:	d9000515 	stw	r4,20(sp)
        stw   r5,  24(sp)
   10038:	d9400615 	stw	r5,24(sp)
        stw   r6,  28(sp)
   1003c:	d9800715 	stw	r6,28(sp)
        stw   r7,  32(sp)
   10040:	d9c00815 	stw	r7,32(sp)
        rdctl r5, estatus   /* Read early to avoid usage stall */
   10044:	000b307a 	rdctl	r5,estatus
        stw   r8,  36(sp)
   10048:	da000915 	stw	r8,36(sp)
        stw   r9,  40(sp)
   1004c:	da400a15 	stw	r9,40(sp)
        stw   r10, 44(sp)
   10050:	da800b15 	stw	r10,44(sp)
        stw   r11, 48(sp)
   10054:	dac00c15 	stw	r11,48(sp)
        stw   r12, 52(sp)
   10058:	db000d15 	stw	r12,52(sp)
        stw   r13, 56(sp)
   1005c:	db400e15 	stw	r13,56(sp)
        stw   r14, 60(sp)
   10060:	db800f15 	stw	r14,60(sp)
        stw   r15, 64(sp)
   10064:	dbc01015 	stw	r15,64(sp)
        /*
         * ea-4 contains the address of the instruction being executed
         * when the exception occured. For interrupt exceptions, we will
         * will be re-issue the isntruction. Store it in 72(sp)
         */
        stw   r5,  68(sp)  /* estatus */
   10068:	d9401115 	stw	r5,68(sp)
        addi  r15, ea, -4  /* instruction that caused exception */
   1006c:	ebffff04 	addi	r15,ea,-4
        stw   r15,  72(sp)
   10070:	dbc01215 	stw	r15,72(sp)
#else
        /*
         * Test to see if the exception was a software exception or caused 
         * by an external interrupt, and vector accordingly.
         */
        rdctl r4, ipending
   10074:	0009313a 	rdctl	r4,ipending
        andi  r2, r5, 1
   10078:	2880004c 	andi	r2,r5,1
        beq   r2, zero, .Lnot_irq
   1007c:	10000326 	beq	r2,zero,1008c <alt_exception+0x6c>
        beq   r4, zero, .Lnot_irq
   10080:	20000226 	beq	r4,zero,1008c <alt_exception+0x6c>
        /*
         * Now that all necessary registers have been preserved, call 
         * alt_irq_handler() to process the interrupts.
         */

        call alt_irq_handler
   10084:	00100fc0 	call	100fc <alt_irq_handler>

        .section .exceptions.irqreturn, "xa"

        br    .Lexception_exit
   10088:	00000706 	br	100a8 <alt_exception+0x88>
         * upon completion, so we write ea (address of instruction *after*
         * the one where the exception occured) into 72(sp). The actual
         * instruction that caused the exception is written in r2, which these
         * handlers will utilize.
         */
        stw ea, 72(sp) /* EA is PC+4 so will skip over instruction causing exception */
   1008c:	df401215 	stw	ea,72(sp)
.Lunknown_16bit:
        addi.n r4, r4, 2 /* Need PC+2 to skip over instruction causing exception */
        stw r4, 72(sp)

#else /* CDX is not Enabled and all instructions are 32bits */
        ldw r2, -4(ea) /* Instruction value that caused exception */
   10090:	e8bfff17 	ldw	r2,-4(ea)
         * debugger is present) or go into an infinite loop since the
         * handling behavior is undefined; in that case we will not return here.
         */

        /* Load exception-causing address as first argument (r4) */
        addi   r4, ea, -4
   10094:	e93fff04 	addi	r4,ea,-4

        /* Call the instruction-exception entry */
        call   alt_instruction_exception_entry
   10098:	00101d00 	call	101d0 <alt_instruction_exception_entry>
         * instruction
         *
         * Return code was 0: Skip. The instruction after the exception is
         * already stored in 72(sp).
         */
        bne   r2, r0, .Lexception_exit
   1009c:	1000021e 	bne	r2,zero,100a8 <alt_exception+0x88>

        /*
         * Otherwise, modify 72(sp) to re-issue the instruction that caused the
         * exception.
         */
        addi  r15, ea, -4  /* instruction that caused exception */
   100a0:	ebffff04 	addi	r15,ea,-4
        stw   r15,  72(sp)
   100a4:	dbc01215 	stw	r15,72(sp)
        /* 
         * Restore the saved registers, so that all general purpose registers 
         * have been restored to their state at the time the interrupt occured.
         */

        ldw   r5,  68(sp)
   100a8:	d9401117 	ldw	r5,68(sp)
        ldw   ea,  72(sp)  /* This becomes the PC once eret is executed */
   100ac:	df401217 	ldw	ea,72(sp)
        ldw   ra,   0(sp)
   100b0:	dfc00017 	ldw	ra,0(sp)

        wrctl estatus, r5
   100b4:	2801707a 	wrctl	estatus,r5

        ldw   r1,   8(sp)
   100b8:	d8400217 	ldw	at,8(sp)
        ldw   r2,  12(sp)
   100bc:	d8800317 	ldw	r2,12(sp)
        ldw   r3,  16(sp)
   100c0:	d8c00417 	ldw	r3,16(sp)
        ldw   r4,  20(sp)
   100c4:	d9000517 	ldw	r4,20(sp)
        ldw   r5,  24(sp)
   100c8:	d9400617 	ldw	r5,24(sp)
        ldw   r6,  28(sp)
   100cc:	d9800717 	ldw	r6,28(sp)
        ldw   r7,  32(sp)
   100d0:	d9c00817 	ldw	r7,32(sp)

#if defined(ALT_EXCEPTION_STACK) && defined(ALT_STACK_CHECK)
        ldw   et, %gprel(alt_exception_old_stack_limit)(gp)
#endif

        ldw   r8,  36(sp)
   100d4:	da000917 	ldw	r8,36(sp)
        ldw   r9,  40(sp)
   100d8:	da400a17 	ldw	r9,40(sp)
        ldw   r10, 44(sp)
   100dc:	da800b17 	ldw	r10,44(sp)
        ldw   r11, 48(sp)
   100e0:	dac00c17 	ldw	r11,48(sp)
        ldw   r12, 52(sp)
   100e4:	db000d17 	ldw	r12,52(sp)
        ldw   r13, 56(sp)
   100e8:	db400e17 	ldw	r13,56(sp)
        ldw   r14, 60(sp)
   100ec:	db800f17 	ldw	r14,60(sp)
        ldw   r15, 64(sp)
   100f0:	dbc01017 	ldw	r15,64(sp)
        stw   et, %gprel(alt_stack_limit_value)(gp)
        stw   zero, %gprel(alt_exception_old_stack_limit)(gp)
#endif /* ALT_STACK_CHECK */
        ldw   sp,  76(sp)
#else /* ALT_EXCEPTION_STACK disabled */
        addi  sp, sp, 76
   100f4:	dec01304 	addi	sp,sp,76

        /*
         * Return to the interrupted instruction.
         */

        eret
   100f8:	ef80083a 	eret

000100fc <alt_irq_handler>:
 * instruction is present if the macro ALT_CI_INTERRUPT_VECTOR defined.
 */

void alt_irq_handler (void) __attribute__ ((section (".exceptions")));
void alt_irq_handler (void)
{
   100fc:	defff904 	addi	sp,sp,-28
   10100:	dfc00615 	stw	ra,24(sp)
   10104:	df000515 	stw	fp,20(sp)
   10108:	df000504 	addi	fp,sp,20
  
  /*
   * Notify the operating system that we are at interrupt level.
   */ 
  
  ALT_OS_INT_ENTER();
   1010c:	0001883a 	nop
#ifndef NIOS2_EIC_PRESENT
static ALT_INLINE alt_u32 ALT_ALWAYS_INLINE alt_irq_pending (void)
{
  alt_u32 active;

  NIOS2_READ_IPENDING (active);
   10110:	0005313a 	rdctl	r2,ipending
   10114:	e0bffe15 	stw	r2,-8(fp)

  return active;
   10118:	e0bffe17 	ldw	r2,-8(fp)
   * Consider the case where the high priority interupt is asserted during
   * the interrupt entry sequence for a lower priority interrupt to see why
   * this is the case.
   */

  active = alt_irq_pending ();
   1011c:	e0bffb15 	stw	r2,-20(fp)

  do
  {
    i = 0;
   10120:	e03ffd15 	stw	zero,-12(fp)
    mask = 1;
   10124:	00800044 	movi	r2,1
   10128:	e0bffc15 	stw	r2,-16(fp)
     * called to clear the interrupt condition.
     */

    do
    {
      if (active & mask)
   1012c:	e0fffb17 	ldw	r3,-20(fp)
   10130:	e0bffc17 	ldw	r2,-16(fp)
   10134:	1884703a 	and	r2,r3,r2
   10138:	10001426 	beq	r2,zero,1018c <alt_irq_handler+0x90>
      { 
#ifdef ALT_ENHANCED_INTERRUPT_API_PRESENT
        alt_irq[i].handler(alt_irq[i].context); 
   1013c:	008000b4 	movhi	r2,2
   10140:	10a54d04 	addi	r2,r2,-27340
   10144:	e0fffd17 	ldw	r3,-12(fp)
   10148:	180690fa 	slli	r3,r3,3
   1014c:	10c5883a 	add	r2,r2,r3
   10150:	10c00017 	ldw	r3,0(r2)
   10154:	008000b4 	movhi	r2,2
   10158:	10a54d04 	addi	r2,r2,-27340
   1015c:	e13ffd17 	ldw	r4,-12(fp)
   10160:	200890fa 	slli	r4,r4,3
   10164:	1105883a 	add	r2,r2,r4
   10168:	10800104 	addi	r2,r2,4
   1016c:	10800017 	ldw	r2,0(r2)
   10170:	1009883a 	mov	r4,r2
   10174:	183ee83a 	callr	r3
#else
        alt_irq[i].handler(alt_irq[i].context, i); 
#endif
        break;
   10178:	0001883a 	nop
#ifndef NIOS2_EIC_PRESENT
static ALT_INLINE alt_u32 ALT_ALWAYS_INLINE alt_irq_pending (void)
{
  alt_u32 active;

  NIOS2_READ_IPENDING (active);
   1017c:	0005313a 	rdctl	r2,ipending
   10180:	e0bfff15 	stw	r2,-4(fp)

  return active;
   10184:	e0bfff17 	ldw	r2,-4(fp)
   10188:	00000706 	br	101a8 <alt_irq_handler+0xac>
      }
      mask <<= 1;
   1018c:	e0bffc17 	ldw	r2,-16(fp)
   10190:	1085883a 	add	r2,r2,r2
   10194:	e0bffc15 	stw	r2,-16(fp)
      i++;
   10198:	e0bffd17 	ldw	r2,-12(fp)
   1019c:	10800044 	addi	r2,r2,1
   101a0:	e0bffd15 	stw	r2,-12(fp)

    } while (1);
   101a4:	003fe106 	br	1012c <_gp+0xffff0740>

    active = alt_irq_pending ();
   101a8:	e0bffb15 	stw	r2,-20(fp)
    
  } while (active);
   101ac:	e0bffb17 	ldw	r2,-20(fp)
   101b0:	103fdb1e 	bne	r2,zero,10120 <_gp+0xffff0734>

  /*
   * Notify the operating system that interrupt processing is complete.
   */ 

  ALT_OS_INT_EXIT();
   101b4:	0001883a 	nop
}
   101b8:	0001883a 	nop
   101bc:	e037883a 	mov	sp,fp
   101c0:	dfc00117 	ldw	ra,4(sp)
   101c4:	df000017 	ldw	fp,0(sp)
   101c8:	dec00204 	addi	sp,sp,8
   101cc:	f800283a 	ret

000101d0 <alt_instruction_exception_entry>:
 * that handler if it has been registered. Absent a handler, it will
 * break break or hang as discussed below.
 */
int 
alt_instruction_exception_entry (alt_u32 exception_pc)
{
   101d0:	defffb04 	addi	sp,sp,-20
   101d4:	dfc00415 	stw	ra,16(sp)
   101d8:	df000315 	stw	fp,12(sp)
   101dc:	df000304 	addi	fp,sp,12
   101e0:	e13fff15 	stw	r4,-4(fp)
 * NIOS2_EXCEPTION_CAUSE_NOT_PRESENT. Your handling routine should
 * check the validity of the cause argument before proceeding.
 */
#ifdef NIOS2_HAS_EXTRA_EXCEPTION_INFO
  /* Get exception cause & "badaddr" */
  NIOS2_READ_EXCEPTION(cause);
   101e4:	000531fa 	rdctl	r2,exception
   101e8:	e0bffd15 	stw	r2,-12(fp)
  cause = ( (cause & NIOS2_EXCEPTION_REG_CAUSE_MASK) >>
   101ec:	e0bffd17 	ldw	r2,-12(fp)
   101f0:	10801f0c 	andi	r2,r2,124
   101f4:	1004d0ba 	srli	r2,r2,2
   101f8:	e0bffd15 	stw	r2,-12(fp)
              NIOS2_EXCEPTION_REG_CAUSE_OFST );

  NIOS2_READ_BADADDR(badaddr);
   101fc:	0005333a 	rdctl	r2,badaddr
   10200:	e0bffe15 	stw	r2,-8(fp)
#else
  cause = NIOS2_EXCEPTION_CAUSE_NOT_PRESENT;
  badaddr = 0;
#endif /* NIOS2_HAS_EXTRA_EXCEPTION_INFO */

  if(alt_instruction_exception_handler) {
   10204:	d0a6bf17 	ldw	r2,-25860(gp)
   10208:	10000726 	beq	r2,zero,10228 <alt_instruction_exception_entry+0x58>
     * Call handler. Its return value indicates whether the exception-causing
     * instruction should be re-issued. The code that called us,
     * alt_eceptions_entry.S, will look at this value and adjust the ea
     * register as necessary
     */
    return alt_instruction_exception_handler(cause, exception_pc, badaddr);
   1020c:	d0a6bf17 	ldw	r2,-25860(gp)
   10210:	e0fffd17 	ldw	r3,-12(fp)
   10214:	e1bffe17 	ldw	r6,-8(fp)
   10218:	e17fff17 	ldw	r5,-4(fp)
   1021c:	1809883a 	mov	r4,r3
   10220:	103ee83a 	callr	r2
   10224:	00000206 	br	10230 <alt_instruction_exception_entry+0x60>
   *    (a peripheral which negates its interrupt output before its
   *    interrupt handler has been executed will cause spurious interrupts)
   */
  else {
#ifdef NIOS2_HAS_DEBUG_STUB
    NIOS2_BREAK();
   10228:	003da03a 	break	0
      ;
#endif /* NIOS2_HAS_DEBUG_STUB */
  }

  /* We should not get here. Remove compiler warning. */
  return NIOS2_EXCEPTION_RETURN_REISSUE_INST;
   1022c:	0005883a 	mov	r2,zero
}
   10230:	e037883a 	mov	sp,fp
   10234:	dfc00117 	ldw	ra,4(sp)
   10238:	df000017 	ldw	fp,0(sp)
   1023c:	dec00204 	addi	sp,sp,8
   10240:	f800283a 	ret

Disassembly of section .text:

00010244 <_start>:

    /*
     * Now that the caches are initialized, set up the stack pointer and global pointer.
     * The values provided by the linker are assumed to be correctly aligned.
     */
    movhi sp, %hi(__alt_stack_pointer)
   10244:	06c00074 	movhi	sp,1
    ori sp, sp, %lo(__alt_stack_pointer)
   10248:	dee80014 	ori	sp,sp,40960
    movhi gp, %hi(_gp)
   1024c:	06800074 	movhi	gp,1
    ori gp, gp, %lo(_gp)
   10250:	d6be7b14 	ori	gp,gp,63980
 */
#ifndef ALT_SIM_OPTIMIZE
    /* Log that the BSS is about to be cleared. */
    ALT_LOG_PUTS(alt_log_msg_bss)

    movhi r2, %hi(__bss_start)
   10254:	00800074 	movhi	r2,1
    ori r2, r2, %lo(__bss_start)
   10258:	10a53214 	ori	r2,r2,38088

    movhi r3, %hi(__bss_end)
   1025c:	00c00074 	movhi	r3,1
    ori r3, r3, %lo(__bss_end)
   10260:	18e58d14 	ori	r3,r3,38452

    beq r2, r3, 1f
   10264:	10c00326 	beq	r2,r3,10274 <_start+0x30>

0:
    stw zero, (r2)
   10268:	10000015 	stw	zero,0(r2)
    addi r2, r2, 4
   1026c:	10800104 	addi	r2,r2,4
    bltu r2, r3, 0b
   10270:	10fffd36 	bltu	r2,r3,10268 <_gp+0xffff087c>
     * section aren't defined until alt_load() has been called).
     */
    mov   et, zero
#endif

    call alt_load
   10274:	0013d540 	call	13d54 <alt_load>

    /* Log that alt_main is about to be called. */
    ALT_LOG_PUTS(alt_log_msg_alt_main)

    /* Call the C entry point. It should never return. */
    call alt_main
   10278:	0013ee80 	call	13ee8 <alt_main>

0001027c <alt_after_alt_main>:

    /* Wait in infinite loop in case alt_main does return. */
alt_after_alt_main:
    br alt_after_alt_main
   1027c:	003fff06 	br	1027c <_gp+0xffff0890>

00010280 <convert3DigitDecimalToLED>:
bcd[2] = 512/100 = 5
bcd[1] = (512-5*100)/10 = 12/10 = 1
bcd[0] = (512 - (5*100 + 1*10))/1 = 2
*/

int convert3DigitDecimalToLED(int decimal) {
   10280:	defff904 	addi	sp,sp,-28
   10284:	dfc00615 	stw	ra,24(sp)
   10288:	df000515 	stw	fp,20(sp)
   1028c:	df000504 	addi	fp,sp,20
   10290:	e13fff15 	stw	r4,-4(fp)
  int bcd[3] = {0x0,0x0,0x0};
   10294:	e03ffc15 	stw	zero,-16(fp)
   10298:	e03ffd15 	stw	zero,-12(fp)
   1029c:	e03ffe15 	stw	zero,-8(fp)
  int ledseg_buffer = 0;
   102a0:	e03ffb15 	stw	zero,-20(fp)
  
  // first convert the decimal to BCD
  bcd[2] = decimal/100;
   102a4:	e0bfff17 	ldw	r2,-4(fp)
   102a8:	01401904 	movi	r5,100
   102ac:	1009883a 	mov	r4,r2
   102b0:	00109800 	call	10980 <__divsi3>
   102b4:	e0bffe15 	stw	r2,-8(fp)
  bcd[1] = (decimal - bcd[2]*100)/10;
   102b8:	e0bffe17 	ldw	r2,-8(fp)
   102bc:	10ffe724 	muli	r3,r2,-100
   102c0:	e0bfff17 	ldw	r2,-4(fp)
   102c4:	1885883a 	add	r2,r3,r2
   102c8:	01400284 	movi	r5,10
   102cc:	1009883a 	mov	r4,r2
   102d0:	00109800 	call	10980 <__divsi3>
   102d4:	e0bffd15 	stw	r2,-12(fp)
  bcd[0] = decimal - (bcd[2]*100 + bcd[1]*10);
   102d8:	e0bffe17 	ldw	r2,-8(fp)
   102dc:	10c01924 	muli	r3,r2,100
   102e0:	e0bffd17 	ldw	r2,-12(fp)
   102e4:	108002a4 	muli	r2,r2,10
   102e8:	1885883a 	add	r2,r3,r2
   102ec:	e0ffff17 	ldw	r3,-4(fp)
   102f0:	1885c83a 	sub	r2,r3,r2
   102f4:	e0bffc15 	stw	r2,-16(fp)

  // then convert BCD to LED segment data buffer
  // by passing in pointer to bcd array
  ledseg_buffer = convertBCDToLED(bcd);
   102f8:	e0bffc04 	addi	r2,fp,-16
   102fc:	1009883a 	mov	r4,r2
   10300:	00103200 	call	10320 <convertBCDToLED>
   10304:	e0bffb15 	stw	r2,-20(fp)

  return ledseg_buffer;
   10308:	e0bffb17 	ldw	r2,-20(fp)
}
   1030c:	e037883a 	mov	sp,fp
   10310:	dfc00117 	ldw	ra,4(sp)
   10314:	df000017 	ldw	fp,0(sp)
   10318:	dec00204 	addi	sp,sp,8
   1031c:	f800283a 	ret

00010320 <convertBCDToLED>:

int convertBCDToLED(int *bcd) {
   10320:	defff904 	addi	sp,sp,-28
   10324:	df000615 	stw	fp,24(sp)
   10328:	df000604 	addi	fp,sp,24
   1032c:	e13fff15 	stw	r4,-4(fp)

  int i;
  int ledseg[3] = {0x0,0x0,0x0};
   10330:	e03ffc15 	stw	zero,-16(fp)
   10334:	e03ffd15 	stw	zero,-12(fp)
   10338:	e03ffe15 	stw	zero,-8(fp)
  int ledseg_buffer = 0x0;
   1033c:	e03ffb15 	stw	zero,-20(fp)

  // shift by 8 bits each time through loop to target each digit
  // of the 7 seg display
  for (i=0; i < 3; i++) {
   10340:	e03ffa15 	stw	zero,-24(fp)
   10344:	00002406 	br	103d8 <convertBCDToLED+0xb8>
    // bcd[i] corresponds to a position of the SEG_TABLE and this position
    // is the associated BCD value
    ledseg[i] = COM_ANODE_SEG_TABLE[(bcd[i])];
   10348:	e0bffa17 	ldw	r2,-24(fp)
   1034c:	1085883a 	add	r2,r2,r2
   10350:	1085883a 	add	r2,r2,r2
   10354:	1007883a 	mov	r3,r2
   10358:	e0bfff17 	ldw	r2,-4(fp)
   1035c:	10c5883a 	add	r2,r2,r3
   10360:	10c00017 	ldw	r3,0(r2)
   10364:	00800074 	movhi	r2,1
   10368:	1097e204 	addi	r2,r2,24456
   1036c:	18c7883a 	add	r3,r3,r3
   10370:	18c7883a 	add	r3,r3,r3
   10374:	10c5883a 	add	r2,r2,r3
   10378:	10c00017 	ldw	r3,0(r2)
   1037c:	e0bffa17 	ldw	r2,-24(fp)
   10380:	1085883a 	add	r2,r2,r2
   10384:	1085883a 	add	r2,r2,r2
   10388:	e13ffa04 	addi	r4,fp,-24
   1038c:	2085883a 	add	r2,r4,r2
   10390:	10800204 	addi	r2,r2,8
   10394:	10c00015 	stw	r3,0(r2)
    ledseg_buffer |= (ledseg[i] << 8*i);
   10398:	e0bffa17 	ldw	r2,-24(fp)
   1039c:	1085883a 	add	r2,r2,r2
   103a0:	1085883a 	add	r2,r2,r2
   103a4:	e0fffa04 	addi	r3,fp,-24
   103a8:	1885883a 	add	r2,r3,r2
   103ac:	10800204 	addi	r2,r2,8
   103b0:	10c00017 	ldw	r3,0(r2)
   103b4:	e0bffa17 	ldw	r2,-24(fp)
   103b8:	100490fa 	slli	r2,r2,3
   103bc:	1884983a 	sll	r2,r3,r2
   103c0:	e0fffb17 	ldw	r3,-20(fp)
   103c4:	1884b03a 	or	r2,r3,r2
   103c8:	e0bffb15 	stw	r2,-20(fp)
  int ledseg[3] = {0x0,0x0,0x0};
  int ledseg_buffer = 0x0;

  // shift by 8 bits each time through loop to target each digit
  // of the 7 seg display
  for (i=0; i < 3; i++) {
   103cc:	e0bffa17 	ldw	r2,-24(fp)
   103d0:	10800044 	addi	r2,r2,1
   103d4:	e0bffa15 	stw	r2,-24(fp)
   103d8:	e0bffa17 	ldw	r2,-24(fp)
   103dc:	108000d0 	cmplti	r2,r2,3
   103e0:	103fd91e 	bne	r2,zero,10348 <_gp+0xffff095c>
    // bcd[i] corresponds to a position of the SEG_TABLE and this position
    // is the associated BCD value
    ledseg[i] = COM_ANODE_SEG_TABLE[(bcd[i])];
    ledseg_buffer |= (ledseg[i] << 8*i);
  }
  return ledseg_buffer;
   103e4:	e0bffb17 	ldw	r2,-20(fp)
}
   103e8:	e037883a 	mov	sp,fp
   103ec:	df000017 	ldw	fp,0(sp)
   103f0:	dec00104 	addi	sp,sp,4
   103f4:	f800283a 	ret

000103f8 <updateHourTime>:

void updateHourTime(int hour) {
   103f8:	defffe04 	addi	sp,sp,-8
   103fc:	df000115 	stw	fp,4(sp)
   10400:	df000104 	addi	fp,sp,4
   10404:	e13fff15 	stw	r4,-4(fp)
  IOWR_ALTERA_AVALON_PIO_DATA(HOUR1_BASE, hour);
   10408:	008000b4 	movhi	r2,2
   1040c:	10843004 	addi	r2,r2,4288
   10410:	e0ffff17 	ldw	r3,-4(fp)
   10414:	10c00035 	stwio	r3,0(r2)
  IOWR_ALTERA_AVALON_PIO_DATA(HOUR0_BASE, hour);
   10418:	008000b4 	movhi	r2,2
   1041c:	10843404 	addi	r2,r2,4304
   10420:	e0ffff17 	ldw	r3,-4(fp)
   10424:	10c00035 	stwio	r3,0(r2)
}
   10428:	0001883a 	nop
   1042c:	e037883a 	mov	sp,fp
   10430:	df000017 	ldw	fp,0(sp)
   10434:	dec00104 	addi	sp,sp,4
   10438:	f800283a 	ret

0001043c <updateMinutesTime>:

void updateMinutesTime(int minute) {
   1043c:	defffe04 	addi	sp,sp,-8
   10440:	df000115 	stw	fp,4(sp)
   10444:	df000104 	addi	fp,sp,4
   10448:	e13fff15 	stw	r4,-4(fp)
  IOWR_ALTERA_AVALON_PIO_DATA(MIN1_BASE, minute);
   1044c:	008000b4 	movhi	r2,2
   10450:	10842804 	addi	r2,r2,4256
   10454:	e0ffff17 	ldw	r3,-4(fp)
   10458:	10c00035 	stwio	r3,0(r2)
  IOWR_ALTERA_AVALON_PIO_DATA(MIN0_BASE, minute);
   1045c:	008000b4 	movhi	r2,2
   10460:	10842c04 	addi	r2,r2,4272
   10464:	e0ffff17 	ldw	r3,-4(fp)
   10468:	10c00035 	stwio	r3,0(r2)
}
   1046c:	0001883a 	nop
   10470:	e037883a 	mov	sp,fp
   10474:	df000017 	ldw	fp,0(sp)
   10478:	dec00104 	addi	sp,sp,4
   1047c:	f800283a 	ret

00010480 <updateSecondsTime>:

void updateSecondsTime(int second) {
   10480:	defffe04 	addi	sp,sp,-8
   10484:	df000115 	stw	fp,4(sp)
   10488:	df000104 	addi	fp,sp,4
   1048c:	e13fff15 	stw	r4,-4(fp)
  IOWR_ALTERA_AVALON_PIO_DATA(SEC1_BASE, second);
   10490:	008000b4 	movhi	r2,2
   10494:	10842004 	addi	r2,r2,4224
   10498:	e0ffff17 	ldw	r3,-4(fp)
   1049c:	10c00035 	stwio	r3,0(r2)
  IOWR_ALTERA_AVALON_PIO_DATA(SEC0_BASE, second);
   104a0:	008000b4 	movhi	r2,2
   104a4:	10842404 	addi	r2,r2,4240
   104a8:	e0ffff17 	ldw	r3,-4(fp)
   104ac:	10c00035 	stwio	r3,0(r2)
   104b0:	0001883a 	nop
   104b4:	e037883a 	mov	sp,fp
   104b8:	df000017 	ldw	fp,0(sp)
   104bc:	dec00104 	addi	sp,sp,4
   104c0:	f800283a 	ret

000104c4 <registerISR>:
#include "interrupt.h"

// -------------- API -----------------------
// these are the functions that main.c calls
int registerISR(void) {
   104c4:	defffe04 	addi	sp,sp,-8
   104c8:	dfc00115 	stw	ra,4(sp)
   104cc:	df000015 	stw	fp,0(sp)
   104d0:	d839883a 	mov	fp,sp
  if (registerTimerSecondISR() != ISR_REGISTRATION_SUCCESS) {
   104d4:	00105700 	call	10570 <registerTimerSecondISR>
   104d8:	10803fcc 	andi	r2,r2,255
   104dc:	10000226 	beq	r2,zero,104e8 <registerISR+0x24>
    return ISR_REGISTRATION_FAILURE;
   104e0:	00800044 	movi	r2,1
   104e4:	00000106 	br	104ec <registerISR+0x28>
  }
  else {
    return ISR_REGISTRATION_SUCCESS;
   104e8:	0005883a 	mov	r2,zero
  }
}
   104ec:	e037883a 	mov	sp,fp
   104f0:	dfc00117 	ldw	ra,4(sp)
   104f4:	df000017 	ldw	fp,0(sp)
   104f8:	dec00204 	addi	sp,sp,8
   104fc:	f800283a 	ret

00010500 <enableTimerSecondISR>:

void enableTimerSecondISR(void) {
   10500:	deffff04 	addi	sp,sp,-4
   10504:	df000015 	stw	fp,0(sp)
   10508:	d839883a 	mov	fp,sp
 IOWR_ALTERA_AVALON_TIMER_CONTROL(TIMER_SECOND_BASE,
   1050c:	00c001c4 	movi	r3,7
   10510:	008000b4 	movhi	r2,2
   10514:	10840104 	addi	r2,r2,4100
   10518:	10c00035 	stwio	r3,0(r2)
                 ALTERA_AVALON_TIMER_CONTROL_CONT_MSK  
               | ALTERA_AVALON_TIMER_CONTROL_START_MSK
               | ALTERA_AVALON_TIMER_CONTROL_ITO_MSK);
}
   1051c:	0001883a 	nop
   10520:	e037883a 	mov	sp,fp
   10524:	df000017 	ldw	fp,0(sp)
   10528:	dec00104 	addi	sp,sp,4
   1052c:	f800283a 	ret

00010530 <timerSecondISR>:


// -------------- ISRs -----------------------
// these are the callback functions that are called once the associated interrupt has fired

void timerSecondISR(void* isr_context) {
   10530:	defffd04 	addi	sp,sp,-12
   10534:	dfc00215 	stw	ra,8(sp)
   10538:	df000115 	stw	fp,4(sp)
   1053c:	df000104 	addi	fp,sp,4
   10540:	e13fff15 	stw	r4,-4(fp)
  /* The TO (timeout) bit is set to 1 when the internal counter reaches zero. Once set by a
  timeout event, the TO bit stays set until explicitly cleared by a master peripheral. 
  The TO bit is cleared by writing 0 to the status register. */
  IOWR_ALTERA_AVALON_TIMER_STATUS(TIMER_SECOND_BASE, 0);
   10544:	0007883a 	mov	r3,zero
   10548:	008000b4 	movhi	r2,2
   1054c:	10840004 	addi	r2,r2,4096
   10550:	10c00035 	stwio	r3,0(r2)

  timerSecondCallback();
   10554:	00106bc0 	call	106bc <timerSecondCallback>
}
   10558:	0001883a 	nop
   1055c:	e037883a 	mov	sp,fp
   10560:	dfc00117 	ldw	ra,4(sp)
   10564:	df000017 	ldw	fp,0(sp)
   10568:	dec00204 	addi	sp,sp,8
   1056c:	f800283a 	ret

00010570 <registerTimerSecondISR>:


// -------------- ISR registration functions ---------------- 
uint8_t registerTimerSecondISR(void) {
   10570:	defffc04 	addi	sp,sp,-16
   10574:	dfc00315 	stw	ra,12(sp)
   10578:	df000215 	stw	fp,8(sp)
   1057c:	df000204 	addi	fp,sp,8
  uint8_t isr_register_status;

  isr_register_status = alt_ic_isr_register(TIMER_SECOND_IRQ_INTERRUPT_CONTROLLER_ID,
   10580:	d8000015 	stw	zero,0(sp)
   10584:	000f883a 	mov	r7,zero
   10588:	01800074 	movhi	r6,1
   1058c:	31814c04 	addi	r6,r6,1328
   10590:	01400044 	movi	r5,1
   10594:	0009883a 	mov	r4,zero
   10598:	001396c0 	call	1396c <alt_ic_isr_register>
   1059c:	e0bfff05 	stb	r2,-4(fp)
                                            TIMER_SECOND_IRQ,
                                            timerSecondISR,
                                            NULL,
                                            0x0);
  return isr_register_status;
   105a0:	e0bfff03 	ldbu	r2,-4(fp)
   105a4:	e037883a 	mov	sp,fp
   105a8:	dfc00117 	ldw	ra,4(sp)
   105ac:	df000017 	ldw	fp,0(sp)
   105b0:	dec00204 	addi	sp,sp,8
   105b4:	f800283a 	ret

000105b8 <alarmLEDoff>:
#include "led.h"

void alarmLEDoff(void) {
   105b8:	deffff04 	addi	sp,sp,-4
   105bc:	df000015 	stw	fp,0(sp)
   105c0:	d839883a 	mov	fp,sp
  IOWR_ALTERA_AVALON_PIO_DATA(LED_ALARM_BASE, LED_OFF);
   105c4:	0007883a 	mov	r3,zero
   105c8:	008000b4 	movhi	r2,2
   105cc:	10841804 	addi	r2,r2,4192
   105d0:	10c00035 	stwio	r3,0(r2)
}
   105d4:	0001883a 	nop
   105d8:	e037883a 	mov	sp,fp
   105dc:	df000017 	ldw	fp,0(sp)
   105e0:	dec00104 	addi	sp,sp,4
   105e4:	f800283a 	ret

000105e8 <alarmLEDon>:

void alarmLEDon(void) {
   105e8:	deffff04 	addi	sp,sp,-4
   105ec:	df000015 	stw	fp,0(sp)
   105f0:	d839883a 	mov	fp,sp
  IOWR_ALTERA_AVALON_PIO_DATA(LED_ALARM_BASE, LED_ON);
   105f4:	00c00044 	movi	r3,1
   105f8:	008000b4 	movhi	r2,2
   105fc:	10841804 	addi	r2,r2,4192
   10600:	10c00035 	stwio	r3,0(r2)
}
   10604:	0001883a 	nop
   10608:	e037883a 	mov	sp,fp
   1060c:	df000017 	ldw	fp,0(sp)
   10610:	dec00104 	addi	sp,sp,4
   10614:	f800283a 	ret

00010618 <alarmLEDtoggle>:

void alarmLEDtoggle(void) {
   10618:	defffe04 	addi	sp,sp,-8
   1061c:	df000115 	stw	fp,4(sp)
   10620:	df000104 	addi	fp,sp,4
  uint8_t led_state;
  led_state = IORD_ALTERA_AVALON_PIO_DATA(LED_ALARM_BASE);
   10624:	008000b4 	movhi	r2,2
   10628:	10841804 	addi	r2,r2,4192
   1062c:	10800037 	ldwio	r2,0(r2)
   10630:	e0bfff05 	stb	r2,-4(fp)
  IOWR_ALTERA_AVALON_PIO_DATA(LED_ALARM_BASE, !led_state);
   10634:	e0bfff03 	ldbu	r2,-4(fp)
   10638:	1005003a 	cmpeq	r2,r2,zero
   1063c:	10c03fcc 	andi	r3,r2,255
   10640:	008000b4 	movhi	r2,2
   10644:	10841804 	addi	r2,r2,4192
   10648:	10c00035 	stwio	r3,0(r2)
   1064c:	0001883a 	nop
   10650:	e037883a 	mov	sp,fp
   10654:	df000017 	ldw	fp,0(sp)
   10658:	dec00104 	addi	sp,sp,4
   1065c:	f800283a 	ret

00010660 <main>:
#include "main.h"

int main(void) {
   10660:	defffc04 	addi	sp,sp,-16
   10664:	dfc00315 	stw	ra,12(sp)
   10668:	df000215 	stw	fp,8(sp)
   1066c:	df000204 	addi	fp,sp,8
    uint8_t alarm;
    config_struct config;
  } mode_struct;

  mode_struct mode;
  mode.display = TIME_DISPLAY;
   10670:	e03ffe05 	stb	zero,-8(fp)
  mode.alarm = NOT_ARMED;
   10674:	e03ffe45 	stb	zero,-7(fp)
  mode.config.on = FALSE;
   10678:	e03ffe85 	stb	zero,-6(fp)
  mode.config.hour = FALSE;
   1067c:	e03ffec5 	stb	zero,-5(fp)
  mode.config.minute = FALSE;
   10680:	e03fff05 	stb	zero,-4(fp)

  alarmLEDoff();
   10684:	00105b80 	call	105b8 <alarmLEDoff>

  if (registerISR() == ISR_REGISTRATION_FAILURE) {
   10688:	00104c40 	call	104c4 <registerISR>
   1068c:	10803fcc 	andi	r2,r2,255
   10690:	10800058 	cmpnei	r2,r2,1
   10694:	1000041e 	bne	r2,zero,106a8 <main+0x48>
    printf("ERROR: Interrupts unsuccessfully initialized!\n");
   10698:	01000074 	movhi	r4,1
   1069c:	2117b404 	addi	r4,r4,24272
   106a0:	0010bf40 	call	10bf4 <puts>
   106a4:	00000406 	br	106b8 <main+0x58>
  }
  else {
    printf("Interrupts successively initialized!\n");
   106a8:	01000074 	movhi	r4,1
   106ac:	2117c004 	addi	r4,r4,24320
   106b0:	0010bf40 	call	10bf4 <puts>
    enableTimerSecondISR();
   106b4:	00105000 	call	10500 <enableTimerSecondISR>
  }

  while(1) {}  
   106b8:	003fff06 	br	106b8 <_gp+0xffff0ccc>

000106bc <timerSecondCallback>:


// -------------- ISR callbacks -------------------
// these are the main.c callback functions that the ISRs call from interrupt.c

void timerSecondCallback(void) {
   106bc:	defffe04 	addi	sp,sp,-8
   106c0:	dfc00115 	stw	ra,4(sp)
   106c4:	df000015 	stw	fp,0(sp)
   106c8:	d839883a 	mov	fp,sp
  printf("timerSecond interrupt has fired!\n");
   106cc:	01000074 	movhi	r4,1
   106d0:	2117ca04 	addi	r4,r4,24360
   106d4:	0010bf40 	call	10bf4 <puts>
  alarmLEDtoggle();
   106d8:	00106180 	call	10618 <alarmLEDtoggle>
}
   106dc:	0001883a 	nop
   106e0:	e037883a 	mov	sp,fp
   106e4:	dfc00117 	ldw	ra,4(sp)
   106e8:	df000017 	ldw	fp,0(sp)
   106ec:	dec00204 	addi	sp,sp,8
   106f0:	f800283a 	ret

000106f4 <initializeTime>:

// 24 hour or 12 hour format (24 by default)
int time_format = 24;

// initialize time to 00:00:00
void initializeTime(void) {
   106f4:	deffff04 	addi	sp,sp,-4
   106f8:	df000015 	stw	fp,0(sp)
   106fc:	d839883a 	mov	fp,sp

  // method #2
  // memset(&m, 0, sizeof(myStruct));

  // method #3
  current_time.hour = 0x0;
   10700:	008000b4 	movhi	r2,2
   10704:	10a54704 	addi	r2,r2,-27364
   10708:	10000015 	stw	zero,0(r2)
  current_time.minute = 0x0;
   1070c:	008000b4 	movhi	r2,2
   10710:	10a54704 	addi	r2,r2,-27364
   10714:	10000115 	stw	zero,4(r2)
  current_time.second = 0x0;
   10718:	008000b4 	movhi	r2,2
   1071c:	10a54704 	addi	r2,r2,-27364
   10720:	10000215 	stw	zero,8(r2)
}
   10724:	0001883a 	nop
   10728:	e037883a 	mov	sp,fp
   1072c:	df000017 	ldw	fp,0(sp)
   10730:	dec00104 	addi	sp,sp,4
   10734:	f800283a 	ret

00010738 <initializeAlarm>:

// initialize alarm_time to 00:00:00
void initializeAlarm(void) {
   10738:	deffff04 	addi	sp,sp,-4
   1073c:	df000015 	stw	fp,0(sp)
   10740:	d839883a 	mov	fp,sp
  alarm_time.hour = 0x0;
   10744:	008000b4 	movhi	r2,2
   10748:	10a54a04 	addi	r2,r2,-27352
   1074c:	10000015 	stw	zero,0(r2)
  alarm_time.minute = 0x0;
   10750:	008000b4 	movhi	r2,2
   10754:	10a54a04 	addi	r2,r2,-27352
   10758:	10000115 	stw	zero,4(r2)
  alarm_time.second = 0x0;
   1075c:	008000b4 	movhi	r2,2
   10760:	10a54a04 	addi	r2,r2,-27352
   10764:	10000215 	stw	zero,8(r2)
}
   10768:	0001883a 	nop
   1076c:	e037883a 	mov	sp,fp
   10770:	df000017 	ldw	fp,0(sp)
   10774:	dec00104 	addi	sp,sp,4
   10778:	f800283a 	ret

0001077c <incrementAlarmHour>:

void incrementAlarmHour(void) {
   1077c:	deffff04 	addi	sp,sp,-4
   10780:	df000015 	stw	fp,0(sp)
   10784:	d839883a 	mov	fp,sp
  // case where time is at 12:XX:XX or 24:XX:XX
  if(alarm_time.hour == time_format) {
   10788:	008000b4 	movhi	r2,2
   1078c:	10a54a04 	addi	r2,r2,-27352
   10790:	10c00017 	ldw	r3,0(r2)
   10794:	d0a00017 	ldw	r2,-32768(gp)
   10798:	1880041e 	bne	r3,r2,107ac <incrementAlarmHour+0x30>
    // wrap to 00:XX:XX
    alarm_time.hour = 0;
   1079c:	008000b4 	movhi	r2,2
   107a0:	10a54a04 	addi	r2,r2,-27352
   107a4:	10000015 	stw	zero,0(r2)
  }
  else {
    alarm_time.hour++;
  }
}
   107a8:	00000706 	br	107c8 <incrementAlarmHour+0x4c>
  if(alarm_time.hour == time_format) {
    // wrap to 00:XX:XX
    alarm_time.hour = 0;
  }
  else {
    alarm_time.hour++;
   107ac:	008000b4 	movhi	r2,2
   107b0:	10a54a04 	addi	r2,r2,-27352
   107b4:	10800017 	ldw	r2,0(r2)
   107b8:	10c00044 	addi	r3,r2,1
   107bc:	008000b4 	movhi	r2,2
   107c0:	10a54a04 	addi	r2,r2,-27352
   107c4:	10c00015 	stw	r3,0(r2)
  }
}
   107c8:	0001883a 	nop
   107cc:	e037883a 	mov	sp,fp
   107d0:	df000017 	ldw	fp,0(sp)
   107d4:	dec00104 	addi	sp,sp,4
   107d8:	f800283a 	ret

000107dc <incrementAlarmMinute>:

void incrementAlarmMinute(void) {
   107dc:	defffe04 	addi	sp,sp,-8
   107e0:	dfc00115 	stw	ra,4(sp)
   107e4:	df000015 	stw	fp,0(sp)
   107e8:	d839883a 	mov	fp,sp
  // case where time is at XX:60:XX
  if(alarm_time.minute == ONE_HOUR) {
   107ec:	008000b4 	movhi	r2,2
   107f0:	10a54a04 	addi	r2,r2,-27352
   107f4:	10800117 	ldw	r2,4(r2)
   107f8:	10800f18 	cmpnei	r2,r2,60
   107fc:	1000051e 	bne	r2,zero,10814 <incrementAlarmMinute+0x38>
    incrementAlarmHour();
   10800:	001077c0 	call	1077c <incrementAlarmHour>
    alarm_time.minute = 0;
   10804:	008000b4 	movhi	r2,2
   10808:	10a54a04 	addi	r2,r2,-27352
   1080c:	10000115 	stw	zero,4(r2)
  }
  else {
    alarm_time.minute++;
  }
}
   10810:	00000706 	br	10830 <incrementAlarmMinute+0x54>
  if(alarm_time.minute == ONE_HOUR) {
    incrementAlarmHour();
    alarm_time.minute = 0;
  }
  else {
    alarm_time.minute++;
   10814:	008000b4 	movhi	r2,2
   10818:	10a54a04 	addi	r2,r2,-27352
   1081c:	10800117 	ldw	r2,4(r2)
   10820:	10c00044 	addi	r3,r2,1
   10824:	008000b4 	movhi	r2,2
   10828:	10a54a04 	addi	r2,r2,-27352
   1082c:	10c00115 	stw	r3,4(r2)
  }
}
   10830:	0001883a 	nop
   10834:	e037883a 	mov	sp,fp
   10838:	dfc00117 	ldw	ra,4(sp)
   1083c:	df000017 	ldw	fp,0(sp)
   10840:	dec00204 	addi	sp,sp,8
   10844:	f800283a 	ret

00010848 <incrementTimeHour>:

void incrementTimeHour(void) {
   10848:	deffff04 	addi	sp,sp,-4
   1084c:	df000015 	stw	fp,0(sp)
   10850:	d839883a 	mov	fp,sp
  // case where time is at 12:XX:XX or 24:XX:XX
  if(current_time.hour == time_format) {
   10854:	008000b4 	movhi	r2,2
   10858:	10a54704 	addi	r2,r2,-27364
   1085c:	10c00017 	ldw	r3,0(r2)
   10860:	d0a00017 	ldw	r2,-32768(gp)
   10864:	1880041e 	bne	r3,r2,10878 <incrementTimeHour+0x30>
    // wrap to 00:XX:XX
    current_time.hour = 0;
   10868:	008000b4 	movhi	r2,2
   1086c:	10a54704 	addi	r2,r2,-27364
   10870:	10000015 	stw	zero,0(r2)
  }
  else {
    current_time.hour++;
  }
}
   10874:	00000706 	br	10894 <incrementTimeHour+0x4c>
  if(current_time.hour == time_format) {
    // wrap to 00:XX:XX
    current_time.hour = 0;
  }
  else {
    current_time.hour++;
   10878:	008000b4 	movhi	r2,2
   1087c:	10a54704 	addi	r2,r2,-27364
   10880:	10800017 	ldw	r2,0(r2)
   10884:	10c00044 	addi	r3,r2,1
   10888:	008000b4 	movhi	r2,2
   1088c:	10a54704 	addi	r2,r2,-27364
   10890:	10c00015 	stw	r3,0(r2)
  }
}
   10894:	0001883a 	nop
   10898:	e037883a 	mov	sp,fp
   1089c:	df000017 	ldw	fp,0(sp)
   108a0:	dec00104 	addi	sp,sp,4
   108a4:	f800283a 	ret

000108a8 <incrementTimeMinute>:

void incrementTimeMinute(void) {
   108a8:	defffe04 	addi	sp,sp,-8
   108ac:	dfc00115 	stw	ra,4(sp)
   108b0:	df000015 	stw	fp,0(sp)
   108b4:	d839883a 	mov	fp,sp
  // case where time is at XX:60:XX
  if(current_time.minute == ONE_HOUR) {
   108b8:	008000b4 	movhi	r2,2
   108bc:	10a54704 	addi	r2,r2,-27364
   108c0:	10800117 	ldw	r2,4(r2)
   108c4:	10800f18 	cmpnei	r2,r2,60
   108c8:	1000051e 	bne	r2,zero,108e0 <incrementTimeMinute+0x38>
    incrementTimeHour();
   108cc:	00108480 	call	10848 <incrementTimeHour>
    current_time.minute = 0;
   108d0:	008000b4 	movhi	r2,2
   108d4:	10a54704 	addi	r2,r2,-27364
   108d8:	10000115 	stw	zero,4(r2)
  }
  else {
    current_time.minute++;
  }
}
   108dc:	00000706 	br	108fc <incrementTimeMinute+0x54>
  if(current_time.minute == ONE_HOUR) {
    incrementTimeHour();
    current_time.minute = 0;
  }
  else {
    current_time.minute++;
   108e0:	008000b4 	movhi	r2,2
   108e4:	10a54704 	addi	r2,r2,-27364
   108e8:	10800117 	ldw	r2,4(r2)
   108ec:	10c00044 	addi	r3,r2,1
   108f0:	008000b4 	movhi	r2,2
   108f4:	10a54704 	addi	r2,r2,-27364
   108f8:	10c00115 	stw	r3,4(r2)
  }
}
   108fc:	0001883a 	nop
   10900:	e037883a 	mov	sp,fp
   10904:	dfc00117 	ldw	ra,4(sp)
   10908:	df000017 	ldw	fp,0(sp)
   1090c:	dec00204 	addi	sp,sp,8
   10910:	f800283a 	ret

00010914 <incrementTimeSecond>:

void incrementTimeSecond(void) {
   10914:	defffe04 	addi	sp,sp,-8
   10918:	dfc00115 	stw	ra,4(sp)
   1091c:	df000015 	stw	fp,0(sp)
   10920:	d839883a 	mov	fp,sp
  // case where time is at XX:XX:60
  if(current_time.second == ONE_MINUTE) {
   10924:	008000b4 	movhi	r2,2
   10928:	10a54704 	addi	r2,r2,-27364
   1092c:	10800217 	ldw	r2,8(r2)
   10930:	10800f18 	cmpnei	r2,r2,60
   10934:	1000051e 	bne	r2,zero,1094c <incrementTimeSecond+0x38>
    incrementTimeMinute();
   10938:	00108a80 	call	108a8 <incrementTimeMinute>
    current_time.second = 0;
   1093c:	008000b4 	movhi	r2,2
   10940:	10a54704 	addi	r2,r2,-27364
   10944:	10000215 	stw	zero,8(r2)
  }
  else {
    current_time.second++;
  }
}
   10948:	00000706 	br	10968 <incrementTimeSecond+0x54>
  if(current_time.second == ONE_MINUTE) {
    incrementTimeMinute();
    current_time.second = 0;
  }
  else {
    current_time.second++;
   1094c:	008000b4 	movhi	r2,2
   10950:	10a54704 	addi	r2,r2,-27364
   10954:	10800217 	ldw	r2,8(r2)
   10958:	10c00044 	addi	r3,r2,1
   1095c:	008000b4 	movhi	r2,2
   10960:	10a54704 	addi	r2,r2,-27364
   10964:	10c00215 	stw	r3,8(r2)
  }
}
   10968:	0001883a 	nop
   1096c:	e037883a 	mov	sp,fp
   10970:	dfc00117 	ldw	ra,4(sp)
   10974:	df000017 	ldw	fp,0(sp)
   10978:	dec00204 	addi	sp,sp,8
   1097c:	f800283a 	ret

00010980 <__divsi3>:
   10980:	20001b16 	blt	r4,zero,109f0 <__divsi3+0x70>
   10984:	000f883a 	mov	r7,zero
   10988:	28001616 	blt	r5,zero,109e4 <__divsi3+0x64>
   1098c:	200d883a 	mov	r6,r4
   10990:	29001a2e 	bgeu	r5,r4,109fc <__divsi3+0x7c>
   10994:	00800804 	movi	r2,32
   10998:	00c00044 	movi	r3,1
   1099c:	00000106 	br	109a4 <__divsi3+0x24>
   109a0:	10000d26 	beq	r2,zero,109d8 <__divsi3+0x58>
   109a4:	294b883a 	add	r5,r5,r5
   109a8:	10bfffc4 	addi	r2,r2,-1
   109ac:	18c7883a 	add	r3,r3,r3
   109b0:	293ffb36 	bltu	r5,r4,109a0 <_gp+0xffff0fb4>
   109b4:	0005883a 	mov	r2,zero
   109b8:	18000726 	beq	r3,zero,109d8 <__divsi3+0x58>
   109bc:	0005883a 	mov	r2,zero
   109c0:	31400236 	bltu	r6,r5,109cc <__divsi3+0x4c>
   109c4:	314dc83a 	sub	r6,r6,r5
   109c8:	10c4b03a 	or	r2,r2,r3
   109cc:	1806d07a 	srli	r3,r3,1
   109d0:	280ad07a 	srli	r5,r5,1
   109d4:	183ffa1e 	bne	r3,zero,109c0 <_gp+0xffff0fd4>
   109d8:	38000126 	beq	r7,zero,109e0 <__divsi3+0x60>
   109dc:	0085c83a 	sub	r2,zero,r2
   109e0:	f800283a 	ret
   109e4:	014bc83a 	sub	r5,zero,r5
   109e8:	39c0005c 	xori	r7,r7,1
   109ec:	003fe706 	br	1098c <_gp+0xffff0fa0>
   109f0:	0109c83a 	sub	r4,zero,r4
   109f4:	01c00044 	movi	r7,1
   109f8:	003fe306 	br	10988 <_gp+0xffff0f9c>
   109fc:	00c00044 	movi	r3,1
   10a00:	003fee06 	br	109bc <_gp+0xffff0fd0>

00010a04 <__modsi3>:
   10a04:	20001716 	blt	r4,zero,10a64 <__modsi3+0x60>
   10a08:	000f883a 	mov	r7,zero
   10a0c:	2005883a 	mov	r2,r4
   10a10:	28001216 	blt	r5,zero,10a5c <__modsi3+0x58>
   10a14:	2900162e 	bgeu	r5,r4,10a70 <__modsi3+0x6c>
   10a18:	01800804 	movi	r6,32
   10a1c:	00c00044 	movi	r3,1
   10a20:	00000106 	br	10a28 <__modsi3+0x24>
   10a24:	30000a26 	beq	r6,zero,10a50 <__modsi3+0x4c>
   10a28:	294b883a 	add	r5,r5,r5
   10a2c:	31bfffc4 	addi	r6,r6,-1
   10a30:	18c7883a 	add	r3,r3,r3
   10a34:	293ffb36 	bltu	r5,r4,10a24 <_gp+0xffff1038>
   10a38:	18000526 	beq	r3,zero,10a50 <__modsi3+0x4c>
   10a3c:	1806d07a 	srli	r3,r3,1
   10a40:	11400136 	bltu	r2,r5,10a48 <__modsi3+0x44>
   10a44:	1145c83a 	sub	r2,r2,r5
   10a48:	280ad07a 	srli	r5,r5,1
   10a4c:	183ffb1e 	bne	r3,zero,10a3c <_gp+0xffff1050>
   10a50:	38000126 	beq	r7,zero,10a58 <__modsi3+0x54>
   10a54:	0085c83a 	sub	r2,zero,r2
   10a58:	f800283a 	ret
   10a5c:	014bc83a 	sub	r5,zero,r5
   10a60:	003fec06 	br	10a14 <_gp+0xffff1028>
   10a64:	0109c83a 	sub	r4,zero,r4
   10a68:	01c00044 	movi	r7,1
   10a6c:	003fe706 	br	10a0c <_gp+0xffff1020>
   10a70:	00c00044 	movi	r3,1
   10a74:	003ff106 	br	10a3c <_gp+0xffff1050>

00010a78 <__udivsi3>:
   10a78:	200d883a 	mov	r6,r4
   10a7c:	2900152e 	bgeu	r5,r4,10ad4 <__udivsi3+0x5c>
   10a80:	28001416 	blt	r5,zero,10ad4 <__udivsi3+0x5c>
   10a84:	00800804 	movi	r2,32
   10a88:	00c00044 	movi	r3,1
   10a8c:	00000206 	br	10a98 <__udivsi3+0x20>
   10a90:	10000e26 	beq	r2,zero,10acc <__udivsi3+0x54>
   10a94:	28000516 	blt	r5,zero,10aac <__udivsi3+0x34>
   10a98:	294b883a 	add	r5,r5,r5
   10a9c:	10bfffc4 	addi	r2,r2,-1
   10aa0:	18c7883a 	add	r3,r3,r3
   10aa4:	293ffa36 	bltu	r5,r4,10a90 <_gp+0xffff10a4>
   10aa8:	18000826 	beq	r3,zero,10acc <__udivsi3+0x54>
   10aac:	0005883a 	mov	r2,zero
   10ab0:	31400236 	bltu	r6,r5,10abc <__udivsi3+0x44>
   10ab4:	314dc83a 	sub	r6,r6,r5
   10ab8:	10c4b03a 	or	r2,r2,r3
   10abc:	1806d07a 	srli	r3,r3,1
   10ac0:	280ad07a 	srli	r5,r5,1
   10ac4:	183ffa1e 	bne	r3,zero,10ab0 <_gp+0xffff10c4>
   10ac8:	f800283a 	ret
   10acc:	0005883a 	mov	r2,zero
   10ad0:	f800283a 	ret
   10ad4:	00c00044 	movi	r3,1
   10ad8:	003ff406 	br	10aac <_gp+0xffff10c0>

00010adc <__umodsi3>:
   10adc:	2005883a 	mov	r2,r4
   10ae0:	2900122e 	bgeu	r5,r4,10b2c <__umodsi3+0x50>
   10ae4:	28001116 	blt	r5,zero,10b2c <__umodsi3+0x50>
   10ae8:	01800804 	movi	r6,32
   10aec:	00c00044 	movi	r3,1
   10af0:	00000206 	br	10afc <__umodsi3+0x20>
   10af4:	30000c26 	beq	r6,zero,10b28 <__umodsi3+0x4c>
   10af8:	28000516 	blt	r5,zero,10b10 <__umodsi3+0x34>
   10afc:	294b883a 	add	r5,r5,r5
   10b00:	31bfffc4 	addi	r6,r6,-1
   10b04:	18c7883a 	add	r3,r3,r3
   10b08:	293ffa36 	bltu	r5,r4,10af4 <_gp+0xffff1108>
   10b0c:	18000626 	beq	r3,zero,10b28 <__umodsi3+0x4c>
   10b10:	1806d07a 	srli	r3,r3,1
   10b14:	11400136 	bltu	r2,r5,10b1c <__umodsi3+0x40>
   10b18:	1145c83a 	sub	r2,r2,r5
   10b1c:	280ad07a 	srli	r5,r5,1
   10b20:	183ffb1e 	bne	r3,zero,10b10 <_gp+0xffff1124>
   10b24:	f800283a 	ret
   10b28:	f800283a 	ret
   10b2c:	00c00044 	movi	r3,1
   10b30:	003ff706 	br	10b10 <_gp+0xffff1124>

00010b34 <_puts_r>:
   10b34:	defff604 	addi	sp,sp,-40
   10b38:	dc000715 	stw	r16,28(sp)
   10b3c:	2021883a 	mov	r16,r4
   10b40:	2809883a 	mov	r4,r5
   10b44:	dc400815 	stw	r17,32(sp)
   10b48:	dfc00915 	stw	ra,36(sp)
   10b4c:	2823883a 	mov	r17,r5
   10b50:	0010c080 	call	10c08 <strlen>
   10b54:	10c00044 	addi	r3,r2,1
   10b58:	d8800115 	stw	r2,4(sp)
   10b5c:	00800074 	movhi	r2,1
   10b60:	1097d304 	addi	r2,r2,24396
   10b64:	d8800215 	stw	r2,8(sp)
   10b68:	00800044 	movi	r2,1
   10b6c:	d8800315 	stw	r2,12(sp)
   10b70:	00800084 	movi	r2,2
   10b74:	dc400015 	stw	r17,0(sp)
   10b78:	d8c00615 	stw	r3,24(sp)
   10b7c:	dec00415 	stw	sp,16(sp)
   10b80:	d8800515 	stw	r2,20(sp)
   10b84:	80000226 	beq	r16,zero,10b90 <_puts_r+0x5c>
   10b88:	80800e17 	ldw	r2,56(r16)
   10b8c:	10001426 	beq	r2,zero,10be0 <_puts_r+0xac>
   10b90:	81400217 	ldw	r5,8(r16)
   10b94:	2880030b 	ldhu	r2,12(r5)
   10b98:	10c8000c 	andi	r3,r2,8192
   10b9c:	1800061e 	bne	r3,zero,10bb8 <_puts_r+0x84>
   10ba0:	29001917 	ldw	r4,100(r5)
   10ba4:	00f7ffc4 	movi	r3,-8193
   10ba8:	10880014 	ori	r2,r2,8192
   10bac:	20c6703a 	and	r3,r4,r3
   10bb0:	2880030d 	sth	r2,12(r5)
   10bb4:	28c01915 	stw	r3,100(r5)
   10bb8:	d9800404 	addi	r6,sp,16
   10bbc:	8009883a 	mov	r4,r16
   10bc0:	00110400 	call	11040 <__sfvwrite_r>
   10bc4:	1000091e 	bne	r2,zero,10bec <_puts_r+0xb8>
   10bc8:	00800284 	movi	r2,10
   10bcc:	dfc00917 	ldw	ra,36(sp)
   10bd0:	dc400817 	ldw	r17,32(sp)
   10bd4:	dc000717 	ldw	r16,28(sp)
   10bd8:	dec00a04 	addi	sp,sp,40
   10bdc:	f800283a 	ret
   10be0:	8009883a 	mov	r4,r16
   10be4:	0010ff00 	call	10ff0 <__sinit>
   10be8:	003fe906 	br	10b90 <_gp+0xffff11a4>
   10bec:	00bfffc4 	movi	r2,-1
   10bf0:	003ff606 	br	10bcc <_gp+0xffff11e0>

00010bf4 <puts>:
   10bf4:	00800074 	movhi	r2,1
   10bf8:	109e7d04 	addi	r2,r2,31220
   10bfc:	200b883a 	mov	r5,r4
   10c00:	11000017 	ldw	r4,0(r2)
   10c04:	0010b341 	jmpi	10b34 <_puts_r>

00010c08 <strlen>:
   10c08:	208000cc 	andi	r2,r4,3
   10c0c:	10002026 	beq	r2,zero,10c90 <strlen+0x88>
   10c10:	20800007 	ldb	r2,0(r4)
   10c14:	10002026 	beq	r2,zero,10c98 <strlen+0x90>
   10c18:	2005883a 	mov	r2,r4
   10c1c:	00000206 	br	10c28 <strlen+0x20>
   10c20:	10c00007 	ldb	r3,0(r2)
   10c24:	18001826 	beq	r3,zero,10c88 <strlen+0x80>
   10c28:	10800044 	addi	r2,r2,1
   10c2c:	10c000cc 	andi	r3,r2,3
   10c30:	183ffb1e 	bne	r3,zero,10c20 <_gp+0xffff1234>
   10c34:	10c00017 	ldw	r3,0(r2)
   10c38:	01ffbff4 	movhi	r7,65279
   10c3c:	39ffbfc4 	addi	r7,r7,-257
   10c40:	00ca303a 	nor	r5,zero,r3
   10c44:	01a02074 	movhi	r6,32897
   10c48:	19c7883a 	add	r3,r3,r7
   10c4c:	31a02004 	addi	r6,r6,-32640
   10c50:	1946703a 	and	r3,r3,r5
   10c54:	1986703a 	and	r3,r3,r6
   10c58:	1800091e 	bne	r3,zero,10c80 <strlen+0x78>
   10c5c:	10800104 	addi	r2,r2,4
   10c60:	10c00017 	ldw	r3,0(r2)
   10c64:	19cb883a 	add	r5,r3,r7
   10c68:	00c6303a 	nor	r3,zero,r3
   10c6c:	28c6703a 	and	r3,r5,r3
   10c70:	1986703a 	and	r3,r3,r6
   10c74:	183ff926 	beq	r3,zero,10c5c <_gp+0xffff1270>
   10c78:	00000106 	br	10c80 <strlen+0x78>
   10c7c:	10800044 	addi	r2,r2,1
   10c80:	10c00007 	ldb	r3,0(r2)
   10c84:	183ffd1e 	bne	r3,zero,10c7c <_gp+0xffff1290>
   10c88:	1105c83a 	sub	r2,r2,r4
   10c8c:	f800283a 	ret
   10c90:	2005883a 	mov	r2,r4
   10c94:	003fe706 	br	10c34 <_gp+0xffff1248>
   10c98:	0005883a 	mov	r2,zero
   10c9c:	f800283a 	ret

00010ca0 <__fp_unlock>:
   10ca0:	0005883a 	mov	r2,zero
   10ca4:	f800283a 	ret

00010ca8 <_cleanup_r>:
   10ca8:	01400074 	movhi	r5,1
   10cac:	294b0f04 	addi	r5,r5,11324
   10cb0:	00115c01 	jmpi	115c0 <_fwalk_reent>

00010cb4 <__sinit.part.1>:
   10cb4:	defff704 	addi	sp,sp,-36
   10cb8:	00c00074 	movhi	r3,1
   10cbc:	dfc00815 	stw	ra,32(sp)
   10cc0:	ddc00715 	stw	r23,28(sp)
   10cc4:	dd800615 	stw	r22,24(sp)
   10cc8:	dd400515 	stw	r21,20(sp)
   10ccc:	dd000415 	stw	r20,16(sp)
   10cd0:	dcc00315 	stw	r19,12(sp)
   10cd4:	dc800215 	stw	r18,8(sp)
   10cd8:	dc400115 	stw	r17,4(sp)
   10cdc:	dc000015 	stw	r16,0(sp)
   10ce0:	18c32a04 	addi	r3,r3,3240
   10ce4:	24000117 	ldw	r16,4(r4)
   10ce8:	20c00f15 	stw	r3,60(r4)
   10cec:	2080bb04 	addi	r2,r4,748
   10cf0:	00c000c4 	movi	r3,3
   10cf4:	20c0b915 	stw	r3,740(r4)
   10cf8:	2080ba15 	stw	r2,744(r4)
   10cfc:	2000b815 	stw	zero,736(r4)
   10d00:	05c00204 	movi	r23,8
   10d04:	00800104 	movi	r2,4
   10d08:	2025883a 	mov	r18,r4
   10d0c:	b80d883a 	mov	r6,r23
   10d10:	81001704 	addi	r4,r16,92
   10d14:	000b883a 	mov	r5,zero
   10d18:	80000015 	stw	zero,0(r16)
   10d1c:	80000115 	stw	zero,4(r16)
   10d20:	80000215 	stw	zero,8(r16)
   10d24:	8080030d 	sth	r2,12(r16)
   10d28:	80001915 	stw	zero,100(r16)
   10d2c:	8000038d 	sth	zero,14(r16)
   10d30:	80000415 	stw	zero,16(r16)
   10d34:	80000515 	stw	zero,20(r16)
   10d38:	80000615 	stw	zero,24(r16)
   10d3c:	00122180 	call	12218 <memset>
   10d40:	05800074 	movhi	r22,1
   10d44:	94400217 	ldw	r17,8(r18)
   10d48:	05400074 	movhi	r21,1
   10d4c:	05000074 	movhi	r20,1
   10d50:	04c00074 	movhi	r19,1
   10d54:	b58a3e04 	addi	r22,r22,10488
   10d58:	ad4a5504 	addi	r21,r21,10580
   10d5c:	a50a7404 	addi	r20,r20,10704
   10d60:	9cca8b04 	addi	r19,r19,10796
   10d64:	85800815 	stw	r22,32(r16)
   10d68:	85400915 	stw	r21,36(r16)
   10d6c:	85000a15 	stw	r20,40(r16)
   10d70:	84c00b15 	stw	r19,44(r16)
   10d74:	84000715 	stw	r16,28(r16)
   10d78:	00800284 	movi	r2,10
   10d7c:	8880030d 	sth	r2,12(r17)
   10d80:	00800044 	movi	r2,1
   10d84:	b80d883a 	mov	r6,r23
   10d88:	89001704 	addi	r4,r17,92
   10d8c:	000b883a 	mov	r5,zero
   10d90:	88000015 	stw	zero,0(r17)
   10d94:	88000115 	stw	zero,4(r17)
   10d98:	88000215 	stw	zero,8(r17)
   10d9c:	88001915 	stw	zero,100(r17)
   10da0:	8880038d 	sth	r2,14(r17)
   10da4:	88000415 	stw	zero,16(r17)
   10da8:	88000515 	stw	zero,20(r17)
   10dac:	88000615 	stw	zero,24(r17)
   10db0:	00122180 	call	12218 <memset>
   10db4:	94000317 	ldw	r16,12(r18)
   10db8:	00800484 	movi	r2,18
   10dbc:	8c400715 	stw	r17,28(r17)
   10dc0:	8d800815 	stw	r22,32(r17)
   10dc4:	8d400915 	stw	r21,36(r17)
   10dc8:	8d000a15 	stw	r20,40(r17)
   10dcc:	8cc00b15 	stw	r19,44(r17)
   10dd0:	8080030d 	sth	r2,12(r16)
   10dd4:	00800084 	movi	r2,2
   10dd8:	80000015 	stw	zero,0(r16)
   10ddc:	80000115 	stw	zero,4(r16)
   10de0:	80000215 	stw	zero,8(r16)
   10de4:	80001915 	stw	zero,100(r16)
   10de8:	8080038d 	sth	r2,14(r16)
   10dec:	80000415 	stw	zero,16(r16)
   10df0:	80000515 	stw	zero,20(r16)
   10df4:	80000615 	stw	zero,24(r16)
   10df8:	b80d883a 	mov	r6,r23
   10dfc:	000b883a 	mov	r5,zero
   10e00:	81001704 	addi	r4,r16,92
   10e04:	00122180 	call	12218 <memset>
   10e08:	00800044 	movi	r2,1
   10e0c:	84000715 	stw	r16,28(r16)
   10e10:	85800815 	stw	r22,32(r16)
   10e14:	85400915 	stw	r21,36(r16)
   10e18:	85000a15 	stw	r20,40(r16)
   10e1c:	84c00b15 	stw	r19,44(r16)
   10e20:	90800e15 	stw	r2,56(r18)
   10e24:	dfc00817 	ldw	ra,32(sp)
   10e28:	ddc00717 	ldw	r23,28(sp)
   10e2c:	dd800617 	ldw	r22,24(sp)
   10e30:	dd400517 	ldw	r21,20(sp)
   10e34:	dd000417 	ldw	r20,16(sp)
   10e38:	dcc00317 	ldw	r19,12(sp)
   10e3c:	dc800217 	ldw	r18,8(sp)
   10e40:	dc400117 	ldw	r17,4(sp)
   10e44:	dc000017 	ldw	r16,0(sp)
   10e48:	dec00904 	addi	sp,sp,36
   10e4c:	f800283a 	ret

00010e50 <__fp_lock>:
   10e50:	0005883a 	mov	r2,zero
   10e54:	f800283a 	ret

00010e58 <__sfmoreglue>:
   10e58:	defffc04 	addi	sp,sp,-16
   10e5c:	dc400115 	stw	r17,4(sp)
   10e60:	2c7fffc4 	addi	r17,r5,-1
   10e64:	8c401a24 	muli	r17,r17,104
   10e68:	dc800215 	stw	r18,8(sp)
   10e6c:	2825883a 	mov	r18,r5
   10e70:	89401d04 	addi	r5,r17,116
   10e74:	dc000015 	stw	r16,0(sp)
   10e78:	dfc00315 	stw	ra,12(sp)
   10e7c:	00116840 	call	11684 <_malloc_r>
   10e80:	1021883a 	mov	r16,r2
   10e84:	10000726 	beq	r2,zero,10ea4 <__sfmoreglue+0x4c>
   10e88:	11000304 	addi	r4,r2,12
   10e8c:	10000015 	stw	zero,0(r2)
   10e90:	14800115 	stw	r18,4(r2)
   10e94:	11000215 	stw	r4,8(r2)
   10e98:	89801a04 	addi	r6,r17,104
   10e9c:	000b883a 	mov	r5,zero
   10ea0:	00122180 	call	12218 <memset>
   10ea4:	8005883a 	mov	r2,r16
   10ea8:	dfc00317 	ldw	ra,12(sp)
   10eac:	dc800217 	ldw	r18,8(sp)
   10eb0:	dc400117 	ldw	r17,4(sp)
   10eb4:	dc000017 	ldw	r16,0(sp)
   10eb8:	dec00404 	addi	sp,sp,16
   10ebc:	f800283a 	ret

00010ec0 <__sfp>:
   10ec0:	defffb04 	addi	sp,sp,-20
   10ec4:	dc000015 	stw	r16,0(sp)
   10ec8:	04000074 	movhi	r16,1
   10ecc:	841e7c04 	addi	r16,r16,31216
   10ed0:	dcc00315 	stw	r19,12(sp)
   10ed4:	2027883a 	mov	r19,r4
   10ed8:	81000017 	ldw	r4,0(r16)
   10edc:	dfc00415 	stw	ra,16(sp)
   10ee0:	dc800215 	stw	r18,8(sp)
   10ee4:	20800e17 	ldw	r2,56(r4)
   10ee8:	dc400115 	stw	r17,4(sp)
   10eec:	1000021e 	bne	r2,zero,10ef8 <__sfp+0x38>
   10ef0:	0010cb40 	call	10cb4 <__sinit.part.1>
   10ef4:	81000017 	ldw	r4,0(r16)
   10ef8:	2480b804 	addi	r18,r4,736
   10efc:	047fffc4 	movi	r17,-1
   10f00:	91000117 	ldw	r4,4(r18)
   10f04:	94000217 	ldw	r16,8(r18)
   10f08:	213fffc4 	addi	r4,r4,-1
   10f0c:	20000a16 	blt	r4,zero,10f38 <__sfp+0x78>
   10f10:	8080030f 	ldh	r2,12(r16)
   10f14:	10000c26 	beq	r2,zero,10f48 <__sfp+0x88>
   10f18:	80c01d04 	addi	r3,r16,116
   10f1c:	00000206 	br	10f28 <__sfp+0x68>
   10f20:	18bfe60f 	ldh	r2,-104(r3)
   10f24:	10000826 	beq	r2,zero,10f48 <__sfp+0x88>
   10f28:	213fffc4 	addi	r4,r4,-1
   10f2c:	1c3ffd04 	addi	r16,r3,-12
   10f30:	18c01a04 	addi	r3,r3,104
   10f34:	247ffa1e 	bne	r4,r17,10f20 <_gp+0xffff1534>
   10f38:	90800017 	ldw	r2,0(r18)
   10f3c:	10001d26 	beq	r2,zero,10fb4 <__sfp+0xf4>
   10f40:	1025883a 	mov	r18,r2
   10f44:	003fee06 	br	10f00 <_gp+0xffff1514>
   10f48:	00bfffc4 	movi	r2,-1
   10f4c:	8080038d 	sth	r2,14(r16)
   10f50:	00800044 	movi	r2,1
   10f54:	8080030d 	sth	r2,12(r16)
   10f58:	80001915 	stw	zero,100(r16)
   10f5c:	80000015 	stw	zero,0(r16)
   10f60:	80000215 	stw	zero,8(r16)
   10f64:	80000115 	stw	zero,4(r16)
   10f68:	80000415 	stw	zero,16(r16)
   10f6c:	80000515 	stw	zero,20(r16)
   10f70:	80000615 	stw	zero,24(r16)
   10f74:	01800204 	movi	r6,8
   10f78:	000b883a 	mov	r5,zero
   10f7c:	81001704 	addi	r4,r16,92
   10f80:	00122180 	call	12218 <memset>
   10f84:	8005883a 	mov	r2,r16
   10f88:	80000c15 	stw	zero,48(r16)
   10f8c:	80000d15 	stw	zero,52(r16)
   10f90:	80001115 	stw	zero,68(r16)
   10f94:	80001215 	stw	zero,72(r16)
   10f98:	dfc00417 	ldw	ra,16(sp)
   10f9c:	dcc00317 	ldw	r19,12(sp)
   10fa0:	dc800217 	ldw	r18,8(sp)
   10fa4:	dc400117 	ldw	r17,4(sp)
   10fa8:	dc000017 	ldw	r16,0(sp)
   10fac:	dec00504 	addi	sp,sp,20
   10fb0:	f800283a 	ret
   10fb4:	01400104 	movi	r5,4
   10fb8:	9809883a 	mov	r4,r19
   10fbc:	0010e580 	call	10e58 <__sfmoreglue>
   10fc0:	90800015 	stw	r2,0(r18)
   10fc4:	103fde1e 	bne	r2,zero,10f40 <_gp+0xffff1554>
   10fc8:	00800304 	movi	r2,12
   10fcc:	98800015 	stw	r2,0(r19)
   10fd0:	0005883a 	mov	r2,zero
   10fd4:	003ff006 	br	10f98 <_gp+0xffff15ac>

00010fd8 <_cleanup>:
   10fd8:	00800074 	movhi	r2,1
   10fdc:	109e7c04 	addi	r2,r2,31216
   10fe0:	11000017 	ldw	r4,0(r2)
   10fe4:	01400074 	movhi	r5,1
   10fe8:	294b0f04 	addi	r5,r5,11324
   10fec:	00115c01 	jmpi	115c0 <_fwalk_reent>

00010ff0 <__sinit>:
   10ff0:	20800e17 	ldw	r2,56(r4)
   10ff4:	10000126 	beq	r2,zero,10ffc <__sinit+0xc>
   10ff8:	f800283a 	ret
   10ffc:	0010cb41 	jmpi	10cb4 <__sinit.part.1>

00011000 <__sfp_lock_acquire>:
   11000:	f800283a 	ret

00011004 <__sfp_lock_release>:
   11004:	f800283a 	ret

00011008 <__sinit_lock_acquire>:
   11008:	f800283a 	ret

0001100c <__sinit_lock_release>:
   1100c:	f800283a 	ret

00011010 <__fp_lock_all>:
   11010:	00800074 	movhi	r2,1
   11014:	109e7d04 	addi	r2,r2,31220
   11018:	11000017 	ldw	r4,0(r2)
   1101c:	01400074 	movhi	r5,1
   11020:	29439404 	addi	r5,r5,3664
   11024:	00114fc1 	jmpi	114fc <_fwalk>

00011028 <__fp_unlock_all>:
   11028:	00800074 	movhi	r2,1
   1102c:	109e7d04 	addi	r2,r2,31220
   11030:	11000017 	ldw	r4,0(r2)
   11034:	01400074 	movhi	r5,1
   11038:	29432804 	addi	r5,r5,3232
   1103c:	00114fc1 	jmpi	114fc <_fwalk>

00011040 <__sfvwrite_r>:
   11040:	30800217 	ldw	r2,8(r6)
   11044:	10006726 	beq	r2,zero,111e4 <__sfvwrite_r+0x1a4>
   11048:	28c0030b 	ldhu	r3,12(r5)
   1104c:	defff404 	addi	sp,sp,-48
   11050:	dd400715 	stw	r21,28(sp)
   11054:	dd000615 	stw	r20,24(sp)
   11058:	dc000215 	stw	r16,8(sp)
   1105c:	dfc00b15 	stw	ra,44(sp)
   11060:	df000a15 	stw	fp,40(sp)
   11064:	ddc00915 	stw	r23,36(sp)
   11068:	dd800815 	stw	r22,32(sp)
   1106c:	dcc00515 	stw	r19,20(sp)
   11070:	dc800415 	stw	r18,16(sp)
   11074:	dc400315 	stw	r17,12(sp)
   11078:	1880020c 	andi	r2,r3,8
   1107c:	2821883a 	mov	r16,r5
   11080:	202b883a 	mov	r21,r4
   11084:	3029883a 	mov	r20,r6
   11088:	10002726 	beq	r2,zero,11128 <__sfvwrite_r+0xe8>
   1108c:	28800417 	ldw	r2,16(r5)
   11090:	10002526 	beq	r2,zero,11128 <__sfvwrite_r+0xe8>
   11094:	1880008c 	andi	r2,r3,2
   11098:	a4400017 	ldw	r17,0(r20)
   1109c:	10002a26 	beq	r2,zero,11148 <__sfvwrite_r+0x108>
   110a0:	05a00034 	movhi	r22,32768
   110a4:	0027883a 	mov	r19,zero
   110a8:	0025883a 	mov	r18,zero
   110ac:	b5bf0004 	addi	r22,r22,-1024
   110b0:	980d883a 	mov	r6,r19
   110b4:	a809883a 	mov	r4,r21
   110b8:	90004626 	beq	r18,zero,111d4 <__sfvwrite_r+0x194>
   110bc:	900f883a 	mov	r7,r18
   110c0:	b480022e 	bgeu	r22,r18,110cc <__sfvwrite_r+0x8c>
   110c4:	01e00034 	movhi	r7,32768
   110c8:	39ff0004 	addi	r7,r7,-1024
   110cc:	80800917 	ldw	r2,36(r16)
   110d0:	81400717 	ldw	r5,28(r16)
   110d4:	103ee83a 	callr	r2
   110d8:	0080570e 	bge	zero,r2,11238 <__sfvwrite_r+0x1f8>
   110dc:	a0c00217 	ldw	r3,8(r20)
   110e0:	98a7883a 	add	r19,r19,r2
   110e4:	90a5c83a 	sub	r18,r18,r2
   110e8:	1885c83a 	sub	r2,r3,r2
   110ec:	a0800215 	stw	r2,8(r20)
   110f0:	103fef1e 	bne	r2,zero,110b0 <_gp+0xffff16c4>
   110f4:	0005883a 	mov	r2,zero
   110f8:	dfc00b17 	ldw	ra,44(sp)
   110fc:	df000a17 	ldw	fp,40(sp)
   11100:	ddc00917 	ldw	r23,36(sp)
   11104:	dd800817 	ldw	r22,32(sp)
   11108:	dd400717 	ldw	r21,28(sp)
   1110c:	dd000617 	ldw	r20,24(sp)
   11110:	dcc00517 	ldw	r19,20(sp)
   11114:	dc800417 	ldw	r18,16(sp)
   11118:	dc400317 	ldw	r17,12(sp)
   1111c:	dc000217 	ldw	r16,8(sp)
   11120:	dec00c04 	addi	sp,sp,48
   11124:	f800283a 	ret
   11128:	800b883a 	mov	r5,r16
   1112c:	a809883a 	mov	r4,r21
   11130:	0012a940 	call	12a94 <__swsetup_r>
   11134:	1000eb1e 	bne	r2,zero,114e4 <__sfvwrite_r+0x4a4>
   11138:	80c0030b 	ldhu	r3,12(r16)
   1113c:	a4400017 	ldw	r17,0(r20)
   11140:	1880008c 	andi	r2,r3,2
   11144:	103fd61e 	bne	r2,zero,110a0 <_gp+0xffff16b4>
   11148:	1880004c 	andi	r2,r3,1
   1114c:	10003f1e 	bne	r2,zero,1124c <__sfvwrite_r+0x20c>
   11150:	0039883a 	mov	fp,zero
   11154:	0025883a 	mov	r18,zero
   11158:	90001a26 	beq	r18,zero,111c4 <__sfvwrite_r+0x184>
   1115c:	1880800c 	andi	r2,r3,512
   11160:	84c00217 	ldw	r19,8(r16)
   11164:	10002126 	beq	r2,zero,111ec <__sfvwrite_r+0x1ac>
   11168:	982f883a 	mov	r23,r19
   1116c:	94c09336 	bltu	r18,r19,113bc <__sfvwrite_r+0x37c>
   11170:	1881200c 	andi	r2,r3,1152
   11174:	10009e1e 	bne	r2,zero,113f0 <__sfvwrite_r+0x3b0>
   11178:	81000017 	ldw	r4,0(r16)
   1117c:	b80d883a 	mov	r6,r23
   11180:	e00b883a 	mov	r5,fp
   11184:	00120bc0 	call	120bc <memmove>
   11188:	80c00217 	ldw	r3,8(r16)
   1118c:	81000017 	ldw	r4,0(r16)
   11190:	9005883a 	mov	r2,r18
   11194:	1ce7c83a 	sub	r19,r3,r19
   11198:	25cf883a 	add	r7,r4,r23
   1119c:	84c00215 	stw	r19,8(r16)
   111a0:	81c00015 	stw	r7,0(r16)
   111a4:	a0c00217 	ldw	r3,8(r20)
   111a8:	e0b9883a 	add	fp,fp,r2
   111ac:	90a5c83a 	sub	r18,r18,r2
   111b0:	18a7c83a 	sub	r19,r3,r2
   111b4:	a4c00215 	stw	r19,8(r20)
   111b8:	983fce26 	beq	r19,zero,110f4 <_gp+0xffff1708>
   111bc:	80c0030b 	ldhu	r3,12(r16)
   111c0:	903fe61e 	bne	r18,zero,1115c <_gp+0xffff1770>
   111c4:	8f000017 	ldw	fp,0(r17)
   111c8:	8c800117 	ldw	r18,4(r17)
   111cc:	8c400204 	addi	r17,r17,8
   111d0:	003fe106 	br	11158 <_gp+0xffff176c>
   111d4:	8cc00017 	ldw	r19,0(r17)
   111d8:	8c800117 	ldw	r18,4(r17)
   111dc:	8c400204 	addi	r17,r17,8
   111e0:	003fb306 	br	110b0 <_gp+0xffff16c4>
   111e4:	0005883a 	mov	r2,zero
   111e8:	f800283a 	ret
   111ec:	81000017 	ldw	r4,0(r16)
   111f0:	80800417 	ldw	r2,16(r16)
   111f4:	11005736 	bltu	r2,r4,11354 <__sfvwrite_r+0x314>
   111f8:	85c00517 	ldw	r23,20(r16)
   111fc:	95c05536 	bltu	r18,r23,11354 <__sfvwrite_r+0x314>
   11200:	00a00034 	movhi	r2,32768
   11204:	10bfffc4 	addi	r2,r2,-1
   11208:	9009883a 	mov	r4,r18
   1120c:	1480012e 	bgeu	r2,r18,11214 <__sfvwrite_r+0x1d4>
   11210:	1009883a 	mov	r4,r2
   11214:	b80b883a 	mov	r5,r23
   11218:	00109800 	call	10980 <__divsi3>
   1121c:	15cf383a 	mul	r7,r2,r23
   11220:	81400717 	ldw	r5,28(r16)
   11224:	80800917 	ldw	r2,36(r16)
   11228:	e00d883a 	mov	r6,fp
   1122c:	a809883a 	mov	r4,r21
   11230:	103ee83a 	callr	r2
   11234:	00bfdb16 	blt	zero,r2,111a4 <_gp+0xffff17b8>
   11238:	8080030b 	ldhu	r2,12(r16)
   1123c:	10801014 	ori	r2,r2,64
   11240:	8080030d 	sth	r2,12(r16)
   11244:	00bfffc4 	movi	r2,-1
   11248:	003fab06 	br	110f8 <_gp+0xffff170c>
   1124c:	0027883a 	mov	r19,zero
   11250:	0011883a 	mov	r8,zero
   11254:	0039883a 	mov	fp,zero
   11258:	0025883a 	mov	r18,zero
   1125c:	90001f26 	beq	r18,zero,112dc <__sfvwrite_r+0x29c>
   11260:	40005a26 	beq	r8,zero,113cc <__sfvwrite_r+0x38c>
   11264:	982d883a 	mov	r22,r19
   11268:	94c0012e 	bgeu	r18,r19,11270 <__sfvwrite_r+0x230>
   1126c:	902d883a 	mov	r22,r18
   11270:	81000017 	ldw	r4,0(r16)
   11274:	80800417 	ldw	r2,16(r16)
   11278:	b02f883a 	mov	r23,r22
   1127c:	81c00517 	ldw	r7,20(r16)
   11280:	1100032e 	bgeu	r2,r4,11290 <__sfvwrite_r+0x250>
   11284:	80c00217 	ldw	r3,8(r16)
   11288:	38c7883a 	add	r3,r7,r3
   1128c:	1d801816 	blt	r3,r22,112f0 <__sfvwrite_r+0x2b0>
   11290:	b1c03e16 	blt	r22,r7,1138c <__sfvwrite_r+0x34c>
   11294:	80800917 	ldw	r2,36(r16)
   11298:	81400717 	ldw	r5,28(r16)
   1129c:	e00d883a 	mov	r6,fp
   112a0:	da000115 	stw	r8,4(sp)
   112a4:	a809883a 	mov	r4,r21
   112a8:	103ee83a 	callr	r2
   112ac:	102f883a 	mov	r23,r2
   112b0:	da000117 	ldw	r8,4(sp)
   112b4:	00bfe00e 	bge	zero,r2,11238 <_gp+0xffff184c>
   112b8:	9de7c83a 	sub	r19,r19,r23
   112bc:	98001f26 	beq	r19,zero,1133c <__sfvwrite_r+0x2fc>
   112c0:	a0800217 	ldw	r2,8(r20)
   112c4:	e5f9883a 	add	fp,fp,r23
   112c8:	95e5c83a 	sub	r18,r18,r23
   112cc:	15efc83a 	sub	r23,r2,r23
   112d0:	a5c00215 	stw	r23,8(r20)
   112d4:	b83f8726 	beq	r23,zero,110f4 <_gp+0xffff1708>
   112d8:	903fe11e 	bne	r18,zero,11260 <_gp+0xffff1874>
   112dc:	8f000017 	ldw	fp,0(r17)
   112e0:	8c800117 	ldw	r18,4(r17)
   112e4:	0011883a 	mov	r8,zero
   112e8:	8c400204 	addi	r17,r17,8
   112ec:	003fdb06 	br	1125c <_gp+0xffff1870>
   112f0:	180d883a 	mov	r6,r3
   112f4:	e00b883a 	mov	r5,fp
   112f8:	da000115 	stw	r8,4(sp)
   112fc:	d8c00015 	stw	r3,0(sp)
   11300:	00120bc0 	call	120bc <memmove>
   11304:	d8c00017 	ldw	r3,0(sp)
   11308:	80800017 	ldw	r2,0(r16)
   1130c:	800b883a 	mov	r5,r16
   11310:	a809883a 	mov	r4,r21
   11314:	10c5883a 	add	r2,r2,r3
   11318:	80800015 	stw	r2,0(r16)
   1131c:	d8c00015 	stw	r3,0(sp)
   11320:	0012f5c0 	call	12f5c <_fflush_r>
   11324:	d8c00017 	ldw	r3,0(sp)
   11328:	da000117 	ldw	r8,4(sp)
   1132c:	103fc21e 	bne	r2,zero,11238 <_gp+0xffff184c>
   11330:	182f883a 	mov	r23,r3
   11334:	9de7c83a 	sub	r19,r19,r23
   11338:	983fe11e 	bne	r19,zero,112c0 <_gp+0xffff18d4>
   1133c:	800b883a 	mov	r5,r16
   11340:	a809883a 	mov	r4,r21
   11344:	0012f5c0 	call	12f5c <_fflush_r>
   11348:	103fbb1e 	bne	r2,zero,11238 <_gp+0xffff184c>
   1134c:	0011883a 	mov	r8,zero
   11350:	003fdb06 	br	112c0 <_gp+0xffff18d4>
   11354:	94c0012e 	bgeu	r18,r19,1135c <__sfvwrite_r+0x31c>
   11358:	9027883a 	mov	r19,r18
   1135c:	980d883a 	mov	r6,r19
   11360:	e00b883a 	mov	r5,fp
   11364:	00120bc0 	call	120bc <memmove>
   11368:	80800217 	ldw	r2,8(r16)
   1136c:	80c00017 	ldw	r3,0(r16)
   11370:	14c5c83a 	sub	r2,r2,r19
   11374:	1cc7883a 	add	r3,r3,r19
   11378:	80800215 	stw	r2,8(r16)
   1137c:	80c00015 	stw	r3,0(r16)
   11380:	10004326 	beq	r2,zero,11490 <__sfvwrite_r+0x450>
   11384:	9805883a 	mov	r2,r19
   11388:	003f8606 	br	111a4 <_gp+0xffff17b8>
   1138c:	b00d883a 	mov	r6,r22
   11390:	e00b883a 	mov	r5,fp
   11394:	da000115 	stw	r8,4(sp)
   11398:	00120bc0 	call	120bc <memmove>
   1139c:	80800217 	ldw	r2,8(r16)
   113a0:	80c00017 	ldw	r3,0(r16)
   113a4:	da000117 	ldw	r8,4(sp)
   113a8:	1585c83a 	sub	r2,r2,r22
   113ac:	1dad883a 	add	r22,r3,r22
   113b0:	80800215 	stw	r2,8(r16)
   113b4:	85800015 	stw	r22,0(r16)
   113b8:	003fbf06 	br	112b8 <_gp+0xffff18cc>
   113bc:	81000017 	ldw	r4,0(r16)
   113c0:	9027883a 	mov	r19,r18
   113c4:	902f883a 	mov	r23,r18
   113c8:	003f6c06 	br	1117c <_gp+0xffff1790>
   113cc:	900d883a 	mov	r6,r18
   113d0:	01400284 	movi	r5,10
   113d4:	e009883a 	mov	r4,fp
   113d8:	0011e900 	call	11e90 <memchr>
   113dc:	10003e26 	beq	r2,zero,114d8 <__sfvwrite_r+0x498>
   113e0:	10800044 	addi	r2,r2,1
   113e4:	1727c83a 	sub	r19,r2,fp
   113e8:	02000044 	movi	r8,1
   113ec:	003f9d06 	br	11264 <_gp+0xffff1878>
   113f0:	80800517 	ldw	r2,20(r16)
   113f4:	81400417 	ldw	r5,16(r16)
   113f8:	81c00017 	ldw	r7,0(r16)
   113fc:	10a7883a 	add	r19,r2,r2
   11400:	9885883a 	add	r2,r19,r2
   11404:	1026d7fa 	srli	r19,r2,31
   11408:	396dc83a 	sub	r22,r7,r5
   1140c:	b1000044 	addi	r4,r22,1
   11410:	9885883a 	add	r2,r19,r2
   11414:	1027d07a 	srai	r19,r2,1
   11418:	2485883a 	add	r2,r4,r18
   1141c:	980d883a 	mov	r6,r19
   11420:	9880022e 	bgeu	r19,r2,1142c <__sfvwrite_r+0x3ec>
   11424:	1027883a 	mov	r19,r2
   11428:	100d883a 	mov	r6,r2
   1142c:	18c1000c 	andi	r3,r3,1024
   11430:	18001c26 	beq	r3,zero,114a4 <__sfvwrite_r+0x464>
   11434:	300b883a 	mov	r5,r6
   11438:	a809883a 	mov	r4,r21
   1143c:	00116840 	call	11684 <_malloc_r>
   11440:	102f883a 	mov	r23,r2
   11444:	10002926 	beq	r2,zero,114ec <__sfvwrite_r+0x4ac>
   11448:	81400417 	ldw	r5,16(r16)
   1144c:	b00d883a 	mov	r6,r22
   11450:	1009883a 	mov	r4,r2
   11454:	0011f740 	call	11f74 <memcpy>
   11458:	8080030b 	ldhu	r2,12(r16)
   1145c:	00fedfc4 	movi	r3,-1153
   11460:	10c4703a 	and	r2,r2,r3
   11464:	10802014 	ori	r2,r2,128
   11468:	8080030d 	sth	r2,12(r16)
   1146c:	bd89883a 	add	r4,r23,r22
   11470:	9d8fc83a 	sub	r7,r19,r22
   11474:	85c00415 	stw	r23,16(r16)
   11478:	84c00515 	stw	r19,20(r16)
   1147c:	81000015 	stw	r4,0(r16)
   11480:	9027883a 	mov	r19,r18
   11484:	81c00215 	stw	r7,8(r16)
   11488:	902f883a 	mov	r23,r18
   1148c:	003f3b06 	br	1117c <_gp+0xffff1790>
   11490:	800b883a 	mov	r5,r16
   11494:	a809883a 	mov	r4,r21
   11498:	0012f5c0 	call	12f5c <_fflush_r>
   1149c:	103fb926 	beq	r2,zero,11384 <_gp+0xffff1998>
   114a0:	003f6506 	br	11238 <_gp+0xffff184c>
   114a4:	a809883a 	mov	r4,r21
   114a8:	00123400 	call	12340 <_realloc_r>
   114ac:	102f883a 	mov	r23,r2
   114b0:	103fee1e 	bne	r2,zero,1146c <_gp+0xffff1a80>
   114b4:	81400417 	ldw	r5,16(r16)
   114b8:	a809883a 	mov	r4,r21
   114bc:	001310c0 	call	1310c <_free_r>
   114c0:	8080030b 	ldhu	r2,12(r16)
   114c4:	00ffdfc4 	movi	r3,-129
   114c8:	1884703a 	and	r2,r3,r2
   114cc:	00c00304 	movi	r3,12
   114d0:	a8c00015 	stw	r3,0(r21)
   114d4:	003f5906 	br	1123c <_gp+0xffff1850>
   114d8:	94c00044 	addi	r19,r18,1
   114dc:	02000044 	movi	r8,1
   114e0:	003f6006 	br	11264 <_gp+0xffff1878>
   114e4:	00bfffc4 	movi	r2,-1
   114e8:	003f0306 	br	110f8 <_gp+0xffff170c>
   114ec:	00800304 	movi	r2,12
   114f0:	a8800015 	stw	r2,0(r21)
   114f4:	8080030b 	ldhu	r2,12(r16)
   114f8:	003f5006 	br	1123c <_gp+0xffff1850>

000114fc <_fwalk>:
   114fc:	defff704 	addi	sp,sp,-36
   11500:	dd000415 	stw	r20,16(sp)
   11504:	dfc00815 	stw	ra,32(sp)
   11508:	ddc00715 	stw	r23,28(sp)
   1150c:	dd800615 	stw	r22,24(sp)
   11510:	dd400515 	stw	r21,20(sp)
   11514:	dcc00315 	stw	r19,12(sp)
   11518:	dc800215 	stw	r18,8(sp)
   1151c:	dc400115 	stw	r17,4(sp)
   11520:	dc000015 	stw	r16,0(sp)
   11524:	2500b804 	addi	r20,r4,736
   11528:	a0002326 	beq	r20,zero,115b8 <_fwalk+0xbc>
   1152c:	282b883a 	mov	r21,r5
   11530:	002f883a 	mov	r23,zero
   11534:	05800044 	movi	r22,1
   11538:	04ffffc4 	movi	r19,-1
   1153c:	a4400117 	ldw	r17,4(r20)
   11540:	a4800217 	ldw	r18,8(r20)
   11544:	8c7fffc4 	addi	r17,r17,-1
   11548:	88000d16 	blt	r17,zero,11580 <_fwalk+0x84>
   1154c:	94000304 	addi	r16,r18,12
   11550:	94800384 	addi	r18,r18,14
   11554:	8080000b 	ldhu	r2,0(r16)
   11558:	8c7fffc4 	addi	r17,r17,-1
   1155c:	813ffd04 	addi	r4,r16,-12
   11560:	b080042e 	bgeu	r22,r2,11574 <_fwalk+0x78>
   11564:	9080000f 	ldh	r2,0(r18)
   11568:	14c00226 	beq	r2,r19,11574 <_fwalk+0x78>
   1156c:	a83ee83a 	callr	r21
   11570:	b8aeb03a 	or	r23,r23,r2
   11574:	84001a04 	addi	r16,r16,104
   11578:	94801a04 	addi	r18,r18,104
   1157c:	8cfff51e 	bne	r17,r19,11554 <_gp+0xffff1b68>
   11580:	a5000017 	ldw	r20,0(r20)
   11584:	a03fed1e 	bne	r20,zero,1153c <_gp+0xffff1b50>
   11588:	b805883a 	mov	r2,r23
   1158c:	dfc00817 	ldw	ra,32(sp)
   11590:	ddc00717 	ldw	r23,28(sp)
   11594:	dd800617 	ldw	r22,24(sp)
   11598:	dd400517 	ldw	r21,20(sp)
   1159c:	dd000417 	ldw	r20,16(sp)
   115a0:	dcc00317 	ldw	r19,12(sp)
   115a4:	dc800217 	ldw	r18,8(sp)
   115a8:	dc400117 	ldw	r17,4(sp)
   115ac:	dc000017 	ldw	r16,0(sp)
   115b0:	dec00904 	addi	sp,sp,36
   115b4:	f800283a 	ret
   115b8:	002f883a 	mov	r23,zero
   115bc:	003ff206 	br	11588 <_gp+0xffff1b9c>

000115c0 <_fwalk_reent>:
   115c0:	defff704 	addi	sp,sp,-36
   115c4:	dd000415 	stw	r20,16(sp)
   115c8:	dfc00815 	stw	ra,32(sp)
   115cc:	ddc00715 	stw	r23,28(sp)
   115d0:	dd800615 	stw	r22,24(sp)
   115d4:	dd400515 	stw	r21,20(sp)
   115d8:	dcc00315 	stw	r19,12(sp)
   115dc:	dc800215 	stw	r18,8(sp)
   115e0:	dc400115 	stw	r17,4(sp)
   115e4:	dc000015 	stw	r16,0(sp)
   115e8:	2500b804 	addi	r20,r4,736
   115ec:	a0002326 	beq	r20,zero,1167c <_fwalk_reent+0xbc>
   115f0:	282b883a 	mov	r21,r5
   115f4:	2027883a 	mov	r19,r4
   115f8:	002f883a 	mov	r23,zero
   115fc:	05800044 	movi	r22,1
   11600:	04bfffc4 	movi	r18,-1
   11604:	a4400117 	ldw	r17,4(r20)
   11608:	a4000217 	ldw	r16,8(r20)
   1160c:	8c7fffc4 	addi	r17,r17,-1
   11610:	88000c16 	blt	r17,zero,11644 <_fwalk_reent+0x84>
   11614:	84000304 	addi	r16,r16,12
   11618:	8080000b 	ldhu	r2,0(r16)
   1161c:	8c7fffc4 	addi	r17,r17,-1
   11620:	817ffd04 	addi	r5,r16,-12
   11624:	b080052e 	bgeu	r22,r2,1163c <_fwalk_reent+0x7c>
   11628:	8080008f 	ldh	r2,2(r16)
   1162c:	9809883a 	mov	r4,r19
   11630:	14800226 	beq	r2,r18,1163c <_fwalk_reent+0x7c>
   11634:	a83ee83a 	callr	r21
   11638:	b8aeb03a 	or	r23,r23,r2
   1163c:	84001a04 	addi	r16,r16,104
   11640:	8cbff51e 	bne	r17,r18,11618 <_gp+0xffff1c2c>
   11644:	a5000017 	ldw	r20,0(r20)
   11648:	a03fee1e 	bne	r20,zero,11604 <_gp+0xffff1c18>
   1164c:	b805883a 	mov	r2,r23
   11650:	dfc00817 	ldw	ra,32(sp)
   11654:	ddc00717 	ldw	r23,28(sp)
   11658:	dd800617 	ldw	r22,24(sp)
   1165c:	dd400517 	ldw	r21,20(sp)
   11660:	dd000417 	ldw	r20,16(sp)
   11664:	dcc00317 	ldw	r19,12(sp)
   11668:	dc800217 	ldw	r18,8(sp)
   1166c:	dc400117 	ldw	r17,4(sp)
   11670:	dc000017 	ldw	r16,0(sp)
   11674:	dec00904 	addi	sp,sp,36
   11678:	f800283a 	ret
   1167c:	002f883a 	mov	r23,zero
   11680:	003ff206 	br	1164c <_gp+0xffff1c60>

00011684 <_malloc_r>:
   11684:	defff504 	addi	sp,sp,-44
   11688:	dc800315 	stw	r18,12(sp)
   1168c:	dfc00a15 	stw	ra,40(sp)
   11690:	df000915 	stw	fp,36(sp)
   11694:	ddc00815 	stw	r23,32(sp)
   11698:	dd800715 	stw	r22,28(sp)
   1169c:	dd400615 	stw	r21,24(sp)
   116a0:	dd000515 	stw	r20,20(sp)
   116a4:	dcc00415 	stw	r19,16(sp)
   116a8:	dc400215 	stw	r17,8(sp)
   116ac:	dc000115 	stw	r16,4(sp)
   116b0:	288002c4 	addi	r2,r5,11
   116b4:	00c00584 	movi	r3,22
   116b8:	2025883a 	mov	r18,r4
   116bc:	18807f2e 	bgeu	r3,r2,118bc <_malloc_r+0x238>
   116c0:	047ffe04 	movi	r17,-8
   116c4:	1462703a 	and	r17,r2,r17
   116c8:	8800a316 	blt	r17,zero,11958 <_malloc_r+0x2d4>
   116cc:	8940a236 	bltu	r17,r5,11958 <_malloc_r+0x2d4>
   116d0:	0013f640 	call	13f64 <__malloc_lock>
   116d4:	00807dc4 	movi	r2,503
   116d8:	1441e92e 	bgeu	r2,r17,11e80 <_malloc_r+0x7fc>
   116dc:	8804d27a 	srli	r2,r17,9
   116e0:	1000a126 	beq	r2,zero,11968 <_malloc_r+0x2e4>
   116e4:	00c00104 	movi	r3,4
   116e8:	18811e36 	bltu	r3,r2,11b64 <_malloc_r+0x4e0>
   116ec:	8804d1ba 	srli	r2,r17,6
   116f0:	12000e44 	addi	r8,r2,57
   116f4:	11c00e04 	addi	r7,r2,56
   116f8:	4209883a 	add	r4,r8,r8
   116fc:	04c00074 	movhi	r19,1
   11700:	2109883a 	add	r4,r4,r4
   11704:	9cd8f704 	addi	r19,r19,25564
   11708:	2109883a 	add	r4,r4,r4
   1170c:	9909883a 	add	r4,r19,r4
   11710:	24000117 	ldw	r16,4(r4)
   11714:	213ffe04 	addi	r4,r4,-8
   11718:	24009726 	beq	r4,r16,11978 <_malloc_r+0x2f4>
   1171c:	80800117 	ldw	r2,4(r16)
   11720:	01bfff04 	movi	r6,-4
   11724:	014003c4 	movi	r5,15
   11728:	1184703a 	and	r2,r2,r6
   1172c:	1447c83a 	sub	r3,r2,r17
   11730:	28c00716 	blt	r5,r3,11750 <_malloc_r+0xcc>
   11734:	1800920e 	bge	r3,zero,11980 <_malloc_r+0x2fc>
   11738:	84000317 	ldw	r16,12(r16)
   1173c:	24008e26 	beq	r4,r16,11978 <_malloc_r+0x2f4>
   11740:	80800117 	ldw	r2,4(r16)
   11744:	1184703a 	and	r2,r2,r6
   11748:	1447c83a 	sub	r3,r2,r17
   1174c:	28fff90e 	bge	r5,r3,11734 <_gp+0xffff1d48>
   11750:	3809883a 	mov	r4,r7
   11754:	01800074 	movhi	r6,1
   11758:	9c000417 	ldw	r16,16(r19)
   1175c:	3198f704 	addi	r6,r6,25564
   11760:	32000204 	addi	r8,r6,8
   11764:	82013426 	beq	r16,r8,11c38 <_malloc_r+0x5b4>
   11768:	80c00117 	ldw	r3,4(r16)
   1176c:	00bfff04 	movi	r2,-4
   11770:	188e703a 	and	r7,r3,r2
   11774:	3c45c83a 	sub	r2,r7,r17
   11778:	00c003c4 	movi	r3,15
   1177c:	18811f16 	blt	r3,r2,11bfc <_malloc_r+0x578>
   11780:	32000515 	stw	r8,20(r6)
   11784:	32000415 	stw	r8,16(r6)
   11788:	10007f0e 	bge	r2,zero,11988 <_malloc_r+0x304>
   1178c:	00807fc4 	movi	r2,511
   11790:	11c0fd36 	bltu	r2,r7,11b88 <_malloc_r+0x504>
   11794:	3806d0fa 	srli	r3,r7,3
   11798:	01c00044 	movi	r7,1
   1179c:	30800117 	ldw	r2,4(r6)
   117a0:	19400044 	addi	r5,r3,1
   117a4:	294b883a 	add	r5,r5,r5
   117a8:	1807d0ba 	srai	r3,r3,2
   117ac:	294b883a 	add	r5,r5,r5
   117b0:	294b883a 	add	r5,r5,r5
   117b4:	298b883a 	add	r5,r5,r6
   117b8:	38c6983a 	sll	r3,r7,r3
   117bc:	29c00017 	ldw	r7,0(r5)
   117c0:	2a7ffe04 	addi	r9,r5,-8
   117c4:	1886b03a 	or	r3,r3,r2
   117c8:	82400315 	stw	r9,12(r16)
   117cc:	81c00215 	stw	r7,8(r16)
   117d0:	30c00115 	stw	r3,4(r6)
   117d4:	2c000015 	stw	r16,0(r5)
   117d8:	3c000315 	stw	r16,12(r7)
   117dc:	2005d0ba 	srai	r2,r4,2
   117e0:	01400044 	movi	r5,1
   117e4:	288a983a 	sll	r5,r5,r2
   117e8:	19406f36 	bltu	r3,r5,119a8 <_malloc_r+0x324>
   117ec:	28c4703a 	and	r2,r5,r3
   117f0:	10000a1e 	bne	r2,zero,1181c <_malloc_r+0x198>
   117f4:	00bfff04 	movi	r2,-4
   117f8:	294b883a 	add	r5,r5,r5
   117fc:	2088703a 	and	r4,r4,r2
   11800:	28c4703a 	and	r2,r5,r3
   11804:	21000104 	addi	r4,r4,4
   11808:	1000041e 	bne	r2,zero,1181c <_malloc_r+0x198>
   1180c:	294b883a 	add	r5,r5,r5
   11810:	28c4703a 	and	r2,r5,r3
   11814:	21000104 	addi	r4,r4,4
   11818:	103ffc26 	beq	r2,zero,1180c <_gp+0xffff1e20>
   1181c:	02bfff04 	movi	r10,-4
   11820:	024003c4 	movi	r9,15
   11824:	21800044 	addi	r6,r4,1
   11828:	318d883a 	add	r6,r6,r6
   1182c:	318d883a 	add	r6,r6,r6
   11830:	318d883a 	add	r6,r6,r6
   11834:	998d883a 	add	r6,r19,r6
   11838:	333ffe04 	addi	r12,r6,-8
   1183c:	2017883a 	mov	r11,r4
   11840:	31800104 	addi	r6,r6,4
   11844:	34000017 	ldw	r16,0(r6)
   11848:	31fffd04 	addi	r7,r6,-12
   1184c:	81c0041e 	bne	r16,r7,11860 <_malloc_r+0x1dc>
   11850:	0000fb06 	br	11c40 <_malloc_r+0x5bc>
   11854:	1801030e 	bge	r3,zero,11c64 <_malloc_r+0x5e0>
   11858:	84000317 	ldw	r16,12(r16)
   1185c:	81c0f826 	beq	r16,r7,11c40 <_malloc_r+0x5bc>
   11860:	80800117 	ldw	r2,4(r16)
   11864:	1284703a 	and	r2,r2,r10
   11868:	1447c83a 	sub	r3,r2,r17
   1186c:	48fff90e 	bge	r9,r3,11854 <_gp+0xffff1e68>
   11870:	80800317 	ldw	r2,12(r16)
   11874:	81000217 	ldw	r4,8(r16)
   11878:	89400054 	ori	r5,r17,1
   1187c:	81400115 	stw	r5,4(r16)
   11880:	20800315 	stw	r2,12(r4)
   11884:	11000215 	stw	r4,8(r2)
   11888:	8463883a 	add	r17,r16,r17
   1188c:	9c400515 	stw	r17,20(r19)
   11890:	9c400415 	stw	r17,16(r19)
   11894:	18800054 	ori	r2,r3,1
   11898:	88800115 	stw	r2,4(r17)
   1189c:	8a000315 	stw	r8,12(r17)
   118a0:	8a000215 	stw	r8,8(r17)
   118a4:	88e3883a 	add	r17,r17,r3
   118a8:	88c00015 	stw	r3,0(r17)
   118ac:	9009883a 	mov	r4,r18
   118b0:	0013f880 	call	13f88 <__malloc_unlock>
   118b4:	80800204 	addi	r2,r16,8
   118b8:	00001b06 	br	11928 <_malloc_r+0x2a4>
   118bc:	04400404 	movi	r17,16
   118c0:	89402536 	bltu	r17,r5,11958 <_malloc_r+0x2d4>
   118c4:	0013f640 	call	13f64 <__malloc_lock>
   118c8:	00800184 	movi	r2,6
   118cc:	01000084 	movi	r4,2
   118d0:	04c00074 	movhi	r19,1
   118d4:	1085883a 	add	r2,r2,r2
   118d8:	9cd8f704 	addi	r19,r19,25564
   118dc:	1085883a 	add	r2,r2,r2
   118e0:	9885883a 	add	r2,r19,r2
   118e4:	14000117 	ldw	r16,4(r2)
   118e8:	10fffe04 	addi	r3,r2,-8
   118ec:	80c0d926 	beq	r16,r3,11c54 <_malloc_r+0x5d0>
   118f0:	80c00117 	ldw	r3,4(r16)
   118f4:	81000317 	ldw	r4,12(r16)
   118f8:	00bfff04 	movi	r2,-4
   118fc:	1884703a 	and	r2,r3,r2
   11900:	81400217 	ldw	r5,8(r16)
   11904:	8085883a 	add	r2,r16,r2
   11908:	10c00117 	ldw	r3,4(r2)
   1190c:	29000315 	stw	r4,12(r5)
   11910:	21400215 	stw	r5,8(r4)
   11914:	18c00054 	ori	r3,r3,1
   11918:	10c00115 	stw	r3,4(r2)
   1191c:	9009883a 	mov	r4,r18
   11920:	0013f880 	call	13f88 <__malloc_unlock>
   11924:	80800204 	addi	r2,r16,8
   11928:	dfc00a17 	ldw	ra,40(sp)
   1192c:	df000917 	ldw	fp,36(sp)
   11930:	ddc00817 	ldw	r23,32(sp)
   11934:	dd800717 	ldw	r22,28(sp)
   11938:	dd400617 	ldw	r21,24(sp)
   1193c:	dd000517 	ldw	r20,20(sp)
   11940:	dcc00417 	ldw	r19,16(sp)
   11944:	dc800317 	ldw	r18,12(sp)
   11948:	dc400217 	ldw	r17,8(sp)
   1194c:	dc000117 	ldw	r16,4(sp)
   11950:	dec00b04 	addi	sp,sp,44
   11954:	f800283a 	ret
   11958:	00800304 	movi	r2,12
   1195c:	90800015 	stw	r2,0(r18)
   11960:	0005883a 	mov	r2,zero
   11964:	003ff006 	br	11928 <_gp+0xffff1f3c>
   11968:	01002004 	movi	r4,128
   1196c:	02001004 	movi	r8,64
   11970:	01c00fc4 	movi	r7,63
   11974:	003f6106 	br	116fc <_gp+0xffff1d10>
   11978:	4009883a 	mov	r4,r8
   1197c:	003f7506 	br	11754 <_gp+0xffff1d68>
   11980:	81000317 	ldw	r4,12(r16)
   11984:	003fde06 	br	11900 <_gp+0xffff1f14>
   11988:	81c5883a 	add	r2,r16,r7
   1198c:	11400117 	ldw	r5,4(r2)
   11990:	9009883a 	mov	r4,r18
   11994:	29400054 	ori	r5,r5,1
   11998:	11400115 	stw	r5,4(r2)
   1199c:	0013f880 	call	13f88 <__malloc_unlock>
   119a0:	80800204 	addi	r2,r16,8
   119a4:	003fe006 	br	11928 <_gp+0xffff1f3c>
   119a8:	9c000217 	ldw	r16,8(r19)
   119ac:	00bfff04 	movi	r2,-4
   119b0:	85800117 	ldw	r22,4(r16)
   119b4:	b0ac703a 	and	r22,r22,r2
   119b8:	b4400336 	bltu	r22,r17,119c8 <_malloc_r+0x344>
   119bc:	b445c83a 	sub	r2,r22,r17
   119c0:	00c003c4 	movi	r3,15
   119c4:	18805d16 	blt	r3,r2,11b3c <_malloc_r+0x4b8>
   119c8:	05c00074 	movhi	r23,1
   119cc:	008000b4 	movhi	r2,2
   119d0:	10a53404 	addi	r2,r2,-27440
   119d4:	bdde7e04 	addi	r23,r23,31224
   119d8:	15400017 	ldw	r21,0(r2)
   119dc:	b8c00017 	ldw	r3,0(r23)
   119e0:	00bfffc4 	movi	r2,-1
   119e4:	858d883a 	add	r6,r16,r22
   119e8:	8d6b883a 	add	r21,r17,r21
   119ec:	1880ea26 	beq	r3,r2,11d98 <_malloc_r+0x714>
   119f0:	ad4403c4 	addi	r21,r21,4111
   119f4:	00bc0004 	movi	r2,-4096
   119f8:	a8aa703a 	and	r21,r21,r2
   119fc:	a80b883a 	mov	r5,r21
   11a00:	9009883a 	mov	r4,r18
   11a04:	d9800015 	stw	r6,0(sp)
   11a08:	00128a40 	call	128a4 <_sbrk_r>
   11a0c:	1029883a 	mov	r20,r2
   11a10:	00bfffc4 	movi	r2,-1
   11a14:	d9800017 	ldw	r6,0(sp)
   11a18:	a080e826 	beq	r20,r2,11dbc <_malloc_r+0x738>
   11a1c:	a180a636 	bltu	r20,r6,11cb8 <_malloc_r+0x634>
   11a20:	070000b4 	movhi	fp,2
   11a24:	e7253d04 	addi	fp,fp,-27404
   11a28:	e0800017 	ldw	r2,0(fp)
   11a2c:	a887883a 	add	r3,r21,r2
   11a30:	e0c00015 	stw	r3,0(fp)
   11a34:	3500e626 	beq	r6,r20,11dd0 <_malloc_r+0x74c>
   11a38:	b9000017 	ldw	r4,0(r23)
   11a3c:	00bfffc4 	movi	r2,-1
   11a40:	2080ee26 	beq	r4,r2,11dfc <_malloc_r+0x778>
   11a44:	a185c83a 	sub	r2,r20,r6
   11a48:	10c5883a 	add	r2,r2,r3
   11a4c:	e0800015 	stw	r2,0(fp)
   11a50:	a0c001cc 	andi	r3,r20,7
   11a54:	1800bc26 	beq	r3,zero,11d48 <_malloc_r+0x6c4>
   11a58:	a0e9c83a 	sub	r20,r20,r3
   11a5c:	00840204 	movi	r2,4104
   11a60:	a5000204 	addi	r20,r20,8
   11a64:	10c7c83a 	sub	r3,r2,r3
   11a68:	a545883a 	add	r2,r20,r21
   11a6c:	1083ffcc 	andi	r2,r2,4095
   11a70:	18abc83a 	sub	r21,r3,r2
   11a74:	a80b883a 	mov	r5,r21
   11a78:	9009883a 	mov	r4,r18
   11a7c:	00128a40 	call	128a4 <_sbrk_r>
   11a80:	00ffffc4 	movi	r3,-1
   11a84:	10c0e126 	beq	r2,r3,11e0c <_malloc_r+0x788>
   11a88:	1505c83a 	sub	r2,r2,r20
   11a8c:	1545883a 	add	r2,r2,r21
   11a90:	10800054 	ori	r2,r2,1
   11a94:	e0c00017 	ldw	r3,0(fp)
   11a98:	9d000215 	stw	r20,8(r19)
   11a9c:	a0800115 	stw	r2,4(r20)
   11aa0:	a8c7883a 	add	r3,r21,r3
   11aa4:	e0c00015 	stw	r3,0(fp)
   11aa8:	84c00e26 	beq	r16,r19,11ae4 <_malloc_r+0x460>
   11aac:	018003c4 	movi	r6,15
   11ab0:	3580a72e 	bgeu	r6,r22,11d50 <_malloc_r+0x6cc>
   11ab4:	81400117 	ldw	r5,4(r16)
   11ab8:	013ffe04 	movi	r4,-8
   11abc:	b0bffd04 	addi	r2,r22,-12
   11ac0:	1104703a 	and	r2,r2,r4
   11ac4:	2900004c 	andi	r4,r5,1
   11ac8:	2088b03a 	or	r4,r4,r2
   11acc:	81000115 	stw	r4,4(r16)
   11ad0:	01400144 	movi	r5,5
   11ad4:	8089883a 	add	r4,r16,r2
   11ad8:	21400115 	stw	r5,4(r4)
   11adc:	21400215 	stw	r5,8(r4)
   11ae0:	3080cd36 	bltu	r6,r2,11e18 <_malloc_r+0x794>
   11ae4:	008000b4 	movhi	r2,2
   11ae8:	10a53304 	addi	r2,r2,-27444
   11aec:	11000017 	ldw	r4,0(r2)
   11af0:	20c0012e 	bgeu	r4,r3,11af8 <_malloc_r+0x474>
   11af4:	10c00015 	stw	r3,0(r2)
   11af8:	008000b4 	movhi	r2,2
   11afc:	10a53204 	addi	r2,r2,-27448
   11b00:	11000017 	ldw	r4,0(r2)
   11b04:	9c000217 	ldw	r16,8(r19)
   11b08:	20c0012e 	bgeu	r4,r3,11b10 <_malloc_r+0x48c>
   11b0c:	10c00015 	stw	r3,0(r2)
   11b10:	80c00117 	ldw	r3,4(r16)
   11b14:	00bfff04 	movi	r2,-4
   11b18:	1886703a 	and	r3,r3,r2
   11b1c:	1c45c83a 	sub	r2,r3,r17
   11b20:	1c400236 	bltu	r3,r17,11b2c <_malloc_r+0x4a8>
   11b24:	00c003c4 	movi	r3,15
   11b28:	18800416 	blt	r3,r2,11b3c <_malloc_r+0x4b8>
   11b2c:	9009883a 	mov	r4,r18
   11b30:	0013f880 	call	13f88 <__malloc_unlock>
   11b34:	0005883a 	mov	r2,zero
   11b38:	003f7b06 	br	11928 <_gp+0xffff1f3c>
   11b3c:	88c00054 	ori	r3,r17,1
   11b40:	80c00115 	stw	r3,4(r16)
   11b44:	8463883a 	add	r17,r16,r17
   11b48:	10800054 	ori	r2,r2,1
   11b4c:	9c400215 	stw	r17,8(r19)
   11b50:	88800115 	stw	r2,4(r17)
   11b54:	9009883a 	mov	r4,r18
   11b58:	0013f880 	call	13f88 <__malloc_unlock>
   11b5c:	80800204 	addi	r2,r16,8
   11b60:	003f7106 	br	11928 <_gp+0xffff1f3c>
   11b64:	00c00504 	movi	r3,20
   11b68:	18804a2e 	bgeu	r3,r2,11c94 <_malloc_r+0x610>
   11b6c:	00c01504 	movi	r3,84
   11b70:	18806e36 	bltu	r3,r2,11d2c <_malloc_r+0x6a8>
   11b74:	8804d33a 	srli	r2,r17,12
   11b78:	12001bc4 	addi	r8,r2,111
   11b7c:	11c01b84 	addi	r7,r2,110
   11b80:	4209883a 	add	r4,r8,r8
   11b84:	003edd06 	br	116fc <_gp+0xffff1d10>
   11b88:	3804d27a 	srli	r2,r7,9
   11b8c:	00c00104 	movi	r3,4
   11b90:	1880442e 	bgeu	r3,r2,11ca4 <_malloc_r+0x620>
   11b94:	00c00504 	movi	r3,20
   11b98:	18808136 	bltu	r3,r2,11da0 <_malloc_r+0x71c>
   11b9c:	11401704 	addi	r5,r2,92
   11ba0:	10c016c4 	addi	r3,r2,91
   11ba4:	294b883a 	add	r5,r5,r5
   11ba8:	294b883a 	add	r5,r5,r5
   11bac:	294b883a 	add	r5,r5,r5
   11bb0:	994b883a 	add	r5,r19,r5
   11bb4:	28800017 	ldw	r2,0(r5)
   11bb8:	01800074 	movhi	r6,1
   11bbc:	297ffe04 	addi	r5,r5,-8
   11bc0:	3198f704 	addi	r6,r6,25564
   11bc4:	28806526 	beq	r5,r2,11d5c <_malloc_r+0x6d8>
   11bc8:	01bfff04 	movi	r6,-4
   11bcc:	10c00117 	ldw	r3,4(r2)
   11bd0:	1986703a 	and	r3,r3,r6
   11bd4:	38c0022e 	bgeu	r7,r3,11be0 <_malloc_r+0x55c>
   11bd8:	10800217 	ldw	r2,8(r2)
   11bdc:	28bffb1e 	bne	r5,r2,11bcc <_gp+0xffff21e0>
   11be0:	11400317 	ldw	r5,12(r2)
   11be4:	98c00117 	ldw	r3,4(r19)
   11be8:	81400315 	stw	r5,12(r16)
   11bec:	80800215 	stw	r2,8(r16)
   11bf0:	2c000215 	stw	r16,8(r5)
   11bf4:	14000315 	stw	r16,12(r2)
   11bf8:	003ef806 	br	117dc <_gp+0xffff1df0>
   11bfc:	88c00054 	ori	r3,r17,1
   11c00:	80c00115 	stw	r3,4(r16)
   11c04:	8463883a 	add	r17,r16,r17
   11c08:	34400515 	stw	r17,20(r6)
   11c0c:	34400415 	stw	r17,16(r6)
   11c10:	10c00054 	ori	r3,r2,1
   11c14:	8a000315 	stw	r8,12(r17)
   11c18:	8a000215 	stw	r8,8(r17)
   11c1c:	88c00115 	stw	r3,4(r17)
   11c20:	88a3883a 	add	r17,r17,r2
   11c24:	88800015 	stw	r2,0(r17)
   11c28:	9009883a 	mov	r4,r18
   11c2c:	0013f880 	call	13f88 <__malloc_unlock>
   11c30:	80800204 	addi	r2,r16,8
   11c34:	003f3c06 	br	11928 <_gp+0xffff1f3c>
   11c38:	30c00117 	ldw	r3,4(r6)
   11c3c:	003ee706 	br	117dc <_gp+0xffff1df0>
   11c40:	5ac00044 	addi	r11,r11,1
   11c44:	588000cc 	andi	r2,r11,3
   11c48:	31800204 	addi	r6,r6,8
   11c4c:	103efd1e 	bne	r2,zero,11844 <_gp+0xffff1e58>
   11c50:	00002406 	br	11ce4 <_malloc_r+0x660>
   11c54:	14000317 	ldw	r16,12(r2)
   11c58:	143f251e 	bne	r2,r16,118f0 <_gp+0xffff1f04>
   11c5c:	21000084 	addi	r4,r4,2
   11c60:	003ebc06 	br	11754 <_gp+0xffff1d68>
   11c64:	8085883a 	add	r2,r16,r2
   11c68:	10c00117 	ldw	r3,4(r2)
   11c6c:	81000317 	ldw	r4,12(r16)
   11c70:	81400217 	ldw	r5,8(r16)
   11c74:	18c00054 	ori	r3,r3,1
   11c78:	10c00115 	stw	r3,4(r2)
   11c7c:	29000315 	stw	r4,12(r5)
   11c80:	21400215 	stw	r5,8(r4)
   11c84:	9009883a 	mov	r4,r18
   11c88:	0013f880 	call	13f88 <__malloc_unlock>
   11c8c:	80800204 	addi	r2,r16,8
   11c90:	003f2506 	br	11928 <_gp+0xffff1f3c>
   11c94:	12001704 	addi	r8,r2,92
   11c98:	11c016c4 	addi	r7,r2,91
   11c9c:	4209883a 	add	r4,r8,r8
   11ca0:	003e9606 	br	116fc <_gp+0xffff1d10>
   11ca4:	3804d1ba 	srli	r2,r7,6
   11ca8:	11400e44 	addi	r5,r2,57
   11cac:	10c00e04 	addi	r3,r2,56
   11cb0:	294b883a 	add	r5,r5,r5
   11cb4:	003fbc06 	br	11ba8 <_gp+0xffff21bc>
   11cb8:	84ff5926 	beq	r16,r19,11a20 <_gp+0xffff2034>
   11cbc:	00800074 	movhi	r2,1
   11cc0:	1098f704 	addi	r2,r2,25564
   11cc4:	14000217 	ldw	r16,8(r2)
   11cc8:	00bfff04 	movi	r2,-4
   11ccc:	80c00117 	ldw	r3,4(r16)
   11cd0:	1886703a 	and	r3,r3,r2
   11cd4:	003f9106 	br	11b1c <_gp+0xffff2130>
   11cd8:	60800217 	ldw	r2,8(r12)
   11cdc:	213fffc4 	addi	r4,r4,-1
   11ce0:	1300651e 	bne	r2,r12,11e78 <_malloc_r+0x7f4>
   11ce4:	208000cc 	andi	r2,r4,3
   11ce8:	633ffe04 	addi	r12,r12,-8
   11cec:	103ffa1e 	bne	r2,zero,11cd8 <_gp+0xffff22ec>
   11cf0:	98800117 	ldw	r2,4(r19)
   11cf4:	0146303a 	nor	r3,zero,r5
   11cf8:	1884703a 	and	r2,r3,r2
   11cfc:	98800115 	stw	r2,4(r19)
   11d00:	294b883a 	add	r5,r5,r5
   11d04:	117f2836 	bltu	r2,r5,119a8 <_gp+0xffff1fbc>
   11d08:	283f2726 	beq	r5,zero,119a8 <_gp+0xffff1fbc>
   11d0c:	2886703a 	and	r3,r5,r2
   11d10:	5809883a 	mov	r4,r11
   11d14:	183ec31e 	bne	r3,zero,11824 <_gp+0xffff1e38>
   11d18:	294b883a 	add	r5,r5,r5
   11d1c:	2886703a 	and	r3,r5,r2
   11d20:	21000104 	addi	r4,r4,4
   11d24:	183ffc26 	beq	r3,zero,11d18 <_gp+0xffff232c>
   11d28:	003ebe06 	br	11824 <_gp+0xffff1e38>
   11d2c:	00c05504 	movi	r3,340
   11d30:	18801236 	bltu	r3,r2,11d7c <_malloc_r+0x6f8>
   11d34:	8804d3fa 	srli	r2,r17,15
   11d38:	12001e04 	addi	r8,r2,120
   11d3c:	11c01dc4 	addi	r7,r2,119
   11d40:	4209883a 	add	r4,r8,r8
   11d44:	003e6d06 	br	116fc <_gp+0xffff1d10>
   11d48:	00c40004 	movi	r3,4096
   11d4c:	003f4606 	br	11a68 <_gp+0xffff207c>
   11d50:	00800044 	movi	r2,1
   11d54:	a0800115 	stw	r2,4(r20)
   11d58:	003f7406 	br	11b2c <_gp+0xffff2140>
   11d5c:	1805d0ba 	srai	r2,r3,2
   11d60:	01c00044 	movi	r7,1
   11d64:	30c00117 	ldw	r3,4(r6)
   11d68:	388e983a 	sll	r7,r7,r2
   11d6c:	2805883a 	mov	r2,r5
   11d70:	38c6b03a 	or	r3,r7,r3
   11d74:	30c00115 	stw	r3,4(r6)
   11d78:	003f9b06 	br	11be8 <_gp+0xffff21fc>
   11d7c:	00c15504 	movi	r3,1364
   11d80:	18801a36 	bltu	r3,r2,11dec <_malloc_r+0x768>
   11d84:	8804d4ba 	srli	r2,r17,18
   11d88:	12001f44 	addi	r8,r2,125
   11d8c:	11c01f04 	addi	r7,r2,124
   11d90:	4209883a 	add	r4,r8,r8
   11d94:	003e5906 	br	116fc <_gp+0xffff1d10>
   11d98:	ad400404 	addi	r21,r21,16
   11d9c:	003f1706 	br	119fc <_gp+0xffff2010>
   11da0:	00c01504 	movi	r3,84
   11da4:	18802336 	bltu	r3,r2,11e34 <_malloc_r+0x7b0>
   11da8:	3804d33a 	srli	r2,r7,12
   11dac:	11401bc4 	addi	r5,r2,111
   11db0:	10c01b84 	addi	r3,r2,110
   11db4:	294b883a 	add	r5,r5,r5
   11db8:	003f7b06 	br	11ba8 <_gp+0xffff21bc>
   11dbc:	9c000217 	ldw	r16,8(r19)
   11dc0:	00bfff04 	movi	r2,-4
   11dc4:	80c00117 	ldw	r3,4(r16)
   11dc8:	1886703a 	and	r3,r3,r2
   11dcc:	003f5306 	br	11b1c <_gp+0xffff2130>
   11dd0:	3083ffcc 	andi	r2,r6,4095
   11dd4:	103f181e 	bne	r2,zero,11a38 <_gp+0xffff204c>
   11dd8:	99000217 	ldw	r4,8(r19)
   11ddc:	b545883a 	add	r2,r22,r21
   11de0:	10800054 	ori	r2,r2,1
   11de4:	20800115 	stw	r2,4(r4)
   11de8:	003f3e06 	br	11ae4 <_gp+0xffff20f8>
   11dec:	01003f84 	movi	r4,254
   11df0:	02001fc4 	movi	r8,127
   11df4:	01c01f84 	movi	r7,126
   11df8:	003e4006 	br	116fc <_gp+0xffff1d10>
   11dfc:	00800074 	movhi	r2,1
   11e00:	109e7e04 	addi	r2,r2,31224
   11e04:	15000015 	stw	r20,0(r2)
   11e08:	003f1106 	br	11a50 <_gp+0xffff2064>
   11e0c:	00800044 	movi	r2,1
   11e10:	002b883a 	mov	r21,zero
   11e14:	003f1f06 	br	11a94 <_gp+0xffff20a8>
   11e18:	81400204 	addi	r5,r16,8
   11e1c:	9009883a 	mov	r4,r18
   11e20:	001310c0 	call	1310c <_free_r>
   11e24:	008000b4 	movhi	r2,2
   11e28:	10a53d04 	addi	r2,r2,-27404
   11e2c:	10c00017 	ldw	r3,0(r2)
   11e30:	003f2c06 	br	11ae4 <_gp+0xffff20f8>
   11e34:	00c05504 	movi	r3,340
   11e38:	18800536 	bltu	r3,r2,11e50 <_malloc_r+0x7cc>
   11e3c:	3804d3fa 	srli	r2,r7,15
   11e40:	11401e04 	addi	r5,r2,120
   11e44:	10c01dc4 	addi	r3,r2,119
   11e48:	294b883a 	add	r5,r5,r5
   11e4c:	003f5606 	br	11ba8 <_gp+0xffff21bc>
   11e50:	00c15504 	movi	r3,1364
   11e54:	18800536 	bltu	r3,r2,11e6c <_malloc_r+0x7e8>
   11e58:	3804d4ba 	srli	r2,r7,18
   11e5c:	11401f44 	addi	r5,r2,125
   11e60:	10c01f04 	addi	r3,r2,124
   11e64:	294b883a 	add	r5,r5,r5
   11e68:	003f4f06 	br	11ba8 <_gp+0xffff21bc>
   11e6c:	01403f84 	movi	r5,254
   11e70:	00c01f84 	movi	r3,126
   11e74:	003f4c06 	br	11ba8 <_gp+0xffff21bc>
   11e78:	98800117 	ldw	r2,4(r19)
   11e7c:	003fa006 	br	11d00 <_gp+0xffff2314>
   11e80:	8808d0fa 	srli	r4,r17,3
   11e84:	20800044 	addi	r2,r4,1
   11e88:	1085883a 	add	r2,r2,r2
   11e8c:	003e9006 	br	118d0 <_gp+0xffff1ee4>

00011e90 <memchr>:
   11e90:	208000cc 	andi	r2,r4,3
   11e94:	280f883a 	mov	r7,r5
   11e98:	10003426 	beq	r2,zero,11f6c <memchr+0xdc>
   11e9c:	30bfffc4 	addi	r2,r6,-1
   11ea0:	30001a26 	beq	r6,zero,11f0c <memchr+0x7c>
   11ea4:	20c00003 	ldbu	r3,0(r4)
   11ea8:	29803fcc 	andi	r6,r5,255
   11eac:	30c0051e 	bne	r6,r3,11ec4 <memchr+0x34>
   11eb0:	00001806 	br	11f14 <memchr+0x84>
   11eb4:	10001526 	beq	r2,zero,11f0c <memchr+0x7c>
   11eb8:	20c00003 	ldbu	r3,0(r4)
   11ebc:	10bfffc4 	addi	r2,r2,-1
   11ec0:	30c01426 	beq	r6,r3,11f14 <memchr+0x84>
   11ec4:	21000044 	addi	r4,r4,1
   11ec8:	20c000cc 	andi	r3,r4,3
   11ecc:	183ff91e 	bne	r3,zero,11eb4 <_gp+0xffff24c8>
   11ed0:	020000c4 	movi	r8,3
   11ed4:	40801136 	bltu	r8,r2,11f1c <memchr+0x8c>
   11ed8:	10000c26 	beq	r2,zero,11f0c <memchr+0x7c>
   11edc:	20c00003 	ldbu	r3,0(r4)
   11ee0:	29403fcc 	andi	r5,r5,255
   11ee4:	28c00b26 	beq	r5,r3,11f14 <memchr+0x84>
   11ee8:	20c00044 	addi	r3,r4,1
   11eec:	39803fcc 	andi	r6,r7,255
   11ef0:	2089883a 	add	r4,r4,r2
   11ef4:	00000306 	br	11f04 <memchr+0x74>
   11ef8:	18c00044 	addi	r3,r3,1
   11efc:	197fffc3 	ldbu	r5,-1(r3)
   11f00:	31400526 	beq	r6,r5,11f18 <memchr+0x88>
   11f04:	1805883a 	mov	r2,r3
   11f08:	20fffb1e 	bne	r4,r3,11ef8 <_gp+0xffff250c>
   11f0c:	0005883a 	mov	r2,zero
   11f10:	f800283a 	ret
   11f14:	2005883a 	mov	r2,r4
   11f18:	f800283a 	ret
   11f1c:	28c03fcc 	andi	r3,r5,255
   11f20:	1812923a 	slli	r9,r3,8
   11f24:	02ffbff4 	movhi	r11,65279
   11f28:	02a02074 	movhi	r10,32897
   11f2c:	48d2b03a 	or	r9,r9,r3
   11f30:	4806943a 	slli	r3,r9,16
   11f34:	5affbfc4 	addi	r11,r11,-257
   11f38:	52a02004 	addi	r10,r10,-32640
   11f3c:	48d2b03a 	or	r9,r9,r3
   11f40:	20c00017 	ldw	r3,0(r4)
   11f44:	48c6f03a 	xor	r3,r9,r3
   11f48:	1acd883a 	add	r6,r3,r11
   11f4c:	00c6303a 	nor	r3,zero,r3
   11f50:	30c6703a 	and	r3,r6,r3
   11f54:	1a86703a 	and	r3,r3,r10
   11f58:	183fe01e 	bne	r3,zero,11edc <_gp+0xffff24f0>
   11f5c:	10bfff04 	addi	r2,r2,-4
   11f60:	21000104 	addi	r4,r4,4
   11f64:	40bff636 	bltu	r8,r2,11f40 <_gp+0xffff2554>
   11f68:	003fdb06 	br	11ed8 <_gp+0xffff24ec>
   11f6c:	3005883a 	mov	r2,r6
   11f70:	003fd706 	br	11ed0 <_gp+0xffff24e4>

00011f74 <memcpy>:
   11f74:	defffd04 	addi	sp,sp,-12
   11f78:	dfc00215 	stw	ra,8(sp)
   11f7c:	dc400115 	stw	r17,4(sp)
   11f80:	dc000015 	stw	r16,0(sp)
   11f84:	00c003c4 	movi	r3,15
   11f88:	2005883a 	mov	r2,r4
   11f8c:	1980452e 	bgeu	r3,r6,120a4 <memcpy+0x130>
   11f90:	2906b03a 	or	r3,r5,r4
   11f94:	18c000cc 	andi	r3,r3,3
   11f98:	1800441e 	bne	r3,zero,120ac <memcpy+0x138>
   11f9c:	347ffc04 	addi	r17,r6,-16
   11fa0:	8822d13a 	srli	r17,r17,4
   11fa4:	28c00104 	addi	r3,r5,4
   11fa8:	23400104 	addi	r13,r4,4
   11fac:	8820913a 	slli	r16,r17,4
   11fb0:	2b000204 	addi	r12,r5,8
   11fb4:	22c00204 	addi	r11,r4,8
   11fb8:	84000504 	addi	r16,r16,20
   11fbc:	2a800304 	addi	r10,r5,12
   11fc0:	22400304 	addi	r9,r4,12
   11fc4:	2c21883a 	add	r16,r5,r16
   11fc8:	2811883a 	mov	r8,r5
   11fcc:	200f883a 	mov	r7,r4
   11fd0:	41000017 	ldw	r4,0(r8)
   11fd4:	1fc00017 	ldw	ra,0(r3)
   11fd8:	63c00017 	ldw	r15,0(r12)
   11fdc:	39000015 	stw	r4,0(r7)
   11fe0:	53800017 	ldw	r14,0(r10)
   11fe4:	6fc00015 	stw	ra,0(r13)
   11fe8:	5bc00015 	stw	r15,0(r11)
   11fec:	4b800015 	stw	r14,0(r9)
   11ff0:	18c00404 	addi	r3,r3,16
   11ff4:	39c00404 	addi	r7,r7,16
   11ff8:	42000404 	addi	r8,r8,16
   11ffc:	6b400404 	addi	r13,r13,16
   12000:	63000404 	addi	r12,r12,16
   12004:	5ac00404 	addi	r11,r11,16
   12008:	52800404 	addi	r10,r10,16
   1200c:	4a400404 	addi	r9,r9,16
   12010:	1c3fef1e 	bne	r3,r16,11fd0 <_gp+0xffff25e4>
   12014:	89c00044 	addi	r7,r17,1
   12018:	380e913a 	slli	r7,r7,4
   1201c:	310003cc 	andi	r4,r6,15
   12020:	02c000c4 	movi	r11,3
   12024:	11c7883a 	add	r3,r2,r7
   12028:	29cb883a 	add	r5,r5,r7
   1202c:	5900212e 	bgeu	r11,r4,120b4 <memcpy+0x140>
   12030:	1813883a 	mov	r9,r3
   12034:	2811883a 	mov	r8,r5
   12038:	200f883a 	mov	r7,r4
   1203c:	42800017 	ldw	r10,0(r8)
   12040:	4a400104 	addi	r9,r9,4
   12044:	39ffff04 	addi	r7,r7,-4
   12048:	4abfff15 	stw	r10,-4(r9)
   1204c:	42000104 	addi	r8,r8,4
   12050:	59fffa36 	bltu	r11,r7,1203c <_gp+0xffff2650>
   12054:	213fff04 	addi	r4,r4,-4
   12058:	2008d0ba 	srli	r4,r4,2
   1205c:	318000cc 	andi	r6,r6,3
   12060:	21000044 	addi	r4,r4,1
   12064:	2109883a 	add	r4,r4,r4
   12068:	2109883a 	add	r4,r4,r4
   1206c:	1907883a 	add	r3,r3,r4
   12070:	290b883a 	add	r5,r5,r4
   12074:	30000626 	beq	r6,zero,12090 <memcpy+0x11c>
   12078:	198d883a 	add	r6,r3,r6
   1207c:	29c00003 	ldbu	r7,0(r5)
   12080:	18c00044 	addi	r3,r3,1
   12084:	29400044 	addi	r5,r5,1
   12088:	19ffffc5 	stb	r7,-1(r3)
   1208c:	19bffb1e 	bne	r3,r6,1207c <_gp+0xffff2690>
   12090:	dfc00217 	ldw	ra,8(sp)
   12094:	dc400117 	ldw	r17,4(sp)
   12098:	dc000017 	ldw	r16,0(sp)
   1209c:	dec00304 	addi	sp,sp,12
   120a0:	f800283a 	ret
   120a4:	2007883a 	mov	r3,r4
   120a8:	003ff206 	br	12074 <_gp+0xffff2688>
   120ac:	2007883a 	mov	r3,r4
   120b0:	003ff106 	br	12078 <_gp+0xffff268c>
   120b4:	200d883a 	mov	r6,r4
   120b8:	003fee06 	br	12074 <_gp+0xffff2688>

000120bc <memmove>:
   120bc:	2005883a 	mov	r2,r4
   120c0:	29000b2e 	bgeu	r5,r4,120f0 <memmove+0x34>
   120c4:	298f883a 	add	r7,r5,r6
   120c8:	21c0092e 	bgeu	r4,r7,120f0 <memmove+0x34>
   120cc:	2187883a 	add	r3,r4,r6
   120d0:	198bc83a 	sub	r5,r3,r6
   120d4:	30004826 	beq	r6,zero,121f8 <memmove+0x13c>
   120d8:	39ffffc4 	addi	r7,r7,-1
   120dc:	39000003 	ldbu	r4,0(r7)
   120e0:	18ffffc4 	addi	r3,r3,-1
   120e4:	19000005 	stb	r4,0(r3)
   120e8:	28fffb1e 	bne	r5,r3,120d8 <_gp+0xffff26ec>
   120ec:	f800283a 	ret
   120f0:	00c003c4 	movi	r3,15
   120f4:	1980412e 	bgeu	r3,r6,121fc <memmove+0x140>
   120f8:	2886b03a 	or	r3,r5,r2
   120fc:	18c000cc 	andi	r3,r3,3
   12100:	1800401e 	bne	r3,zero,12204 <memmove+0x148>
   12104:	33fffc04 	addi	r15,r6,-16
   12108:	781ed13a 	srli	r15,r15,4
   1210c:	28c00104 	addi	r3,r5,4
   12110:	13400104 	addi	r13,r2,4
   12114:	781c913a 	slli	r14,r15,4
   12118:	2b000204 	addi	r12,r5,8
   1211c:	12c00204 	addi	r11,r2,8
   12120:	73800504 	addi	r14,r14,20
   12124:	2a800304 	addi	r10,r5,12
   12128:	12400304 	addi	r9,r2,12
   1212c:	2b9d883a 	add	r14,r5,r14
   12130:	2811883a 	mov	r8,r5
   12134:	100f883a 	mov	r7,r2
   12138:	41000017 	ldw	r4,0(r8)
   1213c:	39c00404 	addi	r7,r7,16
   12140:	18c00404 	addi	r3,r3,16
   12144:	393ffc15 	stw	r4,-16(r7)
   12148:	193ffc17 	ldw	r4,-16(r3)
   1214c:	6b400404 	addi	r13,r13,16
   12150:	5ac00404 	addi	r11,r11,16
   12154:	693ffc15 	stw	r4,-16(r13)
   12158:	61000017 	ldw	r4,0(r12)
   1215c:	4a400404 	addi	r9,r9,16
   12160:	42000404 	addi	r8,r8,16
   12164:	593ffc15 	stw	r4,-16(r11)
   12168:	51000017 	ldw	r4,0(r10)
   1216c:	63000404 	addi	r12,r12,16
   12170:	52800404 	addi	r10,r10,16
   12174:	493ffc15 	stw	r4,-16(r9)
   12178:	1bbfef1e 	bne	r3,r14,12138 <_gp+0xffff274c>
   1217c:	79000044 	addi	r4,r15,1
   12180:	2008913a 	slli	r4,r4,4
   12184:	328003cc 	andi	r10,r6,15
   12188:	02c000c4 	movi	r11,3
   1218c:	1107883a 	add	r3,r2,r4
   12190:	290b883a 	add	r5,r5,r4
   12194:	5a801e2e 	bgeu	r11,r10,12210 <memmove+0x154>
   12198:	1813883a 	mov	r9,r3
   1219c:	2811883a 	mov	r8,r5
   121a0:	500f883a 	mov	r7,r10
   121a4:	41000017 	ldw	r4,0(r8)
   121a8:	4a400104 	addi	r9,r9,4
   121ac:	39ffff04 	addi	r7,r7,-4
   121b0:	493fff15 	stw	r4,-4(r9)
   121b4:	42000104 	addi	r8,r8,4
   121b8:	59fffa36 	bltu	r11,r7,121a4 <_gp+0xffff27b8>
   121bc:	513fff04 	addi	r4,r10,-4
   121c0:	2008d0ba 	srli	r4,r4,2
   121c4:	318000cc 	andi	r6,r6,3
   121c8:	21000044 	addi	r4,r4,1
   121cc:	2109883a 	add	r4,r4,r4
   121d0:	2109883a 	add	r4,r4,r4
   121d4:	1907883a 	add	r3,r3,r4
   121d8:	290b883a 	add	r5,r5,r4
   121dc:	30000b26 	beq	r6,zero,1220c <memmove+0x150>
   121e0:	198d883a 	add	r6,r3,r6
   121e4:	29c00003 	ldbu	r7,0(r5)
   121e8:	18c00044 	addi	r3,r3,1
   121ec:	29400044 	addi	r5,r5,1
   121f0:	19ffffc5 	stb	r7,-1(r3)
   121f4:	19bffb1e 	bne	r3,r6,121e4 <_gp+0xffff27f8>
   121f8:	f800283a 	ret
   121fc:	1007883a 	mov	r3,r2
   12200:	003ff606 	br	121dc <_gp+0xffff27f0>
   12204:	1007883a 	mov	r3,r2
   12208:	003ff506 	br	121e0 <_gp+0xffff27f4>
   1220c:	f800283a 	ret
   12210:	500d883a 	mov	r6,r10
   12214:	003ff106 	br	121dc <_gp+0xffff27f0>

00012218 <memset>:
   12218:	20c000cc 	andi	r3,r4,3
   1221c:	2005883a 	mov	r2,r4
   12220:	18004426 	beq	r3,zero,12334 <memset+0x11c>
   12224:	31ffffc4 	addi	r7,r6,-1
   12228:	30004026 	beq	r6,zero,1232c <memset+0x114>
   1222c:	2813883a 	mov	r9,r5
   12230:	200d883a 	mov	r6,r4
   12234:	2007883a 	mov	r3,r4
   12238:	00000406 	br	1224c <memset+0x34>
   1223c:	3a3fffc4 	addi	r8,r7,-1
   12240:	31800044 	addi	r6,r6,1
   12244:	38003926 	beq	r7,zero,1232c <memset+0x114>
   12248:	400f883a 	mov	r7,r8
   1224c:	18c00044 	addi	r3,r3,1
   12250:	32400005 	stb	r9,0(r6)
   12254:	1a0000cc 	andi	r8,r3,3
   12258:	403ff81e 	bne	r8,zero,1223c <_gp+0xffff2850>
   1225c:	010000c4 	movi	r4,3
   12260:	21c02d2e 	bgeu	r4,r7,12318 <memset+0x100>
   12264:	29003fcc 	andi	r4,r5,255
   12268:	200c923a 	slli	r6,r4,8
   1226c:	3108b03a 	or	r4,r6,r4
   12270:	200c943a 	slli	r6,r4,16
   12274:	218cb03a 	or	r6,r4,r6
   12278:	010003c4 	movi	r4,15
   1227c:	21c0182e 	bgeu	r4,r7,122e0 <memset+0xc8>
   12280:	3b3ffc04 	addi	r12,r7,-16
   12284:	6018d13a 	srli	r12,r12,4
   12288:	1a000104 	addi	r8,r3,4
   1228c:	1ac00204 	addi	r11,r3,8
   12290:	6008913a 	slli	r4,r12,4
   12294:	1a800304 	addi	r10,r3,12
   12298:	1813883a 	mov	r9,r3
   1229c:	21000504 	addi	r4,r4,20
   122a0:	1909883a 	add	r4,r3,r4
   122a4:	49800015 	stw	r6,0(r9)
   122a8:	41800015 	stw	r6,0(r8)
   122ac:	59800015 	stw	r6,0(r11)
   122b0:	51800015 	stw	r6,0(r10)
   122b4:	42000404 	addi	r8,r8,16
   122b8:	4a400404 	addi	r9,r9,16
   122bc:	5ac00404 	addi	r11,r11,16
   122c0:	52800404 	addi	r10,r10,16
   122c4:	413ff71e 	bne	r8,r4,122a4 <_gp+0xffff28b8>
   122c8:	63000044 	addi	r12,r12,1
   122cc:	6018913a 	slli	r12,r12,4
   122d0:	39c003cc 	andi	r7,r7,15
   122d4:	010000c4 	movi	r4,3
   122d8:	1b07883a 	add	r3,r3,r12
   122dc:	21c00e2e 	bgeu	r4,r7,12318 <memset+0x100>
   122e0:	1813883a 	mov	r9,r3
   122e4:	3811883a 	mov	r8,r7
   122e8:	010000c4 	movi	r4,3
   122ec:	49800015 	stw	r6,0(r9)
   122f0:	423fff04 	addi	r8,r8,-4
   122f4:	4a400104 	addi	r9,r9,4
   122f8:	223ffc36 	bltu	r4,r8,122ec <_gp+0xffff2900>
   122fc:	393fff04 	addi	r4,r7,-4
   12300:	2008d0ba 	srli	r4,r4,2
   12304:	39c000cc 	andi	r7,r7,3
   12308:	21000044 	addi	r4,r4,1
   1230c:	2109883a 	add	r4,r4,r4
   12310:	2109883a 	add	r4,r4,r4
   12314:	1907883a 	add	r3,r3,r4
   12318:	38000526 	beq	r7,zero,12330 <memset+0x118>
   1231c:	19cf883a 	add	r7,r3,r7
   12320:	19400005 	stb	r5,0(r3)
   12324:	18c00044 	addi	r3,r3,1
   12328:	38fffd1e 	bne	r7,r3,12320 <_gp+0xffff2934>
   1232c:	f800283a 	ret
   12330:	f800283a 	ret
   12334:	2007883a 	mov	r3,r4
   12338:	300f883a 	mov	r7,r6
   1233c:	003fc706 	br	1225c <_gp+0xffff2870>

00012340 <_realloc_r>:
   12340:	defff604 	addi	sp,sp,-40
   12344:	dc800215 	stw	r18,8(sp)
   12348:	dfc00915 	stw	ra,36(sp)
   1234c:	df000815 	stw	fp,32(sp)
   12350:	ddc00715 	stw	r23,28(sp)
   12354:	dd800615 	stw	r22,24(sp)
   12358:	dd400515 	stw	r21,20(sp)
   1235c:	dd000415 	stw	r20,16(sp)
   12360:	dcc00315 	stw	r19,12(sp)
   12364:	dc400115 	stw	r17,4(sp)
   12368:	dc000015 	stw	r16,0(sp)
   1236c:	3025883a 	mov	r18,r6
   12370:	2800b726 	beq	r5,zero,12650 <_realloc_r+0x310>
   12374:	282b883a 	mov	r21,r5
   12378:	2029883a 	mov	r20,r4
   1237c:	0013f640 	call	13f64 <__malloc_lock>
   12380:	a8bfff17 	ldw	r2,-4(r21)
   12384:	043fff04 	movi	r16,-4
   12388:	90c002c4 	addi	r3,r18,11
   1238c:	01000584 	movi	r4,22
   12390:	acfffe04 	addi	r19,r21,-8
   12394:	1420703a 	and	r16,r2,r16
   12398:	20c0332e 	bgeu	r4,r3,12468 <_realloc_r+0x128>
   1239c:	047ffe04 	movi	r17,-8
   123a0:	1c62703a 	and	r17,r3,r17
   123a4:	8807883a 	mov	r3,r17
   123a8:	88005816 	blt	r17,zero,1250c <_realloc_r+0x1cc>
   123ac:	8c805736 	bltu	r17,r18,1250c <_realloc_r+0x1cc>
   123b0:	80c0300e 	bge	r16,r3,12474 <_realloc_r+0x134>
   123b4:	07000074 	movhi	fp,1
   123b8:	e718f704 	addi	fp,fp,25564
   123bc:	e1c00217 	ldw	r7,8(fp)
   123c0:	9c09883a 	add	r4,r19,r16
   123c4:	22000117 	ldw	r8,4(r4)
   123c8:	21c06326 	beq	r4,r7,12558 <_realloc_r+0x218>
   123cc:	017fff84 	movi	r5,-2
   123d0:	414a703a 	and	r5,r8,r5
   123d4:	214b883a 	add	r5,r4,r5
   123d8:	29800117 	ldw	r6,4(r5)
   123dc:	3180004c 	andi	r6,r6,1
   123e0:	30003f26 	beq	r6,zero,124e0 <_realloc_r+0x1a0>
   123e4:	1080004c 	andi	r2,r2,1
   123e8:	10008326 	beq	r2,zero,125f8 <_realloc_r+0x2b8>
   123ec:	900b883a 	mov	r5,r18
   123f0:	a009883a 	mov	r4,r20
   123f4:	00116840 	call	11684 <_malloc_r>
   123f8:	1025883a 	mov	r18,r2
   123fc:	10011e26 	beq	r2,zero,12878 <_realloc_r+0x538>
   12400:	a93fff17 	ldw	r4,-4(r21)
   12404:	10fffe04 	addi	r3,r2,-8
   12408:	00bfff84 	movi	r2,-2
   1240c:	2084703a 	and	r2,r4,r2
   12410:	9885883a 	add	r2,r19,r2
   12414:	1880ee26 	beq	r3,r2,127d0 <_realloc_r+0x490>
   12418:	81bfff04 	addi	r6,r16,-4
   1241c:	00800904 	movi	r2,36
   12420:	1180b836 	bltu	r2,r6,12704 <_realloc_r+0x3c4>
   12424:	00c004c4 	movi	r3,19
   12428:	19809636 	bltu	r3,r6,12684 <_realloc_r+0x344>
   1242c:	9005883a 	mov	r2,r18
   12430:	a807883a 	mov	r3,r21
   12434:	19000017 	ldw	r4,0(r3)
   12438:	11000015 	stw	r4,0(r2)
   1243c:	19000117 	ldw	r4,4(r3)
   12440:	11000115 	stw	r4,4(r2)
   12444:	18c00217 	ldw	r3,8(r3)
   12448:	10c00215 	stw	r3,8(r2)
   1244c:	a80b883a 	mov	r5,r21
   12450:	a009883a 	mov	r4,r20
   12454:	001310c0 	call	1310c <_free_r>
   12458:	a009883a 	mov	r4,r20
   1245c:	0013f880 	call	13f88 <__malloc_unlock>
   12460:	9005883a 	mov	r2,r18
   12464:	00001206 	br	124b0 <_realloc_r+0x170>
   12468:	00c00404 	movi	r3,16
   1246c:	1823883a 	mov	r17,r3
   12470:	003fce06 	br	123ac <_gp+0xffff29c0>
   12474:	a825883a 	mov	r18,r21
   12478:	8445c83a 	sub	r2,r16,r17
   1247c:	00c003c4 	movi	r3,15
   12480:	18802636 	bltu	r3,r2,1251c <_realloc_r+0x1dc>
   12484:	99800117 	ldw	r6,4(r19)
   12488:	9c07883a 	add	r3,r19,r16
   1248c:	3180004c 	andi	r6,r6,1
   12490:	3420b03a 	or	r16,r6,r16
   12494:	9c000115 	stw	r16,4(r19)
   12498:	18800117 	ldw	r2,4(r3)
   1249c:	10800054 	ori	r2,r2,1
   124a0:	18800115 	stw	r2,4(r3)
   124a4:	a009883a 	mov	r4,r20
   124a8:	0013f880 	call	13f88 <__malloc_unlock>
   124ac:	9005883a 	mov	r2,r18
   124b0:	dfc00917 	ldw	ra,36(sp)
   124b4:	df000817 	ldw	fp,32(sp)
   124b8:	ddc00717 	ldw	r23,28(sp)
   124bc:	dd800617 	ldw	r22,24(sp)
   124c0:	dd400517 	ldw	r21,20(sp)
   124c4:	dd000417 	ldw	r20,16(sp)
   124c8:	dcc00317 	ldw	r19,12(sp)
   124cc:	dc800217 	ldw	r18,8(sp)
   124d0:	dc400117 	ldw	r17,4(sp)
   124d4:	dc000017 	ldw	r16,0(sp)
   124d8:	dec00a04 	addi	sp,sp,40
   124dc:	f800283a 	ret
   124e0:	017fff04 	movi	r5,-4
   124e4:	414a703a 	and	r5,r8,r5
   124e8:	814d883a 	add	r6,r16,r5
   124ec:	30c01f16 	blt	r6,r3,1256c <_realloc_r+0x22c>
   124f0:	20800317 	ldw	r2,12(r4)
   124f4:	20c00217 	ldw	r3,8(r4)
   124f8:	a825883a 	mov	r18,r21
   124fc:	3021883a 	mov	r16,r6
   12500:	18800315 	stw	r2,12(r3)
   12504:	10c00215 	stw	r3,8(r2)
   12508:	003fdb06 	br	12478 <_gp+0xffff2a8c>
   1250c:	00800304 	movi	r2,12
   12510:	a0800015 	stw	r2,0(r20)
   12514:	0005883a 	mov	r2,zero
   12518:	003fe506 	br	124b0 <_gp+0xffff2ac4>
   1251c:	98c00117 	ldw	r3,4(r19)
   12520:	9c4b883a 	add	r5,r19,r17
   12524:	11000054 	ori	r4,r2,1
   12528:	18c0004c 	andi	r3,r3,1
   1252c:	1c62b03a 	or	r17,r3,r17
   12530:	9c400115 	stw	r17,4(r19)
   12534:	29000115 	stw	r4,4(r5)
   12538:	2885883a 	add	r2,r5,r2
   1253c:	10c00117 	ldw	r3,4(r2)
   12540:	29400204 	addi	r5,r5,8
   12544:	a009883a 	mov	r4,r20
   12548:	18c00054 	ori	r3,r3,1
   1254c:	10c00115 	stw	r3,4(r2)
   12550:	001310c0 	call	1310c <_free_r>
   12554:	003fd306 	br	124a4 <_gp+0xffff2ab8>
   12558:	017fff04 	movi	r5,-4
   1255c:	414a703a 	and	r5,r8,r5
   12560:	89800404 	addi	r6,r17,16
   12564:	8151883a 	add	r8,r16,r5
   12568:	4180590e 	bge	r8,r6,126d0 <_realloc_r+0x390>
   1256c:	1080004c 	andi	r2,r2,1
   12570:	103f9e1e 	bne	r2,zero,123ec <_gp+0xffff2a00>
   12574:	adbffe17 	ldw	r22,-8(r21)
   12578:	00bfff04 	movi	r2,-4
   1257c:	9dadc83a 	sub	r22,r19,r22
   12580:	b1800117 	ldw	r6,4(r22)
   12584:	3084703a 	and	r2,r6,r2
   12588:	20002026 	beq	r4,zero,1260c <_realloc_r+0x2cc>
   1258c:	80af883a 	add	r23,r16,r2
   12590:	b96f883a 	add	r23,r23,r5
   12594:	21c05f26 	beq	r4,r7,12714 <_realloc_r+0x3d4>
   12598:	b8c01c16 	blt	r23,r3,1260c <_realloc_r+0x2cc>
   1259c:	20800317 	ldw	r2,12(r4)
   125a0:	20c00217 	ldw	r3,8(r4)
   125a4:	81bfff04 	addi	r6,r16,-4
   125a8:	01000904 	movi	r4,36
   125ac:	18800315 	stw	r2,12(r3)
   125b0:	10c00215 	stw	r3,8(r2)
   125b4:	b0c00217 	ldw	r3,8(r22)
   125b8:	b0800317 	ldw	r2,12(r22)
   125bc:	b4800204 	addi	r18,r22,8
   125c0:	18800315 	stw	r2,12(r3)
   125c4:	10c00215 	stw	r3,8(r2)
   125c8:	21801b36 	bltu	r4,r6,12638 <_realloc_r+0x2f8>
   125cc:	008004c4 	movi	r2,19
   125d0:	1180352e 	bgeu	r2,r6,126a8 <_realloc_r+0x368>
   125d4:	a8800017 	ldw	r2,0(r21)
   125d8:	b0800215 	stw	r2,8(r22)
   125dc:	a8800117 	ldw	r2,4(r21)
   125e0:	b0800315 	stw	r2,12(r22)
   125e4:	008006c4 	movi	r2,27
   125e8:	11807f36 	bltu	r2,r6,127e8 <_realloc_r+0x4a8>
   125ec:	b0800404 	addi	r2,r22,16
   125f0:	ad400204 	addi	r21,r21,8
   125f4:	00002d06 	br	126ac <_realloc_r+0x36c>
   125f8:	adbffe17 	ldw	r22,-8(r21)
   125fc:	00bfff04 	movi	r2,-4
   12600:	9dadc83a 	sub	r22,r19,r22
   12604:	b1000117 	ldw	r4,4(r22)
   12608:	2084703a 	and	r2,r4,r2
   1260c:	b03f7726 	beq	r22,zero,123ec <_gp+0xffff2a00>
   12610:	80af883a 	add	r23,r16,r2
   12614:	b8ff7516 	blt	r23,r3,123ec <_gp+0xffff2a00>
   12618:	b0800317 	ldw	r2,12(r22)
   1261c:	b0c00217 	ldw	r3,8(r22)
   12620:	81bfff04 	addi	r6,r16,-4
   12624:	01000904 	movi	r4,36
   12628:	18800315 	stw	r2,12(r3)
   1262c:	10c00215 	stw	r3,8(r2)
   12630:	b4800204 	addi	r18,r22,8
   12634:	21bfe52e 	bgeu	r4,r6,125cc <_gp+0xffff2be0>
   12638:	a80b883a 	mov	r5,r21
   1263c:	9009883a 	mov	r4,r18
   12640:	00120bc0 	call	120bc <memmove>
   12644:	b821883a 	mov	r16,r23
   12648:	b027883a 	mov	r19,r22
   1264c:	003f8a06 	br	12478 <_gp+0xffff2a8c>
   12650:	300b883a 	mov	r5,r6
   12654:	dfc00917 	ldw	ra,36(sp)
   12658:	df000817 	ldw	fp,32(sp)
   1265c:	ddc00717 	ldw	r23,28(sp)
   12660:	dd800617 	ldw	r22,24(sp)
   12664:	dd400517 	ldw	r21,20(sp)
   12668:	dd000417 	ldw	r20,16(sp)
   1266c:	dcc00317 	ldw	r19,12(sp)
   12670:	dc800217 	ldw	r18,8(sp)
   12674:	dc400117 	ldw	r17,4(sp)
   12678:	dc000017 	ldw	r16,0(sp)
   1267c:	dec00a04 	addi	sp,sp,40
   12680:	00116841 	jmpi	11684 <_malloc_r>
   12684:	a8c00017 	ldw	r3,0(r21)
   12688:	90c00015 	stw	r3,0(r18)
   1268c:	a8c00117 	ldw	r3,4(r21)
   12690:	90c00115 	stw	r3,4(r18)
   12694:	00c006c4 	movi	r3,27
   12698:	19804536 	bltu	r3,r6,127b0 <_realloc_r+0x470>
   1269c:	90800204 	addi	r2,r18,8
   126a0:	a8c00204 	addi	r3,r21,8
   126a4:	003f6306 	br	12434 <_gp+0xffff2a48>
   126a8:	9005883a 	mov	r2,r18
   126ac:	a8c00017 	ldw	r3,0(r21)
   126b0:	b821883a 	mov	r16,r23
   126b4:	b027883a 	mov	r19,r22
   126b8:	10c00015 	stw	r3,0(r2)
   126bc:	a8c00117 	ldw	r3,4(r21)
   126c0:	10c00115 	stw	r3,4(r2)
   126c4:	a8c00217 	ldw	r3,8(r21)
   126c8:	10c00215 	stw	r3,8(r2)
   126cc:	003f6a06 	br	12478 <_gp+0xffff2a8c>
   126d0:	9c67883a 	add	r19,r19,r17
   126d4:	4445c83a 	sub	r2,r8,r17
   126d8:	e4c00215 	stw	r19,8(fp)
   126dc:	10800054 	ori	r2,r2,1
   126e0:	98800115 	stw	r2,4(r19)
   126e4:	a8bfff17 	ldw	r2,-4(r21)
   126e8:	a009883a 	mov	r4,r20
   126ec:	1080004c 	andi	r2,r2,1
   126f0:	1462b03a 	or	r17,r2,r17
   126f4:	ac7fff15 	stw	r17,-4(r21)
   126f8:	0013f880 	call	13f88 <__malloc_unlock>
   126fc:	a805883a 	mov	r2,r21
   12700:	003f6b06 	br	124b0 <_gp+0xffff2ac4>
   12704:	a80b883a 	mov	r5,r21
   12708:	9009883a 	mov	r4,r18
   1270c:	00120bc0 	call	120bc <memmove>
   12710:	003f4e06 	br	1244c <_gp+0xffff2a60>
   12714:	89000404 	addi	r4,r17,16
   12718:	b93fbc16 	blt	r23,r4,1260c <_gp+0xffff2c20>
   1271c:	b0800317 	ldw	r2,12(r22)
   12720:	b0c00217 	ldw	r3,8(r22)
   12724:	81bfff04 	addi	r6,r16,-4
   12728:	01000904 	movi	r4,36
   1272c:	18800315 	stw	r2,12(r3)
   12730:	10c00215 	stw	r3,8(r2)
   12734:	b4800204 	addi	r18,r22,8
   12738:	21804336 	bltu	r4,r6,12848 <_realloc_r+0x508>
   1273c:	008004c4 	movi	r2,19
   12740:	11803f2e 	bgeu	r2,r6,12840 <_realloc_r+0x500>
   12744:	a8800017 	ldw	r2,0(r21)
   12748:	b0800215 	stw	r2,8(r22)
   1274c:	a8800117 	ldw	r2,4(r21)
   12750:	b0800315 	stw	r2,12(r22)
   12754:	008006c4 	movi	r2,27
   12758:	11803f36 	bltu	r2,r6,12858 <_realloc_r+0x518>
   1275c:	b0800404 	addi	r2,r22,16
   12760:	ad400204 	addi	r21,r21,8
   12764:	a8c00017 	ldw	r3,0(r21)
   12768:	10c00015 	stw	r3,0(r2)
   1276c:	a8c00117 	ldw	r3,4(r21)
   12770:	10c00115 	stw	r3,4(r2)
   12774:	a8c00217 	ldw	r3,8(r21)
   12778:	10c00215 	stw	r3,8(r2)
   1277c:	b447883a 	add	r3,r22,r17
   12780:	bc45c83a 	sub	r2,r23,r17
   12784:	e0c00215 	stw	r3,8(fp)
   12788:	10800054 	ori	r2,r2,1
   1278c:	18800115 	stw	r2,4(r3)
   12790:	b0800117 	ldw	r2,4(r22)
   12794:	a009883a 	mov	r4,r20
   12798:	1080004c 	andi	r2,r2,1
   1279c:	1462b03a 	or	r17,r2,r17
   127a0:	b4400115 	stw	r17,4(r22)
   127a4:	0013f880 	call	13f88 <__malloc_unlock>
   127a8:	9005883a 	mov	r2,r18
   127ac:	003f4006 	br	124b0 <_gp+0xffff2ac4>
   127b0:	a8c00217 	ldw	r3,8(r21)
   127b4:	90c00215 	stw	r3,8(r18)
   127b8:	a8c00317 	ldw	r3,12(r21)
   127bc:	90c00315 	stw	r3,12(r18)
   127c0:	30801126 	beq	r6,r2,12808 <_realloc_r+0x4c8>
   127c4:	90800404 	addi	r2,r18,16
   127c8:	a8c00404 	addi	r3,r21,16
   127cc:	003f1906 	br	12434 <_gp+0xffff2a48>
   127d0:	90ffff17 	ldw	r3,-4(r18)
   127d4:	00bfff04 	movi	r2,-4
   127d8:	a825883a 	mov	r18,r21
   127dc:	1884703a 	and	r2,r3,r2
   127e0:	80a1883a 	add	r16,r16,r2
   127e4:	003f2406 	br	12478 <_gp+0xffff2a8c>
   127e8:	a8800217 	ldw	r2,8(r21)
   127ec:	b0800415 	stw	r2,16(r22)
   127f0:	a8800317 	ldw	r2,12(r21)
   127f4:	b0800515 	stw	r2,20(r22)
   127f8:	31000a26 	beq	r6,r4,12824 <_realloc_r+0x4e4>
   127fc:	b0800604 	addi	r2,r22,24
   12800:	ad400404 	addi	r21,r21,16
   12804:	003fa906 	br	126ac <_gp+0xffff2cc0>
   12808:	a9000417 	ldw	r4,16(r21)
   1280c:	90800604 	addi	r2,r18,24
   12810:	a8c00604 	addi	r3,r21,24
   12814:	91000415 	stw	r4,16(r18)
   12818:	a9000517 	ldw	r4,20(r21)
   1281c:	91000515 	stw	r4,20(r18)
   12820:	003f0406 	br	12434 <_gp+0xffff2a48>
   12824:	a8c00417 	ldw	r3,16(r21)
   12828:	ad400604 	addi	r21,r21,24
   1282c:	b0800804 	addi	r2,r22,32
   12830:	b0c00615 	stw	r3,24(r22)
   12834:	a8ffff17 	ldw	r3,-4(r21)
   12838:	b0c00715 	stw	r3,28(r22)
   1283c:	003f9b06 	br	126ac <_gp+0xffff2cc0>
   12840:	9005883a 	mov	r2,r18
   12844:	003fc706 	br	12764 <_gp+0xffff2d78>
   12848:	a80b883a 	mov	r5,r21
   1284c:	9009883a 	mov	r4,r18
   12850:	00120bc0 	call	120bc <memmove>
   12854:	003fc906 	br	1277c <_gp+0xffff2d90>
   12858:	a8800217 	ldw	r2,8(r21)
   1285c:	b0800415 	stw	r2,16(r22)
   12860:	a8800317 	ldw	r2,12(r21)
   12864:	b0800515 	stw	r2,20(r22)
   12868:	31000726 	beq	r6,r4,12888 <_realloc_r+0x548>
   1286c:	b0800604 	addi	r2,r22,24
   12870:	ad400404 	addi	r21,r21,16
   12874:	003fbb06 	br	12764 <_gp+0xffff2d78>
   12878:	a009883a 	mov	r4,r20
   1287c:	0013f880 	call	13f88 <__malloc_unlock>
   12880:	0005883a 	mov	r2,zero
   12884:	003f0a06 	br	124b0 <_gp+0xffff2ac4>
   12888:	a8c00417 	ldw	r3,16(r21)
   1288c:	ad400604 	addi	r21,r21,24
   12890:	b0800804 	addi	r2,r22,32
   12894:	b0c00615 	stw	r3,24(r22)
   12898:	a8ffff17 	ldw	r3,-4(r21)
   1289c:	b0c00715 	stw	r3,28(r22)
   128a0:	003fb006 	br	12764 <_gp+0xffff2d78>

000128a4 <_sbrk_r>:
   128a4:	defffd04 	addi	sp,sp,-12
   128a8:	dc000015 	stw	r16,0(sp)
   128ac:	040000b4 	movhi	r16,2
   128b0:	dc400115 	stw	r17,4(sp)
   128b4:	84253504 	addi	r16,r16,-27436
   128b8:	2023883a 	mov	r17,r4
   128bc:	2809883a 	mov	r4,r5
   128c0:	dfc00215 	stw	ra,8(sp)
   128c4:	80000015 	stw	zero,0(r16)
   128c8:	00141480 	call	14148 <sbrk>
   128cc:	00ffffc4 	movi	r3,-1
   128d0:	10c00526 	beq	r2,r3,128e8 <_sbrk_r+0x44>
   128d4:	dfc00217 	ldw	ra,8(sp)
   128d8:	dc400117 	ldw	r17,4(sp)
   128dc:	dc000017 	ldw	r16,0(sp)
   128e0:	dec00304 	addi	sp,sp,12
   128e4:	f800283a 	ret
   128e8:	80c00017 	ldw	r3,0(r16)
   128ec:	183ff926 	beq	r3,zero,128d4 <_gp+0xffff2ee8>
   128f0:	88c00015 	stw	r3,0(r17)
   128f4:	003ff706 	br	128d4 <_gp+0xffff2ee8>

000128f8 <__sread>:
   128f8:	defffe04 	addi	sp,sp,-8
   128fc:	dc000015 	stw	r16,0(sp)
   12900:	2821883a 	mov	r16,r5
   12904:	2940038f 	ldh	r5,14(r5)
   12908:	dfc00115 	stw	ra,4(sp)
   1290c:	00136380 	call	13638 <_read_r>
   12910:	10000716 	blt	r2,zero,12930 <__sread+0x38>
   12914:	80c01417 	ldw	r3,80(r16)
   12918:	1887883a 	add	r3,r3,r2
   1291c:	80c01415 	stw	r3,80(r16)
   12920:	dfc00117 	ldw	ra,4(sp)
   12924:	dc000017 	ldw	r16,0(sp)
   12928:	dec00204 	addi	sp,sp,8
   1292c:	f800283a 	ret
   12930:	80c0030b 	ldhu	r3,12(r16)
   12934:	18fbffcc 	andi	r3,r3,61439
   12938:	80c0030d 	sth	r3,12(r16)
   1293c:	dfc00117 	ldw	ra,4(sp)
   12940:	dc000017 	ldw	r16,0(sp)
   12944:	dec00204 	addi	sp,sp,8
   12948:	f800283a 	ret

0001294c <__seofread>:
   1294c:	0005883a 	mov	r2,zero
   12950:	f800283a 	ret

00012954 <__swrite>:
   12954:	2880030b 	ldhu	r2,12(r5)
   12958:	defffb04 	addi	sp,sp,-20
   1295c:	dcc00315 	stw	r19,12(sp)
   12960:	dc800215 	stw	r18,8(sp)
   12964:	dc400115 	stw	r17,4(sp)
   12968:	dc000015 	stw	r16,0(sp)
   1296c:	dfc00415 	stw	ra,16(sp)
   12970:	10c0400c 	andi	r3,r2,256
   12974:	2821883a 	mov	r16,r5
   12978:	2023883a 	mov	r17,r4
   1297c:	3025883a 	mov	r18,r6
   12980:	3827883a 	mov	r19,r7
   12984:	18000526 	beq	r3,zero,1299c <__swrite+0x48>
   12988:	2940038f 	ldh	r5,14(r5)
   1298c:	01c00084 	movi	r7,2
   12990:	000d883a 	mov	r6,zero
   12994:	001341c0 	call	1341c <_lseek_r>
   12998:	8080030b 	ldhu	r2,12(r16)
   1299c:	8140038f 	ldh	r5,14(r16)
   129a0:	10bbffcc 	andi	r2,r2,61439
   129a4:	980f883a 	mov	r7,r19
   129a8:	900d883a 	mov	r6,r18
   129ac:	8809883a 	mov	r4,r17
   129b0:	8080030d 	sth	r2,12(r16)
   129b4:	dfc00417 	ldw	ra,16(sp)
   129b8:	dcc00317 	ldw	r19,12(sp)
   129bc:	dc800217 	ldw	r18,8(sp)
   129c0:	dc400117 	ldw	r17,4(sp)
   129c4:	dc000017 	ldw	r16,0(sp)
   129c8:	dec00504 	addi	sp,sp,20
   129cc:	0012a341 	jmpi	12a34 <_write_r>

000129d0 <__sseek>:
   129d0:	defffe04 	addi	sp,sp,-8
   129d4:	dc000015 	stw	r16,0(sp)
   129d8:	2821883a 	mov	r16,r5
   129dc:	2940038f 	ldh	r5,14(r5)
   129e0:	dfc00115 	stw	ra,4(sp)
   129e4:	001341c0 	call	1341c <_lseek_r>
   129e8:	00ffffc4 	movi	r3,-1
   129ec:	10c00826 	beq	r2,r3,12a10 <__sseek+0x40>
   129f0:	80c0030b 	ldhu	r3,12(r16)
   129f4:	80801415 	stw	r2,80(r16)
   129f8:	18c40014 	ori	r3,r3,4096
   129fc:	80c0030d 	sth	r3,12(r16)
   12a00:	dfc00117 	ldw	ra,4(sp)
   12a04:	dc000017 	ldw	r16,0(sp)
   12a08:	dec00204 	addi	sp,sp,8
   12a0c:	f800283a 	ret
   12a10:	80c0030b 	ldhu	r3,12(r16)
   12a14:	18fbffcc 	andi	r3,r3,61439
   12a18:	80c0030d 	sth	r3,12(r16)
   12a1c:	dfc00117 	ldw	ra,4(sp)
   12a20:	dc000017 	ldw	r16,0(sp)
   12a24:	dec00204 	addi	sp,sp,8
   12a28:	f800283a 	ret

00012a2c <__sclose>:
   12a2c:	2940038f 	ldh	r5,14(r5)
   12a30:	0012be81 	jmpi	12be8 <_close_r>

00012a34 <_write_r>:
   12a34:	defffd04 	addi	sp,sp,-12
   12a38:	2805883a 	mov	r2,r5
   12a3c:	dc000015 	stw	r16,0(sp)
   12a40:	040000b4 	movhi	r16,2
   12a44:	dc400115 	stw	r17,4(sp)
   12a48:	300b883a 	mov	r5,r6
   12a4c:	84253504 	addi	r16,r16,-27436
   12a50:	2023883a 	mov	r17,r4
   12a54:	380d883a 	mov	r6,r7
   12a58:	1009883a 	mov	r4,r2
   12a5c:	dfc00215 	stw	ra,8(sp)
   12a60:	80000015 	stw	zero,0(r16)
   12a64:	00142340 	call	14234 <write>
   12a68:	00ffffc4 	movi	r3,-1
   12a6c:	10c00526 	beq	r2,r3,12a84 <_write_r+0x50>
   12a70:	dfc00217 	ldw	ra,8(sp)
   12a74:	dc400117 	ldw	r17,4(sp)
   12a78:	dc000017 	ldw	r16,0(sp)
   12a7c:	dec00304 	addi	sp,sp,12
   12a80:	f800283a 	ret
   12a84:	80c00017 	ldw	r3,0(r16)
   12a88:	183ff926 	beq	r3,zero,12a70 <_gp+0xffff3084>
   12a8c:	88c00015 	stw	r3,0(r17)
   12a90:	003ff706 	br	12a70 <_gp+0xffff3084>

00012a94 <__swsetup_r>:
   12a94:	00800074 	movhi	r2,1
   12a98:	defffd04 	addi	sp,sp,-12
   12a9c:	109e7d04 	addi	r2,r2,31220
   12aa0:	dc400115 	stw	r17,4(sp)
   12aa4:	2023883a 	mov	r17,r4
   12aa8:	11000017 	ldw	r4,0(r2)
   12aac:	dc000015 	stw	r16,0(sp)
   12ab0:	dfc00215 	stw	ra,8(sp)
   12ab4:	2821883a 	mov	r16,r5
   12ab8:	20000226 	beq	r4,zero,12ac4 <__swsetup_r+0x30>
   12abc:	20800e17 	ldw	r2,56(r4)
   12ac0:	10003126 	beq	r2,zero,12b88 <__swsetup_r+0xf4>
   12ac4:	8080030b 	ldhu	r2,12(r16)
   12ac8:	10c0020c 	andi	r3,r2,8
   12acc:	1009883a 	mov	r4,r2
   12ad0:	18000f26 	beq	r3,zero,12b10 <__swsetup_r+0x7c>
   12ad4:	80c00417 	ldw	r3,16(r16)
   12ad8:	18001526 	beq	r3,zero,12b30 <__swsetup_r+0x9c>
   12adc:	1100004c 	andi	r4,r2,1
   12ae0:	20001c1e 	bne	r4,zero,12b54 <__swsetup_r+0xc0>
   12ae4:	1080008c 	andi	r2,r2,2
   12ae8:	1000291e 	bne	r2,zero,12b90 <__swsetup_r+0xfc>
   12aec:	80800517 	ldw	r2,20(r16)
   12af0:	80800215 	stw	r2,8(r16)
   12af4:	18001c26 	beq	r3,zero,12b68 <__swsetup_r+0xd4>
   12af8:	0005883a 	mov	r2,zero
   12afc:	dfc00217 	ldw	ra,8(sp)
   12b00:	dc400117 	ldw	r17,4(sp)
   12b04:	dc000017 	ldw	r16,0(sp)
   12b08:	dec00304 	addi	sp,sp,12
   12b0c:	f800283a 	ret
   12b10:	2080040c 	andi	r2,r4,16
   12b14:	10002e26 	beq	r2,zero,12bd0 <__swsetup_r+0x13c>
   12b18:	2080010c 	andi	r2,r4,4
   12b1c:	10001e1e 	bne	r2,zero,12b98 <__swsetup_r+0x104>
   12b20:	80c00417 	ldw	r3,16(r16)
   12b24:	20800214 	ori	r2,r4,8
   12b28:	8080030d 	sth	r2,12(r16)
   12b2c:	183feb1e 	bne	r3,zero,12adc <_gp+0xffff30f0>
   12b30:	1100a00c 	andi	r4,r2,640
   12b34:	01408004 	movi	r5,512
   12b38:	217fe826 	beq	r4,r5,12adc <_gp+0xffff30f0>
   12b3c:	800b883a 	mov	r5,r16
   12b40:	8809883a 	mov	r4,r17
   12b44:	001347c0 	call	1347c <__smakebuf_r>
   12b48:	8080030b 	ldhu	r2,12(r16)
   12b4c:	80c00417 	ldw	r3,16(r16)
   12b50:	003fe206 	br	12adc <_gp+0xffff30f0>
   12b54:	80800517 	ldw	r2,20(r16)
   12b58:	80000215 	stw	zero,8(r16)
   12b5c:	0085c83a 	sub	r2,zero,r2
   12b60:	80800615 	stw	r2,24(r16)
   12b64:	183fe41e 	bne	r3,zero,12af8 <_gp+0xffff310c>
   12b68:	80c0030b 	ldhu	r3,12(r16)
   12b6c:	0005883a 	mov	r2,zero
   12b70:	1900200c 	andi	r4,r3,128
   12b74:	203fe126 	beq	r4,zero,12afc <_gp+0xffff3110>
   12b78:	18c01014 	ori	r3,r3,64
   12b7c:	80c0030d 	sth	r3,12(r16)
   12b80:	00bfffc4 	movi	r2,-1
   12b84:	003fdd06 	br	12afc <_gp+0xffff3110>
   12b88:	0010ff00 	call	10ff0 <__sinit>
   12b8c:	003fcd06 	br	12ac4 <_gp+0xffff30d8>
   12b90:	0005883a 	mov	r2,zero
   12b94:	003fd606 	br	12af0 <_gp+0xffff3104>
   12b98:	81400c17 	ldw	r5,48(r16)
   12b9c:	28000626 	beq	r5,zero,12bb8 <__swsetup_r+0x124>
   12ba0:	80801004 	addi	r2,r16,64
   12ba4:	28800326 	beq	r5,r2,12bb4 <__swsetup_r+0x120>
   12ba8:	8809883a 	mov	r4,r17
   12bac:	001310c0 	call	1310c <_free_r>
   12bb0:	8100030b 	ldhu	r4,12(r16)
   12bb4:	80000c15 	stw	zero,48(r16)
   12bb8:	80c00417 	ldw	r3,16(r16)
   12bbc:	00bff6c4 	movi	r2,-37
   12bc0:	1108703a 	and	r4,r2,r4
   12bc4:	80000115 	stw	zero,4(r16)
   12bc8:	80c00015 	stw	r3,0(r16)
   12bcc:	003fd506 	br	12b24 <_gp+0xffff3138>
   12bd0:	00800244 	movi	r2,9
   12bd4:	88800015 	stw	r2,0(r17)
   12bd8:	20801014 	ori	r2,r4,64
   12bdc:	8080030d 	sth	r2,12(r16)
   12be0:	00bfffc4 	movi	r2,-1
   12be4:	003fc506 	br	12afc <_gp+0xffff3110>

00012be8 <_close_r>:
   12be8:	defffd04 	addi	sp,sp,-12
   12bec:	dc000015 	stw	r16,0(sp)
   12bf0:	040000b4 	movhi	r16,2
   12bf4:	dc400115 	stw	r17,4(sp)
   12bf8:	84253504 	addi	r16,r16,-27436
   12bfc:	2023883a 	mov	r17,r4
   12c00:	2809883a 	mov	r4,r5
   12c04:	dfc00215 	stw	ra,8(sp)
   12c08:	80000015 	stw	zero,0(r16)
   12c0c:	00137840 	call	13784 <close>
   12c10:	00ffffc4 	movi	r3,-1
   12c14:	10c00526 	beq	r2,r3,12c2c <_close_r+0x44>
   12c18:	dfc00217 	ldw	ra,8(sp)
   12c1c:	dc400117 	ldw	r17,4(sp)
   12c20:	dc000017 	ldw	r16,0(sp)
   12c24:	dec00304 	addi	sp,sp,12
   12c28:	f800283a 	ret
   12c2c:	80c00017 	ldw	r3,0(r16)
   12c30:	183ff926 	beq	r3,zero,12c18 <_gp+0xffff322c>
   12c34:	88c00015 	stw	r3,0(r17)
   12c38:	003ff706 	br	12c18 <_gp+0xffff322c>

00012c3c <_fclose_r>:
   12c3c:	28003926 	beq	r5,zero,12d24 <_fclose_r+0xe8>
   12c40:	defffc04 	addi	sp,sp,-16
   12c44:	dc400115 	stw	r17,4(sp)
   12c48:	dc000015 	stw	r16,0(sp)
   12c4c:	dfc00315 	stw	ra,12(sp)
   12c50:	dc800215 	stw	r18,8(sp)
   12c54:	2023883a 	mov	r17,r4
   12c58:	2821883a 	mov	r16,r5
   12c5c:	20000226 	beq	r4,zero,12c68 <_fclose_r+0x2c>
   12c60:	20800e17 	ldw	r2,56(r4)
   12c64:	10002726 	beq	r2,zero,12d04 <_fclose_r+0xc8>
   12c68:	8080030f 	ldh	r2,12(r16)
   12c6c:	1000071e 	bne	r2,zero,12c8c <_fclose_r+0x50>
   12c70:	0005883a 	mov	r2,zero
   12c74:	dfc00317 	ldw	ra,12(sp)
   12c78:	dc800217 	ldw	r18,8(sp)
   12c7c:	dc400117 	ldw	r17,4(sp)
   12c80:	dc000017 	ldw	r16,0(sp)
   12c84:	dec00404 	addi	sp,sp,16
   12c88:	f800283a 	ret
   12c8c:	800b883a 	mov	r5,r16
   12c90:	8809883a 	mov	r4,r17
   12c94:	0012d400 	call	12d40 <__sflush_r>
   12c98:	1025883a 	mov	r18,r2
   12c9c:	80800b17 	ldw	r2,44(r16)
   12ca0:	10000426 	beq	r2,zero,12cb4 <_fclose_r+0x78>
   12ca4:	81400717 	ldw	r5,28(r16)
   12ca8:	8809883a 	mov	r4,r17
   12cac:	103ee83a 	callr	r2
   12cb0:	10001616 	blt	r2,zero,12d0c <_fclose_r+0xd0>
   12cb4:	8080030b 	ldhu	r2,12(r16)
   12cb8:	1080200c 	andi	r2,r2,128
   12cbc:	1000151e 	bne	r2,zero,12d14 <_fclose_r+0xd8>
   12cc0:	81400c17 	ldw	r5,48(r16)
   12cc4:	28000526 	beq	r5,zero,12cdc <_fclose_r+0xa0>
   12cc8:	80801004 	addi	r2,r16,64
   12ccc:	28800226 	beq	r5,r2,12cd8 <_fclose_r+0x9c>
   12cd0:	8809883a 	mov	r4,r17
   12cd4:	001310c0 	call	1310c <_free_r>
   12cd8:	80000c15 	stw	zero,48(r16)
   12cdc:	81401117 	ldw	r5,68(r16)
   12ce0:	28000326 	beq	r5,zero,12cf0 <_fclose_r+0xb4>
   12ce4:	8809883a 	mov	r4,r17
   12ce8:	001310c0 	call	1310c <_free_r>
   12cec:	80001115 	stw	zero,68(r16)
   12cf0:	00110000 	call	11000 <__sfp_lock_acquire>
   12cf4:	8000030d 	sth	zero,12(r16)
   12cf8:	00110040 	call	11004 <__sfp_lock_release>
   12cfc:	9005883a 	mov	r2,r18
   12d00:	003fdc06 	br	12c74 <_gp+0xffff3288>
   12d04:	0010ff00 	call	10ff0 <__sinit>
   12d08:	003fd706 	br	12c68 <_gp+0xffff327c>
   12d0c:	04bfffc4 	movi	r18,-1
   12d10:	003fe806 	br	12cb4 <_gp+0xffff32c8>
   12d14:	81400417 	ldw	r5,16(r16)
   12d18:	8809883a 	mov	r4,r17
   12d1c:	001310c0 	call	1310c <_free_r>
   12d20:	003fe706 	br	12cc0 <_gp+0xffff32d4>
   12d24:	0005883a 	mov	r2,zero
   12d28:	f800283a 	ret

00012d2c <fclose>:
   12d2c:	00800074 	movhi	r2,1
   12d30:	109e7d04 	addi	r2,r2,31220
   12d34:	200b883a 	mov	r5,r4
   12d38:	11000017 	ldw	r4,0(r2)
   12d3c:	0012c3c1 	jmpi	12c3c <_fclose_r>

00012d40 <__sflush_r>:
   12d40:	2880030b 	ldhu	r2,12(r5)
   12d44:	defffb04 	addi	sp,sp,-20
   12d48:	dcc00315 	stw	r19,12(sp)
   12d4c:	dc400115 	stw	r17,4(sp)
   12d50:	dfc00415 	stw	ra,16(sp)
   12d54:	dc800215 	stw	r18,8(sp)
   12d58:	dc000015 	stw	r16,0(sp)
   12d5c:	10c0020c 	andi	r3,r2,8
   12d60:	2823883a 	mov	r17,r5
   12d64:	2027883a 	mov	r19,r4
   12d68:	1800311e 	bne	r3,zero,12e30 <__sflush_r+0xf0>
   12d6c:	28c00117 	ldw	r3,4(r5)
   12d70:	10820014 	ori	r2,r2,2048
   12d74:	2880030d 	sth	r2,12(r5)
   12d78:	00c04b0e 	bge	zero,r3,12ea8 <__sflush_r+0x168>
   12d7c:	8a000a17 	ldw	r8,40(r17)
   12d80:	40002326 	beq	r8,zero,12e10 <__sflush_r+0xd0>
   12d84:	9c000017 	ldw	r16,0(r19)
   12d88:	10c4000c 	andi	r3,r2,4096
   12d8c:	98000015 	stw	zero,0(r19)
   12d90:	18004826 	beq	r3,zero,12eb4 <__sflush_r+0x174>
   12d94:	89801417 	ldw	r6,80(r17)
   12d98:	10c0010c 	andi	r3,r2,4
   12d9c:	18000626 	beq	r3,zero,12db8 <__sflush_r+0x78>
   12da0:	88c00117 	ldw	r3,4(r17)
   12da4:	88800c17 	ldw	r2,48(r17)
   12da8:	30cdc83a 	sub	r6,r6,r3
   12dac:	10000226 	beq	r2,zero,12db8 <__sflush_r+0x78>
   12db0:	88800f17 	ldw	r2,60(r17)
   12db4:	308dc83a 	sub	r6,r6,r2
   12db8:	89400717 	ldw	r5,28(r17)
   12dbc:	000f883a 	mov	r7,zero
   12dc0:	9809883a 	mov	r4,r19
   12dc4:	403ee83a 	callr	r8
   12dc8:	00ffffc4 	movi	r3,-1
   12dcc:	10c04426 	beq	r2,r3,12ee0 <__sflush_r+0x1a0>
   12dd0:	88c0030b 	ldhu	r3,12(r17)
   12dd4:	89000417 	ldw	r4,16(r17)
   12dd8:	88000115 	stw	zero,4(r17)
   12ddc:	197dffcc 	andi	r5,r3,63487
   12de0:	8940030d 	sth	r5,12(r17)
   12de4:	89000015 	stw	r4,0(r17)
   12de8:	18c4000c 	andi	r3,r3,4096
   12dec:	18002c1e 	bne	r3,zero,12ea0 <__sflush_r+0x160>
   12df0:	89400c17 	ldw	r5,48(r17)
   12df4:	9c000015 	stw	r16,0(r19)
   12df8:	28000526 	beq	r5,zero,12e10 <__sflush_r+0xd0>
   12dfc:	88801004 	addi	r2,r17,64
   12e00:	28800226 	beq	r5,r2,12e0c <__sflush_r+0xcc>
   12e04:	9809883a 	mov	r4,r19
   12e08:	001310c0 	call	1310c <_free_r>
   12e0c:	88000c15 	stw	zero,48(r17)
   12e10:	0005883a 	mov	r2,zero
   12e14:	dfc00417 	ldw	ra,16(sp)
   12e18:	dcc00317 	ldw	r19,12(sp)
   12e1c:	dc800217 	ldw	r18,8(sp)
   12e20:	dc400117 	ldw	r17,4(sp)
   12e24:	dc000017 	ldw	r16,0(sp)
   12e28:	dec00504 	addi	sp,sp,20
   12e2c:	f800283a 	ret
   12e30:	2c800417 	ldw	r18,16(r5)
   12e34:	903ff626 	beq	r18,zero,12e10 <_gp+0xffff3424>
   12e38:	2c000017 	ldw	r16,0(r5)
   12e3c:	108000cc 	andi	r2,r2,3
   12e40:	2c800015 	stw	r18,0(r5)
   12e44:	84a1c83a 	sub	r16,r16,r18
   12e48:	1000131e 	bne	r2,zero,12e98 <__sflush_r+0x158>
   12e4c:	28800517 	ldw	r2,20(r5)
   12e50:	88800215 	stw	r2,8(r17)
   12e54:	04000316 	blt	zero,r16,12e64 <__sflush_r+0x124>
   12e58:	003fed06 	br	12e10 <_gp+0xffff3424>
   12e5c:	90a5883a 	add	r18,r18,r2
   12e60:	043feb0e 	bge	zero,r16,12e10 <_gp+0xffff3424>
   12e64:	88800917 	ldw	r2,36(r17)
   12e68:	89400717 	ldw	r5,28(r17)
   12e6c:	800f883a 	mov	r7,r16
   12e70:	900d883a 	mov	r6,r18
   12e74:	9809883a 	mov	r4,r19
   12e78:	103ee83a 	callr	r2
   12e7c:	80a1c83a 	sub	r16,r16,r2
   12e80:	00bff616 	blt	zero,r2,12e5c <_gp+0xffff3470>
   12e84:	88c0030b 	ldhu	r3,12(r17)
   12e88:	00bfffc4 	movi	r2,-1
   12e8c:	18c01014 	ori	r3,r3,64
   12e90:	88c0030d 	sth	r3,12(r17)
   12e94:	003fdf06 	br	12e14 <_gp+0xffff3428>
   12e98:	0005883a 	mov	r2,zero
   12e9c:	003fec06 	br	12e50 <_gp+0xffff3464>
   12ea0:	88801415 	stw	r2,80(r17)
   12ea4:	003fd206 	br	12df0 <_gp+0xffff3404>
   12ea8:	28c00f17 	ldw	r3,60(r5)
   12eac:	00ffb316 	blt	zero,r3,12d7c <_gp+0xffff3390>
   12eb0:	003fd706 	br	12e10 <_gp+0xffff3424>
   12eb4:	89400717 	ldw	r5,28(r17)
   12eb8:	000d883a 	mov	r6,zero
   12ebc:	01c00044 	movi	r7,1
   12ec0:	9809883a 	mov	r4,r19
   12ec4:	403ee83a 	callr	r8
   12ec8:	100d883a 	mov	r6,r2
   12ecc:	00bfffc4 	movi	r2,-1
   12ed0:	30801426 	beq	r6,r2,12f24 <__sflush_r+0x1e4>
   12ed4:	8880030b 	ldhu	r2,12(r17)
   12ed8:	8a000a17 	ldw	r8,40(r17)
   12edc:	003fae06 	br	12d98 <_gp+0xffff33ac>
   12ee0:	98c00017 	ldw	r3,0(r19)
   12ee4:	183fba26 	beq	r3,zero,12dd0 <_gp+0xffff33e4>
   12ee8:	01000744 	movi	r4,29
   12eec:	19000626 	beq	r3,r4,12f08 <__sflush_r+0x1c8>
   12ef0:	01000584 	movi	r4,22
   12ef4:	19000426 	beq	r3,r4,12f08 <__sflush_r+0x1c8>
   12ef8:	88c0030b 	ldhu	r3,12(r17)
   12efc:	18c01014 	ori	r3,r3,64
   12f00:	88c0030d 	sth	r3,12(r17)
   12f04:	003fc306 	br	12e14 <_gp+0xffff3428>
   12f08:	8880030b 	ldhu	r2,12(r17)
   12f0c:	88c00417 	ldw	r3,16(r17)
   12f10:	88000115 	stw	zero,4(r17)
   12f14:	10bdffcc 	andi	r2,r2,63487
   12f18:	8880030d 	sth	r2,12(r17)
   12f1c:	88c00015 	stw	r3,0(r17)
   12f20:	003fb306 	br	12df0 <_gp+0xffff3404>
   12f24:	98800017 	ldw	r2,0(r19)
   12f28:	103fea26 	beq	r2,zero,12ed4 <_gp+0xffff34e8>
   12f2c:	00c00744 	movi	r3,29
   12f30:	10c00226 	beq	r2,r3,12f3c <__sflush_r+0x1fc>
   12f34:	00c00584 	movi	r3,22
   12f38:	10c0031e 	bne	r2,r3,12f48 <__sflush_r+0x208>
   12f3c:	9c000015 	stw	r16,0(r19)
   12f40:	0005883a 	mov	r2,zero
   12f44:	003fb306 	br	12e14 <_gp+0xffff3428>
   12f48:	88c0030b 	ldhu	r3,12(r17)
   12f4c:	3005883a 	mov	r2,r6
   12f50:	18c01014 	ori	r3,r3,64
   12f54:	88c0030d 	sth	r3,12(r17)
   12f58:	003fae06 	br	12e14 <_gp+0xffff3428>

00012f5c <_fflush_r>:
   12f5c:	defffd04 	addi	sp,sp,-12
   12f60:	dc000115 	stw	r16,4(sp)
   12f64:	dfc00215 	stw	ra,8(sp)
   12f68:	2021883a 	mov	r16,r4
   12f6c:	20000226 	beq	r4,zero,12f78 <_fflush_r+0x1c>
   12f70:	20800e17 	ldw	r2,56(r4)
   12f74:	10000c26 	beq	r2,zero,12fa8 <_fflush_r+0x4c>
   12f78:	2880030f 	ldh	r2,12(r5)
   12f7c:	1000051e 	bne	r2,zero,12f94 <_fflush_r+0x38>
   12f80:	0005883a 	mov	r2,zero
   12f84:	dfc00217 	ldw	ra,8(sp)
   12f88:	dc000117 	ldw	r16,4(sp)
   12f8c:	dec00304 	addi	sp,sp,12
   12f90:	f800283a 	ret
   12f94:	8009883a 	mov	r4,r16
   12f98:	dfc00217 	ldw	ra,8(sp)
   12f9c:	dc000117 	ldw	r16,4(sp)
   12fa0:	dec00304 	addi	sp,sp,12
   12fa4:	0012d401 	jmpi	12d40 <__sflush_r>
   12fa8:	d9400015 	stw	r5,0(sp)
   12fac:	0010ff00 	call	10ff0 <__sinit>
   12fb0:	d9400017 	ldw	r5,0(sp)
   12fb4:	003ff006 	br	12f78 <_gp+0xffff358c>

00012fb8 <fflush>:
   12fb8:	20000526 	beq	r4,zero,12fd0 <fflush+0x18>
   12fbc:	00800074 	movhi	r2,1
   12fc0:	109e7d04 	addi	r2,r2,31220
   12fc4:	200b883a 	mov	r5,r4
   12fc8:	11000017 	ldw	r4,0(r2)
   12fcc:	0012f5c1 	jmpi	12f5c <_fflush_r>
   12fd0:	00800074 	movhi	r2,1
   12fd4:	109e7c04 	addi	r2,r2,31216
   12fd8:	11000017 	ldw	r4,0(r2)
   12fdc:	01400074 	movhi	r5,1
   12fe0:	294bd704 	addi	r5,r5,12124
   12fe4:	00115c01 	jmpi	115c0 <_fwalk_reent>

00012fe8 <_malloc_trim_r>:
   12fe8:	defffb04 	addi	sp,sp,-20
   12fec:	dcc00315 	stw	r19,12(sp)
   12ff0:	04c00074 	movhi	r19,1
   12ff4:	dc800215 	stw	r18,8(sp)
   12ff8:	dc400115 	stw	r17,4(sp)
   12ffc:	dc000015 	stw	r16,0(sp)
   13000:	dfc00415 	stw	ra,16(sp)
   13004:	2821883a 	mov	r16,r5
   13008:	9cd8f704 	addi	r19,r19,25564
   1300c:	2025883a 	mov	r18,r4
   13010:	0013f640 	call	13f64 <__malloc_lock>
   13014:	98800217 	ldw	r2,8(r19)
   13018:	14400117 	ldw	r17,4(r2)
   1301c:	00bfff04 	movi	r2,-4
   13020:	88a2703a 	and	r17,r17,r2
   13024:	8c21c83a 	sub	r16,r17,r16
   13028:	8403fbc4 	addi	r16,r16,4079
   1302c:	8020d33a 	srli	r16,r16,12
   13030:	0083ffc4 	movi	r2,4095
   13034:	843fffc4 	addi	r16,r16,-1
   13038:	8020933a 	slli	r16,r16,12
   1303c:	1400060e 	bge	r2,r16,13058 <_malloc_trim_r+0x70>
   13040:	000b883a 	mov	r5,zero
   13044:	9009883a 	mov	r4,r18
   13048:	00128a40 	call	128a4 <_sbrk_r>
   1304c:	98c00217 	ldw	r3,8(r19)
   13050:	1c47883a 	add	r3,r3,r17
   13054:	10c00a26 	beq	r2,r3,13080 <_malloc_trim_r+0x98>
   13058:	9009883a 	mov	r4,r18
   1305c:	0013f880 	call	13f88 <__malloc_unlock>
   13060:	0005883a 	mov	r2,zero
   13064:	dfc00417 	ldw	ra,16(sp)
   13068:	dcc00317 	ldw	r19,12(sp)
   1306c:	dc800217 	ldw	r18,8(sp)
   13070:	dc400117 	ldw	r17,4(sp)
   13074:	dc000017 	ldw	r16,0(sp)
   13078:	dec00504 	addi	sp,sp,20
   1307c:	f800283a 	ret
   13080:	040bc83a 	sub	r5,zero,r16
   13084:	9009883a 	mov	r4,r18
   13088:	00128a40 	call	128a4 <_sbrk_r>
   1308c:	00ffffc4 	movi	r3,-1
   13090:	10c00d26 	beq	r2,r3,130c8 <_malloc_trim_r+0xe0>
   13094:	00c000b4 	movhi	r3,2
   13098:	18e53d04 	addi	r3,r3,-27404
   1309c:	18800017 	ldw	r2,0(r3)
   130a0:	99000217 	ldw	r4,8(r19)
   130a4:	8c23c83a 	sub	r17,r17,r16
   130a8:	8c400054 	ori	r17,r17,1
   130ac:	1421c83a 	sub	r16,r2,r16
   130b0:	24400115 	stw	r17,4(r4)
   130b4:	9009883a 	mov	r4,r18
   130b8:	1c000015 	stw	r16,0(r3)
   130bc:	0013f880 	call	13f88 <__malloc_unlock>
   130c0:	00800044 	movi	r2,1
   130c4:	003fe706 	br	13064 <_gp+0xffff3678>
   130c8:	000b883a 	mov	r5,zero
   130cc:	9009883a 	mov	r4,r18
   130d0:	00128a40 	call	128a4 <_sbrk_r>
   130d4:	99000217 	ldw	r4,8(r19)
   130d8:	014003c4 	movi	r5,15
   130dc:	1107c83a 	sub	r3,r2,r4
   130e0:	28ffdd0e 	bge	r5,r3,13058 <_gp+0xffff366c>
   130e4:	01400074 	movhi	r5,1
   130e8:	295e7e04 	addi	r5,r5,31224
   130ec:	29400017 	ldw	r5,0(r5)
   130f0:	18c00054 	ori	r3,r3,1
   130f4:	20c00115 	stw	r3,4(r4)
   130f8:	00c000b4 	movhi	r3,2
   130fc:	1145c83a 	sub	r2,r2,r5
   13100:	18e53d04 	addi	r3,r3,-27404
   13104:	18800015 	stw	r2,0(r3)
   13108:	003fd306 	br	13058 <_gp+0xffff366c>

0001310c <_free_r>:
   1310c:	28004126 	beq	r5,zero,13214 <_free_r+0x108>
   13110:	defffd04 	addi	sp,sp,-12
   13114:	dc400115 	stw	r17,4(sp)
   13118:	dc000015 	stw	r16,0(sp)
   1311c:	2023883a 	mov	r17,r4
   13120:	2821883a 	mov	r16,r5
   13124:	dfc00215 	stw	ra,8(sp)
   13128:	0013f640 	call	13f64 <__malloc_lock>
   1312c:	81ffff17 	ldw	r7,-4(r16)
   13130:	00bfff84 	movi	r2,-2
   13134:	01000074 	movhi	r4,1
   13138:	81bffe04 	addi	r6,r16,-8
   1313c:	3884703a 	and	r2,r7,r2
   13140:	2118f704 	addi	r4,r4,25564
   13144:	308b883a 	add	r5,r6,r2
   13148:	2a400117 	ldw	r9,4(r5)
   1314c:	22000217 	ldw	r8,8(r4)
   13150:	00ffff04 	movi	r3,-4
   13154:	48c6703a 	and	r3,r9,r3
   13158:	2a005726 	beq	r5,r8,132b8 <_free_r+0x1ac>
   1315c:	28c00115 	stw	r3,4(r5)
   13160:	39c0004c 	andi	r7,r7,1
   13164:	3800091e 	bne	r7,zero,1318c <_free_r+0x80>
   13168:	823ffe17 	ldw	r8,-8(r16)
   1316c:	22400204 	addi	r9,r4,8
   13170:	320dc83a 	sub	r6,r6,r8
   13174:	31c00217 	ldw	r7,8(r6)
   13178:	1205883a 	add	r2,r2,r8
   1317c:	3a406526 	beq	r7,r9,13314 <_free_r+0x208>
   13180:	32000317 	ldw	r8,12(r6)
   13184:	3a000315 	stw	r8,12(r7)
   13188:	41c00215 	stw	r7,8(r8)
   1318c:	28cf883a 	add	r7,r5,r3
   13190:	39c00117 	ldw	r7,4(r7)
   13194:	39c0004c 	andi	r7,r7,1
   13198:	38003a26 	beq	r7,zero,13284 <_free_r+0x178>
   1319c:	10c00054 	ori	r3,r2,1
   131a0:	30c00115 	stw	r3,4(r6)
   131a4:	3087883a 	add	r3,r6,r2
   131a8:	18800015 	stw	r2,0(r3)
   131ac:	00c07fc4 	movi	r3,511
   131b0:	18801936 	bltu	r3,r2,13218 <_free_r+0x10c>
   131b4:	1004d0fa 	srli	r2,r2,3
   131b8:	01c00044 	movi	r7,1
   131bc:	21400117 	ldw	r5,4(r4)
   131c0:	10c00044 	addi	r3,r2,1
   131c4:	18c7883a 	add	r3,r3,r3
   131c8:	1005d0ba 	srai	r2,r2,2
   131cc:	18c7883a 	add	r3,r3,r3
   131d0:	18c7883a 	add	r3,r3,r3
   131d4:	1907883a 	add	r3,r3,r4
   131d8:	3884983a 	sll	r2,r7,r2
   131dc:	19c00017 	ldw	r7,0(r3)
   131e0:	1a3ffe04 	addi	r8,r3,-8
   131e4:	1144b03a 	or	r2,r2,r5
   131e8:	32000315 	stw	r8,12(r6)
   131ec:	31c00215 	stw	r7,8(r6)
   131f0:	20800115 	stw	r2,4(r4)
   131f4:	19800015 	stw	r6,0(r3)
   131f8:	39800315 	stw	r6,12(r7)
   131fc:	8809883a 	mov	r4,r17
   13200:	dfc00217 	ldw	ra,8(sp)
   13204:	dc400117 	ldw	r17,4(sp)
   13208:	dc000017 	ldw	r16,0(sp)
   1320c:	dec00304 	addi	sp,sp,12
   13210:	0013f881 	jmpi	13f88 <__malloc_unlock>
   13214:	f800283a 	ret
   13218:	100ad27a 	srli	r5,r2,9
   1321c:	00c00104 	movi	r3,4
   13220:	19404a36 	bltu	r3,r5,1334c <_free_r+0x240>
   13224:	100ad1ba 	srli	r5,r2,6
   13228:	28c00e44 	addi	r3,r5,57
   1322c:	18c7883a 	add	r3,r3,r3
   13230:	29400e04 	addi	r5,r5,56
   13234:	18c7883a 	add	r3,r3,r3
   13238:	18c7883a 	add	r3,r3,r3
   1323c:	1909883a 	add	r4,r3,r4
   13240:	20c00017 	ldw	r3,0(r4)
   13244:	01c00074 	movhi	r7,1
   13248:	213ffe04 	addi	r4,r4,-8
   1324c:	39d8f704 	addi	r7,r7,25564
   13250:	20c04426 	beq	r4,r3,13364 <_free_r+0x258>
   13254:	01ffff04 	movi	r7,-4
   13258:	19400117 	ldw	r5,4(r3)
   1325c:	29ca703a 	and	r5,r5,r7
   13260:	1140022e 	bgeu	r2,r5,1326c <_free_r+0x160>
   13264:	18c00217 	ldw	r3,8(r3)
   13268:	20fffb1e 	bne	r4,r3,13258 <_gp+0xffff386c>
   1326c:	19000317 	ldw	r4,12(r3)
   13270:	31000315 	stw	r4,12(r6)
   13274:	30c00215 	stw	r3,8(r6)
   13278:	21800215 	stw	r6,8(r4)
   1327c:	19800315 	stw	r6,12(r3)
   13280:	003fde06 	br	131fc <_gp+0xffff3810>
   13284:	29c00217 	ldw	r7,8(r5)
   13288:	10c5883a 	add	r2,r2,r3
   1328c:	00c00074 	movhi	r3,1
   13290:	18d8f904 	addi	r3,r3,25572
   13294:	38c03b26 	beq	r7,r3,13384 <_free_r+0x278>
   13298:	2a000317 	ldw	r8,12(r5)
   1329c:	11400054 	ori	r5,r2,1
   132a0:	3087883a 	add	r3,r6,r2
   132a4:	3a000315 	stw	r8,12(r7)
   132a8:	41c00215 	stw	r7,8(r8)
   132ac:	31400115 	stw	r5,4(r6)
   132b0:	18800015 	stw	r2,0(r3)
   132b4:	003fbd06 	br	131ac <_gp+0xffff37c0>
   132b8:	39c0004c 	andi	r7,r7,1
   132bc:	10c5883a 	add	r2,r2,r3
   132c0:	3800071e 	bne	r7,zero,132e0 <_free_r+0x1d4>
   132c4:	81fffe17 	ldw	r7,-8(r16)
   132c8:	31cdc83a 	sub	r6,r6,r7
   132cc:	30c00317 	ldw	r3,12(r6)
   132d0:	31400217 	ldw	r5,8(r6)
   132d4:	11c5883a 	add	r2,r2,r7
   132d8:	28c00315 	stw	r3,12(r5)
   132dc:	19400215 	stw	r5,8(r3)
   132e0:	10c00054 	ori	r3,r2,1
   132e4:	30c00115 	stw	r3,4(r6)
   132e8:	00c00074 	movhi	r3,1
   132ec:	18de7f04 	addi	r3,r3,31228
   132f0:	18c00017 	ldw	r3,0(r3)
   132f4:	21800215 	stw	r6,8(r4)
   132f8:	10ffc036 	bltu	r2,r3,131fc <_gp+0xffff3810>
   132fc:	008000b4 	movhi	r2,2
   13300:	10a53404 	addi	r2,r2,-27440
   13304:	11400017 	ldw	r5,0(r2)
   13308:	8809883a 	mov	r4,r17
   1330c:	0012fe80 	call	12fe8 <_malloc_trim_r>
   13310:	003fba06 	br	131fc <_gp+0xffff3810>
   13314:	28c9883a 	add	r4,r5,r3
   13318:	21000117 	ldw	r4,4(r4)
   1331c:	2100004c 	andi	r4,r4,1
   13320:	2000391e 	bne	r4,zero,13408 <_free_r+0x2fc>
   13324:	29c00217 	ldw	r7,8(r5)
   13328:	29000317 	ldw	r4,12(r5)
   1332c:	1885883a 	add	r2,r3,r2
   13330:	10c00054 	ori	r3,r2,1
   13334:	39000315 	stw	r4,12(r7)
   13338:	21c00215 	stw	r7,8(r4)
   1333c:	30c00115 	stw	r3,4(r6)
   13340:	308d883a 	add	r6,r6,r2
   13344:	30800015 	stw	r2,0(r6)
   13348:	003fac06 	br	131fc <_gp+0xffff3810>
   1334c:	00c00504 	movi	r3,20
   13350:	19401536 	bltu	r3,r5,133a8 <_free_r+0x29c>
   13354:	28c01704 	addi	r3,r5,92
   13358:	18c7883a 	add	r3,r3,r3
   1335c:	294016c4 	addi	r5,r5,91
   13360:	003fb406 	br	13234 <_gp+0xffff3848>
   13364:	280bd0ba 	srai	r5,r5,2
   13368:	00c00044 	movi	r3,1
   1336c:	38800117 	ldw	r2,4(r7)
   13370:	194a983a 	sll	r5,r3,r5
   13374:	2007883a 	mov	r3,r4
   13378:	2884b03a 	or	r2,r5,r2
   1337c:	38800115 	stw	r2,4(r7)
   13380:	003fbb06 	br	13270 <_gp+0xffff3884>
   13384:	21800515 	stw	r6,20(r4)
   13388:	21800415 	stw	r6,16(r4)
   1338c:	10c00054 	ori	r3,r2,1
   13390:	31c00315 	stw	r7,12(r6)
   13394:	31c00215 	stw	r7,8(r6)
   13398:	30c00115 	stw	r3,4(r6)
   1339c:	308d883a 	add	r6,r6,r2
   133a0:	30800015 	stw	r2,0(r6)
   133a4:	003f9506 	br	131fc <_gp+0xffff3810>
   133a8:	00c01504 	movi	r3,84
   133ac:	19400536 	bltu	r3,r5,133c4 <_free_r+0x2b8>
   133b0:	100ad33a 	srli	r5,r2,12
   133b4:	28c01bc4 	addi	r3,r5,111
   133b8:	18c7883a 	add	r3,r3,r3
   133bc:	29401b84 	addi	r5,r5,110
   133c0:	003f9c06 	br	13234 <_gp+0xffff3848>
   133c4:	00c05504 	movi	r3,340
   133c8:	19400536 	bltu	r3,r5,133e0 <_free_r+0x2d4>
   133cc:	100ad3fa 	srli	r5,r2,15
   133d0:	28c01e04 	addi	r3,r5,120
   133d4:	18c7883a 	add	r3,r3,r3
   133d8:	29401dc4 	addi	r5,r5,119
   133dc:	003f9506 	br	13234 <_gp+0xffff3848>
   133e0:	00c15504 	movi	r3,1364
   133e4:	19400536 	bltu	r3,r5,133fc <_free_r+0x2f0>
   133e8:	100ad4ba 	srli	r5,r2,18
   133ec:	28c01f44 	addi	r3,r5,125
   133f0:	18c7883a 	add	r3,r3,r3
   133f4:	29401f04 	addi	r5,r5,124
   133f8:	003f8e06 	br	13234 <_gp+0xffff3848>
   133fc:	00c03f84 	movi	r3,254
   13400:	01401f84 	movi	r5,126
   13404:	003f8b06 	br	13234 <_gp+0xffff3848>
   13408:	10c00054 	ori	r3,r2,1
   1340c:	30c00115 	stw	r3,4(r6)
   13410:	308d883a 	add	r6,r6,r2
   13414:	30800015 	stw	r2,0(r6)
   13418:	003f7806 	br	131fc <_gp+0xffff3810>

0001341c <_lseek_r>:
   1341c:	defffd04 	addi	sp,sp,-12
   13420:	2805883a 	mov	r2,r5
   13424:	dc000015 	stw	r16,0(sp)
   13428:	040000b4 	movhi	r16,2
   1342c:	dc400115 	stw	r17,4(sp)
   13430:	300b883a 	mov	r5,r6
   13434:	84253504 	addi	r16,r16,-27436
   13438:	2023883a 	mov	r17,r4
   1343c:	380d883a 	mov	r6,r7
   13440:	1009883a 	mov	r4,r2
   13444:	dfc00215 	stw	ra,8(sp)
   13448:	80000015 	stw	zero,0(r16)
   1344c:	0013e140 	call	13e14 <lseek>
   13450:	00ffffc4 	movi	r3,-1
   13454:	10c00526 	beq	r2,r3,1346c <_lseek_r+0x50>
   13458:	dfc00217 	ldw	ra,8(sp)
   1345c:	dc400117 	ldw	r17,4(sp)
   13460:	dc000017 	ldw	r16,0(sp)
   13464:	dec00304 	addi	sp,sp,12
   13468:	f800283a 	ret
   1346c:	80c00017 	ldw	r3,0(r16)
   13470:	183ff926 	beq	r3,zero,13458 <_gp+0xffff3a6c>
   13474:	88c00015 	stw	r3,0(r17)
   13478:	003ff706 	br	13458 <_gp+0xffff3a6c>

0001347c <__smakebuf_r>:
   1347c:	2880030b 	ldhu	r2,12(r5)
   13480:	10c0008c 	andi	r3,r2,2
   13484:	1800411e 	bne	r3,zero,1358c <__smakebuf_r+0x110>
   13488:	deffec04 	addi	sp,sp,-80
   1348c:	dc000f15 	stw	r16,60(sp)
   13490:	2821883a 	mov	r16,r5
   13494:	2940038f 	ldh	r5,14(r5)
   13498:	dc401015 	stw	r17,64(sp)
   1349c:	dfc01315 	stw	ra,76(sp)
   134a0:	dcc01215 	stw	r19,72(sp)
   134a4:	dc801115 	stw	r18,68(sp)
   134a8:	2023883a 	mov	r17,r4
   134ac:	28001c16 	blt	r5,zero,13520 <__smakebuf_r+0xa4>
   134b0:	d80d883a 	mov	r6,sp
   134b4:	00136980 	call	13698 <_fstat_r>
   134b8:	10001816 	blt	r2,zero,1351c <__smakebuf_r+0xa0>
   134bc:	d8800117 	ldw	r2,4(sp)
   134c0:	00e00014 	movui	r3,32768
   134c4:	10bc000c 	andi	r2,r2,61440
   134c8:	14c80020 	cmpeqi	r19,r2,8192
   134cc:	10c03726 	beq	r2,r3,135ac <__smakebuf_r+0x130>
   134d0:	80c0030b 	ldhu	r3,12(r16)
   134d4:	18c20014 	ori	r3,r3,2048
   134d8:	80c0030d 	sth	r3,12(r16)
   134dc:	00c80004 	movi	r3,8192
   134e0:	10c0521e 	bne	r2,r3,1362c <__smakebuf_r+0x1b0>
   134e4:	8140038f 	ldh	r5,14(r16)
   134e8:	8809883a 	mov	r4,r17
   134ec:	00136f40 	call	136f4 <_isatty_r>
   134f0:	10004c26 	beq	r2,zero,13624 <__smakebuf_r+0x1a8>
   134f4:	8080030b 	ldhu	r2,12(r16)
   134f8:	80c010c4 	addi	r3,r16,67
   134fc:	80c00015 	stw	r3,0(r16)
   13500:	10800054 	ori	r2,r2,1
   13504:	8080030d 	sth	r2,12(r16)
   13508:	00800044 	movi	r2,1
   1350c:	80c00415 	stw	r3,16(r16)
   13510:	80800515 	stw	r2,20(r16)
   13514:	04810004 	movi	r18,1024
   13518:	00000706 	br	13538 <__smakebuf_r+0xbc>
   1351c:	8080030b 	ldhu	r2,12(r16)
   13520:	10c0200c 	andi	r3,r2,128
   13524:	18001f1e 	bne	r3,zero,135a4 <__smakebuf_r+0x128>
   13528:	04810004 	movi	r18,1024
   1352c:	10820014 	ori	r2,r2,2048
   13530:	8080030d 	sth	r2,12(r16)
   13534:	0027883a 	mov	r19,zero
   13538:	900b883a 	mov	r5,r18
   1353c:	8809883a 	mov	r4,r17
   13540:	00116840 	call	11684 <_malloc_r>
   13544:	10002c26 	beq	r2,zero,135f8 <__smakebuf_r+0x17c>
   13548:	80c0030b 	ldhu	r3,12(r16)
   1354c:	01000074 	movhi	r4,1
   13550:	21032a04 	addi	r4,r4,3240
   13554:	89000f15 	stw	r4,60(r17)
   13558:	18c02014 	ori	r3,r3,128
   1355c:	80c0030d 	sth	r3,12(r16)
   13560:	80800015 	stw	r2,0(r16)
   13564:	80800415 	stw	r2,16(r16)
   13568:	84800515 	stw	r18,20(r16)
   1356c:	98001a1e 	bne	r19,zero,135d8 <__smakebuf_r+0x15c>
   13570:	dfc01317 	ldw	ra,76(sp)
   13574:	dcc01217 	ldw	r19,72(sp)
   13578:	dc801117 	ldw	r18,68(sp)
   1357c:	dc401017 	ldw	r17,64(sp)
   13580:	dc000f17 	ldw	r16,60(sp)
   13584:	dec01404 	addi	sp,sp,80
   13588:	f800283a 	ret
   1358c:	288010c4 	addi	r2,r5,67
   13590:	28800015 	stw	r2,0(r5)
   13594:	28800415 	stw	r2,16(r5)
   13598:	00800044 	movi	r2,1
   1359c:	28800515 	stw	r2,20(r5)
   135a0:	f800283a 	ret
   135a4:	04801004 	movi	r18,64
   135a8:	003fe006 	br	1352c <_gp+0xffff3b40>
   135ac:	81000a17 	ldw	r4,40(r16)
   135b0:	00c00074 	movhi	r3,1
   135b4:	18ca7404 	addi	r3,r3,10704
   135b8:	20ffc51e 	bne	r4,r3,134d0 <_gp+0xffff3ae4>
   135bc:	8080030b 	ldhu	r2,12(r16)
   135c0:	04810004 	movi	r18,1024
   135c4:	84801315 	stw	r18,76(r16)
   135c8:	1484b03a 	or	r2,r2,r18
   135cc:	8080030d 	sth	r2,12(r16)
   135d0:	0027883a 	mov	r19,zero
   135d4:	003fd806 	br	13538 <_gp+0xffff3b4c>
   135d8:	8140038f 	ldh	r5,14(r16)
   135dc:	8809883a 	mov	r4,r17
   135e0:	00136f40 	call	136f4 <_isatty_r>
   135e4:	103fe226 	beq	r2,zero,13570 <_gp+0xffff3b84>
   135e8:	8080030b 	ldhu	r2,12(r16)
   135ec:	10800054 	ori	r2,r2,1
   135f0:	8080030d 	sth	r2,12(r16)
   135f4:	003fde06 	br	13570 <_gp+0xffff3b84>
   135f8:	8080030b 	ldhu	r2,12(r16)
   135fc:	10c0800c 	andi	r3,r2,512
   13600:	183fdb1e 	bne	r3,zero,13570 <_gp+0xffff3b84>
   13604:	10800094 	ori	r2,r2,2
   13608:	80c010c4 	addi	r3,r16,67
   1360c:	8080030d 	sth	r2,12(r16)
   13610:	00800044 	movi	r2,1
   13614:	80c00015 	stw	r3,0(r16)
   13618:	80c00415 	stw	r3,16(r16)
   1361c:	80800515 	stw	r2,20(r16)
   13620:	003fd306 	br	13570 <_gp+0xffff3b84>
   13624:	04810004 	movi	r18,1024
   13628:	003fc306 	br	13538 <_gp+0xffff3b4c>
   1362c:	0027883a 	mov	r19,zero
   13630:	04810004 	movi	r18,1024
   13634:	003fc006 	br	13538 <_gp+0xffff3b4c>

00013638 <_read_r>:
   13638:	defffd04 	addi	sp,sp,-12
   1363c:	2805883a 	mov	r2,r5
   13640:	dc000015 	stw	r16,0(sp)
   13644:	040000b4 	movhi	r16,2
   13648:	dc400115 	stw	r17,4(sp)
   1364c:	300b883a 	mov	r5,r6
   13650:	84253504 	addi	r16,r16,-27436
   13654:	2023883a 	mov	r17,r4
   13658:	380d883a 	mov	r6,r7
   1365c:	1009883a 	mov	r4,r2
   13660:	dfc00215 	stw	ra,8(sp)
   13664:	80000015 	stw	zero,0(r16)
   13668:	0013fe80 	call	13fe8 <read>
   1366c:	00ffffc4 	movi	r3,-1
   13670:	10c00526 	beq	r2,r3,13688 <_read_r+0x50>
   13674:	dfc00217 	ldw	ra,8(sp)
   13678:	dc400117 	ldw	r17,4(sp)
   1367c:	dc000017 	ldw	r16,0(sp)
   13680:	dec00304 	addi	sp,sp,12
   13684:	f800283a 	ret
   13688:	80c00017 	ldw	r3,0(r16)
   1368c:	183ff926 	beq	r3,zero,13674 <_gp+0xffff3c88>
   13690:	88c00015 	stw	r3,0(r17)
   13694:	003ff706 	br	13674 <_gp+0xffff3c88>

00013698 <_fstat_r>:
   13698:	defffd04 	addi	sp,sp,-12
   1369c:	2805883a 	mov	r2,r5
   136a0:	dc000015 	stw	r16,0(sp)
   136a4:	040000b4 	movhi	r16,2
   136a8:	dc400115 	stw	r17,4(sp)
   136ac:	84253504 	addi	r16,r16,-27436
   136b0:	2023883a 	mov	r17,r4
   136b4:	300b883a 	mov	r5,r6
   136b8:	1009883a 	mov	r4,r2
   136bc:	dfc00215 	stw	ra,8(sp)
   136c0:	80000015 	stw	zero,0(r16)
   136c4:	00138bc0 	call	138bc <fstat>
   136c8:	00ffffc4 	movi	r3,-1
   136cc:	10c00526 	beq	r2,r3,136e4 <_fstat_r+0x4c>
   136d0:	dfc00217 	ldw	ra,8(sp)
   136d4:	dc400117 	ldw	r17,4(sp)
   136d8:	dc000017 	ldw	r16,0(sp)
   136dc:	dec00304 	addi	sp,sp,12
   136e0:	f800283a 	ret
   136e4:	80c00017 	ldw	r3,0(r16)
   136e8:	183ff926 	beq	r3,zero,136d0 <_gp+0xffff3ce4>
   136ec:	88c00015 	stw	r3,0(r17)
   136f0:	003ff706 	br	136d0 <_gp+0xffff3ce4>

000136f4 <_isatty_r>:
   136f4:	defffd04 	addi	sp,sp,-12
   136f8:	dc000015 	stw	r16,0(sp)
   136fc:	040000b4 	movhi	r16,2
   13700:	dc400115 	stw	r17,4(sp)
   13704:	84253504 	addi	r16,r16,-27436
   13708:	2023883a 	mov	r17,r4
   1370c:	2809883a 	mov	r4,r5
   13710:	dfc00215 	stw	ra,8(sp)
   13714:	80000015 	stw	zero,0(r16)
   13718:	0013c480 	call	13c48 <isatty>
   1371c:	00ffffc4 	movi	r3,-1
   13720:	10c00526 	beq	r2,r3,13738 <_isatty_r+0x44>
   13724:	dfc00217 	ldw	ra,8(sp)
   13728:	dc400117 	ldw	r17,4(sp)
   1372c:	dc000017 	ldw	r16,0(sp)
   13730:	dec00304 	addi	sp,sp,12
   13734:	f800283a 	ret
   13738:	80c00017 	ldw	r3,0(r16)
   1373c:	183ff926 	beq	r3,zero,13724 <_gp+0xffff3d38>
   13740:	88c00015 	stw	r3,0(r17)
   13744:	003ff706 	br	13724 <_gp+0xffff3d38>

00013748 <alt_get_errno>:
#undef errno

extern int errno;

static ALT_INLINE int* alt_get_errno(void)
{
   13748:	defffe04 	addi	sp,sp,-8
   1374c:	dfc00115 	stw	ra,4(sp)
   13750:	df000015 	stw	fp,0(sp)
   13754:	d839883a 	mov	fp,sp
  return ((alt_errno) ? alt_errno() : &errno);
   13758:	d0a00a17 	ldw	r2,-32728(gp)
   1375c:	10000326 	beq	r2,zero,1376c <alt_get_errno+0x24>
   13760:	d0a00a17 	ldw	r2,-32728(gp)
   13764:	103ee83a 	callr	r2
   13768:	00000106 	br	13770 <alt_get_errno+0x28>
   1376c:	d0a6ba04 	addi	r2,gp,-25880
}
   13770:	e037883a 	mov	sp,fp
   13774:	dfc00117 	ldw	ra,4(sp)
   13778:	df000017 	ldw	fp,0(sp)
   1377c:	dec00204 	addi	sp,sp,8
   13780:	f800283a 	ret

00013784 <close>:
 *
 * ALT_CLOSE is mapped onto the close() system call in alt_syscall.h
 */
 
int ALT_CLOSE (int fildes)
{
   13784:	defffb04 	addi	sp,sp,-20
   13788:	dfc00415 	stw	ra,16(sp)
   1378c:	df000315 	stw	fp,12(sp)
   13790:	df000304 	addi	fp,sp,12
   13794:	e13fff15 	stw	r4,-4(fp)
   * A common error case is that when the file descriptor was created, the call
   * to open() failed resulting in a negative file descriptor. This is trapped
   * below so that we don't try and process an invalid file descriptor.
   */

  fd = (fildes < 0) ? NULL : &alt_fd_list[fildes];
   13798:	e0bfff17 	ldw	r2,-4(fp)
   1379c:	10000616 	blt	r2,zero,137b8 <close+0x34>
   137a0:	e0bfff17 	ldw	r2,-4(fp)
   137a4:	10c00324 	muli	r3,r2,12
   137a8:	00800074 	movhi	r2,1
   137ac:	109a0304 	addi	r2,r2,26636
   137b0:	1885883a 	add	r2,r3,r2
   137b4:	00000106 	br	137bc <close+0x38>
   137b8:	0005883a 	mov	r2,zero
   137bc:	e0bffd15 	stw	r2,-12(fp)

  if (fd)
   137c0:	e0bffd17 	ldw	r2,-12(fp)
   137c4:	10001926 	beq	r2,zero,1382c <close+0xa8>
    /*
     * If the associated file system/device has a close function, call it so 
     * that any necessary cleanup code can run.
     */

    rval = (fd->dev->close) ? fd->dev->close(fd) : 0;
   137c8:	e0bffd17 	ldw	r2,-12(fp)
   137cc:	10800017 	ldw	r2,0(r2)
   137d0:	10800417 	ldw	r2,16(r2)
   137d4:	10000626 	beq	r2,zero,137f0 <close+0x6c>
   137d8:	e0bffd17 	ldw	r2,-12(fp)
   137dc:	10800017 	ldw	r2,0(r2)
   137e0:	10800417 	ldw	r2,16(r2)
   137e4:	e13ffd17 	ldw	r4,-12(fp)
   137e8:	103ee83a 	callr	r2
   137ec:	00000106 	br	137f4 <close+0x70>
   137f0:	0005883a 	mov	r2,zero
   137f4:	e0bffe15 	stw	r2,-8(fp)

    /* Free the file descriptor structure and return. */

    alt_release_fd (fildes);
   137f8:	e13fff17 	ldw	r4,-4(fp)
   137fc:	00140e40 	call	140e4 <alt_release_fd>
    if (rval < 0)
   13800:	e0bffe17 	ldw	r2,-8(fp)
   13804:	1000070e 	bge	r2,zero,13824 <close+0xa0>
    {
      ALT_ERRNO = -rval;
   13808:	00137480 	call	13748 <alt_get_errno>
   1380c:	1007883a 	mov	r3,r2
   13810:	e0bffe17 	ldw	r2,-8(fp)
   13814:	0085c83a 	sub	r2,zero,r2
   13818:	18800015 	stw	r2,0(r3)
      return -1;
   1381c:	00bfffc4 	movi	r2,-1
   13820:	00000706 	br	13840 <close+0xbc>
    }
    return 0;
   13824:	0005883a 	mov	r2,zero
   13828:	00000506 	br	13840 <close+0xbc>
  }
  else
  {
    ALT_ERRNO = EBADFD;
   1382c:	00137480 	call	13748 <alt_get_errno>
   13830:	1007883a 	mov	r3,r2
   13834:	00801444 	movi	r2,81
   13838:	18800015 	stw	r2,0(r3)
    return -1;
   1383c:	00bfffc4 	movi	r2,-1
  }
}
   13840:	e037883a 	mov	sp,fp
   13844:	dfc00117 	ldw	ra,4(sp)
   13848:	df000017 	ldw	fp,0(sp)
   1384c:	dec00204 	addi	sp,sp,8
   13850:	f800283a 	ret

00013854 <alt_dev_null_write>:
 * by the alt_dev_null device. It simple discards all data passed to it, and
 * indicates that the data has been successfully transmitted.
 */

static int alt_dev_null_write (alt_fd* fd, const char* ptr, int len)
{
   13854:	defffc04 	addi	sp,sp,-16
   13858:	df000315 	stw	fp,12(sp)
   1385c:	df000304 	addi	fp,sp,12
   13860:	e13ffd15 	stw	r4,-12(fp)
   13864:	e17ffe15 	stw	r5,-8(fp)
   13868:	e1bfff15 	stw	r6,-4(fp)
  return len;
   1386c:	e0bfff17 	ldw	r2,-4(fp)
}
   13870:	e037883a 	mov	sp,fp
   13874:	df000017 	ldw	fp,0(sp)
   13878:	dec00104 	addi	sp,sp,4
   1387c:	f800283a 	ret

00013880 <alt_get_errno>:
#undef errno

extern int errno;

static ALT_INLINE int* alt_get_errno(void)
{
   13880:	defffe04 	addi	sp,sp,-8
   13884:	dfc00115 	stw	ra,4(sp)
   13888:	df000015 	stw	fp,0(sp)
   1388c:	d839883a 	mov	fp,sp
  return ((alt_errno) ? alt_errno() : &errno);
   13890:	d0a00a17 	ldw	r2,-32728(gp)
   13894:	10000326 	beq	r2,zero,138a4 <alt_get_errno+0x24>
   13898:	d0a00a17 	ldw	r2,-32728(gp)
   1389c:	103ee83a 	callr	r2
   138a0:	00000106 	br	138a8 <alt_get_errno+0x28>
   138a4:	d0a6ba04 	addi	r2,gp,-25880
}
   138a8:	e037883a 	mov	sp,fp
   138ac:	dfc00117 	ldw	ra,4(sp)
   138b0:	df000017 	ldw	fp,0(sp)
   138b4:	dec00204 	addi	sp,sp,8
   138b8:	f800283a 	ret

000138bc <fstat>:
}

#else /* !ALT_USE_DIRECT_DRIVERS */

int ALT_FSTAT (int file, struct stat *st)
{
   138bc:	defffb04 	addi	sp,sp,-20
   138c0:	dfc00415 	stw	ra,16(sp)
   138c4:	df000315 	stw	fp,12(sp)
   138c8:	df000304 	addi	fp,sp,12
   138cc:	e13ffe15 	stw	r4,-8(fp)
   138d0:	e17fff15 	stw	r5,-4(fp)
   * A common error case is that when the file descriptor was created, the call
   * to open() failed resulting in a negative file descriptor. This is trapped
   * below so that we don't try and process an invalid file descriptor.
   */

  fd = (file < 0) ? NULL : &alt_fd_list[file];
   138d4:	e0bffe17 	ldw	r2,-8(fp)
   138d8:	10000616 	blt	r2,zero,138f4 <fstat+0x38>
   138dc:	e0bffe17 	ldw	r2,-8(fp)
   138e0:	10c00324 	muli	r3,r2,12
   138e4:	00800074 	movhi	r2,1
   138e8:	109a0304 	addi	r2,r2,26636
   138ec:	1885883a 	add	r2,r3,r2
   138f0:	00000106 	br	138f8 <fstat+0x3c>
   138f4:	0005883a 	mov	r2,zero
   138f8:	e0bffd15 	stw	r2,-12(fp)
  
  if (fd)
   138fc:	e0bffd17 	ldw	r2,-12(fp)
   13900:	10001026 	beq	r2,zero,13944 <fstat+0x88>
  {
    /* Call the drivers fstat() function to fill out the "st" structure. */

    if (fd->dev->fstat)
   13904:	e0bffd17 	ldw	r2,-12(fp)
   13908:	10800017 	ldw	r2,0(r2)
   1390c:	10800817 	ldw	r2,32(r2)
   13910:	10000726 	beq	r2,zero,13930 <fstat+0x74>
    {
      return fd->dev->fstat(fd, st);
   13914:	e0bffd17 	ldw	r2,-12(fp)
   13918:	10800017 	ldw	r2,0(r2)
   1391c:	10800817 	ldw	r2,32(r2)
   13920:	e17fff17 	ldw	r5,-4(fp)
   13924:	e13ffd17 	ldw	r4,-12(fp)
   13928:	103ee83a 	callr	r2
   1392c:	00000a06 	br	13958 <fstat+0x9c>
     * device.
     */
 
    else
    {
      st->st_mode = _IFCHR;
   13930:	e0bfff17 	ldw	r2,-4(fp)
   13934:	00c80004 	movi	r3,8192
   13938:	10c00115 	stw	r3,4(r2)
      return 0;
   1393c:	0005883a 	mov	r2,zero
   13940:	00000506 	br	13958 <fstat+0x9c>
    }
  }
  else
  {
    ALT_ERRNO = EBADFD;
   13944:	00138800 	call	13880 <alt_get_errno>
   13948:	1007883a 	mov	r3,r2
   1394c:	00801444 	movi	r2,81
   13950:	18800015 	stw	r2,0(r3)
    return -1;
   13954:	00bfffc4 	movi	r2,-1
  }
}
   13958:	e037883a 	mov	sp,fp
   1395c:	dfc00117 	ldw	ra,4(sp)
   13960:	df000017 	ldw	fp,0(sp)
   13964:	dec00204 	addi	sp,sp,8
   13968:	f800283a 	ret

0001396c <alt_ic_isr_register>:
  * @param irq              IRQ number
  * @return                 0 if successful, else error (-1)
  */
int alt_ic_isr_register(alt_u32 ic_id, alt_u32 irq, alt_isr_func isr, 
  void *isr_context, void *flags)
{
   1396c:	defff904 	addi	sp,sp,-28
   13970:	dfc00615 	stw	ra,24(sp)
   13974:	df000515 	stw	fp,20(sp)
   13978:	df000504 	addi	fp,sp,20
   1397c:	e13ffc15 	stw	r4,-16(fp)
   13980:	e17ffd15 	stw	r5,-12(fp)
   13984:	e1bffe15 	stw	r6,-8(fp)
   13988:	e1ffff15 	stw	r7,-4(fp)
    return alt_iic_isr_register(ic_id, irq, isr, isr_context, flags);
   1398c:	e0800217 	ldw	r2,8(fp)
   13990:	d8800015 	stw	r2,0(sp)
   13994:	e1ffff17 	ldw	r7,-4(fp)
   13998:	e1bffe17 	ldw	r6,-8(fp)
   1399c:	e17ffd17 	ldw	r5,-12(fp)
   139a0:	e13ffc17 	ldw	r4,-16(fp)
   139a4:	0013b1c0 	call	13b1c <alt_iic_isr_register>
}  
   139a8:	e037883a 	mov	sp,fp
   139ac:	dfc00117 	ldw	ra,4(sp)
   139b0:	df000017 	ldw	fp,0(sp)
   139b4:	dec00204 	addi	sp,sp,8
   139b8:	f800283a 	ret

000139bc <alt_ic_irq_enable>:
  * @param ic_id            Ignored.
  * @param irq              IRQ number
  * @return                 0 if successful, else error (-1)
  */
int alt_ic_irq_enable (alt_u32 ic_id, alt_u32 irq)
{
   139bc:	defff904 	addi	sp,sp,-28
   139c0:	df000615 	stw	fp,24(sp)
   139c4:	df000604 	addi	fp,sp,24
   139c8:	e13ffe15 	stw	r4,-8(fp)
   139cc:	e17fff15 	stw	r5,-4(fp)
   139d0:	e0bfff17 	ldw	r2,-4(fp)
   139d4:	e0bffa15 	stw	r2,-24(fp)
static ALT_INLINE alt_irq_context ALT_ALWAYS_INLINE 
       alt_irq_disable_all (void)
{
  alt_irq_context context;

  NIOS2_READ_STATUS (context);
   139d8:	0005303a 	rdctl	r2,status
   139dc:	e0bffb15 	stw	r2,-20(fp)

  NIOS2_WRITE_STATUS (context & ~NIOS2_STATUS_PIE_MSK);
   139e0:	e0fffb17 	ldw	r3,-20(fp)
   139e4:	00bfff84 	movi	r2,-2
   139e8:	1884703a 	and	r2,r3,r2
   139ec:	1001703a 	wrctl	status,r2
  
  return context;
   139f0:	e0bffb17 	ldw	r2,-20(fp)
static ALT_INLINE int ALT_ALWAYS_INLINE alt_irq_enable (alt_u32 id)
{
  alt_irq_context  status;
  extern volatile alt_u32 alt_irq_active;

  status = alt_irq_disable_all ();
   139f4:	e0bffc15 	stw	r2,-16(fp)

  alt_irq_active |= (1 << id);
   139f8:	00c00044 	movi	r3,1
   139fc:	e0bffa17 	ldw	r2,-24(fp)
   13a00:	1884983a 	sll	r2,r3,r2
   13a04:	1007883a 	mov	r3,r2
   13a08:	d0a6bb17 	ldw	r2,-25876(gp)
   13a0c:	1884b03a 	or	r2,r3,r2
   13a10:	d0a6bb15 	stw	r2,-25876(gp)
  NIOS2_WRITE_IENABLE (alt_irq_active);
   13a14:	d0a6bb17 	ldw	r2,-25876(gp)
   13a18:	100170fa 	wrctl	ienable,r2
   13a1c:	e0bffc17 	ldw	r2,-16(fp)
   13a20:	e0bffd15 	stw	r2,-12(fp)
  status &= ~NIOS2_STATUS_PIE_MSK;
  status |= (context & NIOS2_STATUS_PIE_MSK);
  
  NIOS2_WRITE_STATUS (status);
#else
  NIOS2_WRITE_STATUS (context);
   13a24:	e0bffd17 	ldw	r2,-12(fp)
   13a28:	1001703a 	wrctl	status,r2

  alt_irq_enable_all(status);

  return 0;
   13a2c:	0005883a 	mov	r2,zero
    return alt_irq_enable(irq);
   13a30:	0001883a 	nop
}
   13a34:	e037883a 	mov	sp,fp
   13a38:	df000017 	ldw	fp,0(sp)
   13a3c:	dec00104 	addi	sp,sp,4
   13a40:	f800283a 	ret

00013a44 <alt_ic_irq_disable>:
  * @param ic_id            Ignored.
  * @param irq              IRQ number
  * @return                 0 if successful, else error (-1)
  */
int alt_ic_irq_disable(alt_u32 ic_id, alt_u32 irq)
{
   13a44:	defff904 	addi	sp,sp,-28
   13a48:	df000615 	stw	fp,24(sp)
   13a4c:	df000604 	addi	fp,sp,24
   13a50:	e13ffe15 	stw	r4,-8(fp)
   13a54:	e17fff15 	stw	r5,-4(fp)
   13a58:	e0bfff17 	ldw	r2,-4(fp)
   13a5c:	e0bffa15 	stw	r2,-24(fp)
static ALT_INLINE alt_irq_context ALT_ALWAYS_INLINE 
       alt_irq_disable_all (void)
{
  alt_irq_context context;

  NIOS2_READ_STATUS (context);
   13a60:	0005303a 	rdctl	r2,status
   13a64:	e0bffb15 	stw	r2,-20(fp)

  NIOS2_WRITE_STATUS (context & ~NIOS2_STATUS_PIE_MSK);
   13a68:	e0fffb17 	ldw	r3,-20(fp)
   13a6c:	00bfff84 	movi	r2,-2
   13a70:	1884703a 	and	r2,r3,r2
   13a74:	1001703a 	wrctl	status,r2
  
  return context;
   13a78:	e0bffb17 	ldw	r2,-20(fp)
static ALT_INLINE int ALT_ALWAYS_INLINE alt_irq_disable (alt_u32 id)
{
  alt_irq_context  status;
  extern volatile alt_u32 alt_irq_active;

  status = alt_irq_disable_all ();
   13a7c:	e0bffc15 	stw	r2,-16(fp)

  alt_irq_active &= ~(1 << id);
   13a80:	00c00044 	movi	r3,1
   13a84:	e0bffa17 	ldw	r2,-24(fp)
   13a88:	1884983a 	sll	r2,r3,r2
   13a8c:	0084303a 	nor	r2,zero,r2
   13a90:	1007883a 	mov	r3,r2
   13a94:	d0a6bb17 	ldw	r2,-25876(gp)
   13a98:	1884703a 	and	r2,r3,r2
   13a9c:	d0a6bb15 	stw	r2,-25876(gp)
  NIOS2_WRITE_IENABLE (alt_irq_active);
   13aa0:	d0a6bb17 	ldw	r2,-25876(gp)
   13aa4:	100170fa 	wrctl	ienable,r2
   13aa8:	e0bffc17 	ldw	r2,-16(fp)
   13aac:	e0bffd15 	stw	r2,-12(fp)
  status &= ~NIOS2_STATUS_PIE_MSK;
  status |= (context & NIOS2_STATUS_PIE_MSK);
  
  NIOS2_WRITE_STATUS (status);
#else
  NIOS2_WRITE_STATUS (context);
   13ab0:	e0bffd17 	ldw	r2,-12(fp)
   13ab4:	1001703a 	wrctl	status,r2

  alt_irq_enable_all(status);

  return 0;
   13ab8:	0005883a 	mov	r2,zero
    return alt_irq_disable(irq);
   13abc:	0001883a 	nop
}
   13ac0:	e037883a 	mov	sp,fp
   13ac4:	df000017 	ldw	fp,0(sp)
   13ac8:	dec00104 	addi	sp,sp,4
   13acc:	f800283a 	ret

00013ad0 <alt_ic_irq_enabled>:
  * @param irq              IRQ number
  * @return                 Zero if corresponding interrupt is disabled and
  *                         non-zero otherwise.
  */
alt_u32 alt_ic_irq_enabled(alt_u32 ic_id, alt_u32 irq)
{
   13ad0:	defffc04 	addi	sp,sp,-16
   13ad4:	df000315 	stw	fp,12(sp)
   13ad8:	df000304 	addi	fp,sp,12
   13adc:	e13ffe15 	stw	r4,-8(fp)
   13ae0:	e17fff15 	stw	r5,-4(fp)
    alt_u32 irq_enabled;

    NIOS2_READ_IENABLE(irq_enabled);
   13ae4:	000530fa 	rdctl	r2,ienable
   13ae8:	e0bffd15 	stw	r2,-12(fp)

    return (irq_enabled & (1 << irq)) ? 1: 0;
   13aec:	00c00044 	movi	r3,1
   13af0:	e0bfff17 	ldw	r2,-4(fp)
   13af4:	1884983a 	sll	r2,r3,r2
   13af8:	1007883a 	mov	r3,r2
   13afc:	e0bffd17 	ldw	r2,-12(fp)
   13b00:	1884703a 	and	r2,r3,r2
   13b04:	1004c03a 	cmpne	r2,r2,zero
   13b08:	10803fcc 	andi	r2,r2,255
}
   13b0c:	e037883a 	mov	sp,fp
   13b10:	df000017 	ldw	fp,0(sp)
   13b14:	dec00104 	addi	sp,sp,4
   13b18:	f800283a 	ret

00013b1c <alt_iic_isr_register>:
  * @param flags            
  * @return                 0 if successful, else error (-1)
  */
int alt_iic_isr_register(alt_u32 ic_id, alt_u32 irq, alt_isr_func isr, 
  void *isr_context, void *flags)
{
   13b1c:	defff504 	addi	sp,sp,-44
   13b20:	dfc00a15 	stw	ra,40(sp)
   13b24:	df000915 	stw	fp,36(sp)
   13b28:	df000904 	addi	fp,sp,36
   13b2c:	e13ffc15 	stw	r4,-16(fp)
   13b30:	e17ffd15 	stw	r5,-12(fp)
   13b34:	e1bffe15 	stw	r6,-8(fp)
   13b38:	e1ffff15 	stw	r7,-4(fp)
  int rc = -EINVAL;  
   13b3c:	00bffa84 	movi	r2,-22
   13b40:	e0bff715 	stw	r2,-36(fp)
  int id = irq;             /* IRQ interpreted as the interrupt ID. */
   13b44:	e0bffd17 	ldw	r2,-12(fp)
   13b48:	e0bff815 	stw	r2,-32(fp)
  alt_irq_context status;

  if (id < ALT_NIRQ)
   13b4c:	e0bff817 	ldw	r2,-32(fp)
   13b50:	10800808 	cmpgei	r2,r2,32
   13b54:	1000271e 	bne	r2,zero,13bf4 <alt_iic_isr_register+0xd8>
static ALT_INLINE alt_irq_context ALT_ALWAYS_INLINE 
       alt_irq_disable_all (void)
{
  alt_irq_context context;

  NIOS2_READ_STATUS (context);
   13b58:	0005303a 	rdctl	r2,status
   13b5c:	e0bffb15 	stw	r2,-20(fp)

  NIOS2_WRITE_STATUS (context & ~NIOS2_STATUS_PIE_MSK);
   13b60:	e0fffb17 	ldw	r3,-20(fp)
   13b64:	00bfff84 	movi	r2,-2
   13b68:	1884703a 	and	r2,r3,r2
   13b6c:	1001703a 	wrctl	status,r2
  
  return context;
   13b70:	e0bffb17 	ldw	r2,-20(fp)
     * interrupts are disabled while the handler tables are updated to ensure
     * that an interrupt doesn't occur while the tables are in an inconsistant
     * state.
     */

    status = alt_irq_disable_all();
   13b74:	e0bffa15 	stw	r2,-24(fp)

    alt_irq[id].handler = isr;
   13b78:	008000b4 	movhi	r2,2
   13b7c:	10a54d04 	addi	r2,r2,-27340
   13b80:	e0fff817 	ldw	r3,-32(fp)
   13b84:	180690fa 	slli	r3,r3,3
   13b88:	10c5883a 	add	r2,r2,r3
   13b8c:	e0fffe17 	ldw	r3,-8(fp)
   13b90:	10c00015 	stw	r3,0(r2)
    alt_irq[id].context = isr_context;
   13b94:	008000b4 	movhi	r2,2
   13b98:	10a54d04 	addi	r2,r2,-27340
   13b9c:	e0fff817 	ldw	r3,-32(fp)
   13ba0:	180690fa 	slli	r3,r3,3
   13ba4:	10c5883a 	add	r2,r2,r3
   13ba8:	10800104 	addi	r2,r2,4
   13bac:	e0ffff17 	ldw	r3,-4(fp)
   13bb0:	10c00015 	stw	r3,0(r2)

    rc = (isr) ? alt_ic_irq_enable(ic_id, id) : alt_ic_irq_disable(ic_id, id);
   13bb4:	e0bffe17 	ldw	r2,-8(fp)
   13bb8:	10000526 	beq	r2,zero,13bd0 <alt_iic_isr_register+0xb4>
   13bbc:	e0bff817 	ldw	r2,-32(fp)
   13bc0:	100b883a 	mov	r5,r2
   13bc4:	e13ffc17 	ldw	r4,-16(fp)
   13bc8:	00139bc0 	call	139bc <alt_ic_irq_enable>
   13bcc:	00000406 	br	13be0 <alt_iic_isr_register+0xc4>
   13bd0:	e0bff817 	ldw	r2,-32(fp)
   13bd4:	100b883a 	mov	r5,r2
   13bd8:	e13ffc17 	ldw	r4,-16(fp)
   13bdc:	0013a440 	call	13a44 <alt_ic_irq_disable>
   13be0:	e0bff715 	stw	r2,-36(fp)
   13be4:	e0bffa17 	ldw	r2,-24(fp)
   13be8:	e0bff915 	stw	r2,-28(fp)
  status &= ~NIOS2_STATUS_PIE_MSK;
  status |= (context & NIOS2_STATUS_PIE_MSK);
  
  NIOS2_WRITE_STATUS (status);
#else
  NIOS2_WRITE_STATUS (context);
   13bec:	e0bff917 	ldw	r2,-28(fp)
   13bf0:	1001703a 	wrctl	status,r2

    alt_irq_enable_all(status);
  }

  return rc; 
   13bf4:	e0bff717 	ldw	r2,-36(fp)
}
   13bf8:	e037883a 	mov	sp,fp
   13bfc:	dfc00117 	ldw	ra,4(sp)
   13c00:	df000017 	ldw	fp,0(sp)
   13c04:	dec00204 	addi	sp,sp,8
   13c08:	f800283a 	ret

00013c0c <alt_get_errno>:
#undef errno

extern int errno;

static ALT_INLINE int* alt_get_errno(void)
{
   13c0c:	defffe04 	addi	sp,sp,-8
   13c10:	dfc00115 	stw	ra,4(sp)
   13c14:	df000015 	stw	fp,0(sp)
   13c18:	d839883a 	mov	fp,sp
  return ((alt_errno) ? alt_errno() : &errno);
   13c1c:	d0a00a17 	ldw	r2,-32728(gp)
   13c20:	10000326 	beq	r2,zero,13c30 <alt_get_errno+0x24>
   13c24:	d0a00a17 	ldw	r2,-32728(gp)
   13c28:	103ee83a 	callr	r2
   13c2c:	00000106 	br	13c34 <alt_get_errno+0x28>
   13c30:	d0a6ba04 	addi	r2,gp,-25880
}
   13c34:	e037883a 	mov	sp,fp
   13c38:	dfc00117 	ldw	ra,4(sp)
   13c3c:	df000017 	ldw	fp,0(sp)
   13c40:	dec00204 	addi	sp,sp,8
   13c44:	f800283a 	ret

00013c48 <isatty>:
 *
 * ALT_ISATTY is mapped onto the isatty() system call in alt_syscall.h
 */
 
int ALT_ISATTY (int file)
{
   13c48:	deffed04 	addi	sp,sp,-76
   13c4c:	dfc01215 	stw	ra,72(sp)
   13c50:	df001115 	stw	fp,68(sp)
   13c54:	df001104 	addi	fp,sp,68
   13c58:	e13fff15 	stw	r4,-4(fp)
   * A common error case is that when the file descriptor was created, the call
   * to open() failed resulting in a negative file descriptor. This is trapped
   * below so that we don't try and process an invalid file descriptor.
   */

  fd = (file < 0) ? NULL : &alt_fd_list[file];
   13c5c:	e0bfff17 	ldw	r2,-4(fp)
   13c60:	10000616 	blt	r2,zero,13c7c <isatty+0x34>
   13c64:	e0bfff17 	ldw	r2,-4(fp)
   13c68:	10c00324 	muli	r3,r2,12
   13c6c:	00800074 	movhi	r2,1
   13c70:	109a0304 	addi	r2,r2,26636
   13c74:	1885883a 	add	r2,r3,r2
   13c78:	00000106 	br	13c80 <isatty+0x38>
   13c7c:	0005883a 	mov	r2,zero
   13c80:	e0bfef15 	stw	r2,-68(fp)
  
  if (fd)
   13c84:	e0bfef17 	ldw	r2,-68(fp)
   13c88:	10000e26 	beq	r2,zero,13cc4 <isatty+0x7c>
    /*
     * If a device driver does not provide an fstat() function, then it is 
     * treated as a terminal device by default.
     */

    if (!fd->dev->fstat)
   13c8c:	e0bfef17 	ldw	r2,-68(fp)
   13c90:	10800017 	ldw	r2,0(r2)
   13c94:	10800817 	ldw	r2,32(r2)
   13c98:	1000021e 	bne	r2,zero,13ca4 <isatty+0x5c>
    {
      return 1;
   13c9c:	00800044 	movi	r2,1
   13ca0:	00000d06 	br	13cd8 <isatty+0x90>
     * this is called so that the device can identify itself.
     */ 

    else
    {
      fstat (file, &stat);
   13ca4:	e0bff004 	addi	r2,fp,-64
   13ca8:	100b883a 	mov	r5,r2
   13cac:	e13fff17 	ldw	r4,-4(fp)
   13cb0:	00138bc0 	call	138bc <fstat>
      return (stat.st_mode == _IFCHR) ? 1 : 0;
   13cb4:	e0bff117 	ldw	r2,-60(fp)
   13cb8:	10880020 	cmpeqi	r2,r2,8192
   13cbc:	10803fcc 	andi	r2,r2,255
   13cc0:	00000506 	br	13cd8 <isatty+0x90>
    }
  }
  else
  {
    ALT_ERRNO = EBADFD;
   13cc4:	0013c0c0 	call	13c0c <alt_get_errno>
   13cc8:	1007883a 	mov	r3,r2
   13ccc:	00801444 	movi	r2,81
   13cd0:	18800015 	stw	r2,0(r3)
    return 0;
   13cd4:	0005883a 	mov	r2,zero
  }
}
   13cd8:	e037883a 	mov	sp,fp
   13cdc:	dfc00117 	ldw	ra,4(sp)
   13ce0:	df000017 	ldw	fp,0(sp)
   13ce4:	dec00204 	addi	sp,sp,8
   13ce8:	f800283a 	ret

00013cec <alt_load_section>:
 */

static void ALT_INLINE alt_load_section (alt_u32* from, 
                                         alt_u32* to, 
                                         alt_u32* end)
{
   13cec:	defffc04 	addi	sp,sp,-16
   13cf0:	df000315 	stw	fp,12(sp)
   13cf4:	df000304 	addi	fp,sp,12
   13cf8:	e13ffd15 	stw	r4,-12(fp)
   13cfc:	e17ffe15 	stw	r5,-8(fp)
   13d00:	e1bfff15 	stw	r6,-4(fp)
  if (to != from)
   13d04:	e0fffe17 	ldw	r3,-8(fp)
   13d08:	e0bffd17 	ldw	r2,-12(fp)
   13d0c:	18800c26 	beq	r3,r2,13d40 <alt_load_section+0x54>
  {
    while( to != end )
   13d10:	00000806 	br	13d34 <alt_load_section+0x48>
    {
      *to++ = *from++;
   13d14:	e0bffe17 	ldw	r2,-8(fp)
   13d18:	10c00104 	addi	r3,r2,4
   13d1c:	e0fffe15 	stw	r3,-8(fp)
   13d20:	e0fffd17 	ldw	r3,-12(fp)
   13d24:	19000104 	addi	r4,r3,4
   13d28:	e13ffd15 	stw	r4,-12(fp)
   13d2c:	18c00017 	ldw	r3,0(r3)
   13d30:	10c00015 	stw	r3,0(r2)
                                         alt_u32* to, 
                                         alt_u32* end)
{
  if (to != from)
  {
    while( to != end )
   13d34:	e0fffe17 	ldw	r3,-8(fp)
   13d38:	e0bfff17 	ldw	r2,-4(fp)
   13d3c:	18bff51e 	bne	r3,r2,13d14 <_gp+0xffff4328>
    {
      *to++ = *from++;
    }
  }
}
   13d40:	0001883a 	nop
   13d44:	e037883a 	mov	sp,fp
   13d48:	df000017 	ldw	fp,0(sp)
   13d4c:	dec00104 	addi	sp,sp,4
   13d50:	f800283a 	ret

00013d54 <alt_load>:
 * there is no bootloader, so this application is responsible for loading to
 * RAM any sections that are required.
 */  

void alt_load (void)
{
   13d54:	defffe04 	addi	sp,sp,-8
   13d58:	dfc00115 	stw	ra,4(sp)
   13d5c:	df000015 	stw	fp,0(sp)
   13d60:	d839883a 	mov	fp,sp
  /* 
   * Copy the .rwdata section. 
   */

  alt_load_section (&__flash_rwdata_start, 
   13d64:	01800074 	movhi	r6,1
   13d68:	319e8a04 	addi	r6,r6,31272
   13d6c:	01400074 	movhi	r5,1
   13d70:	2957e204 	addi	r5,r5,24456
   13d74:	01000074 	movhi	r4,1
   13d78:	211e8a04 	addi	r4,r4,31272
   13d7c:	0013cec0 	call	13cec <alt_load_section>

  /*
   * Copy the exception handler.
   */

  alt_load_section (&__flash_exceptions_start, 
   13d80:	01800074 	movhi	r6,1
   13d84:	31809104 	addi	r6,r6,580
   13d88:	01400074 	movhi	r5,1
   13d8c:	29400804 	addi	r5,r5,32
   13d90:	01000074 	movhi	r4,1
   13d94:	21000804 	addi	r4,r4,32
   13d98:	0013cec0 	call	13cec <alt_load_section>

  /*
   * Copy the .rodata section.
   */

  alt_load_section (&__flash_rodata_start, 
   13d9c:	01800074 	movhi	r6,1
   13da0:	3197e204 	addi	r6,r6,24456
   13da4:	01400074 	movhi	r5,1
   13da8:	2957b404 	addi	r5,r5,24272
   13dac:	01000074 	movhi	r4,1
   13db0:	2117b404 	addi	r4,r4,24272
   13db4:	0013cec0 	call	13cec <alt_load_section>
  
  /*
   * Now ensure that the caches are in synch.
   */
  
  alt_dcache_flush_all();
   13db8:	00150840 	call	15084 <alt_dcache_flush_all>
  alt_icache_flush_all();
   13dbc:	00152440 	call	15244 <alt_icache_flush_all>
}
   13dc0:	0001883a 	nop
   13dc4:	e037883a 	mov	sp,fp
   13dc8:	dfc00117 	ldw	ra,4(sp)
   13dcc:	df000017 	ldw	fp,0(sp)
   13dd0:	dec00204 	addi	sp,sp,8
   13dd4:	f800283a 	ret

00013dd8 <alt_get_errno>:
#undef errno

extern int errno;

static ALT_INLINE int* alt_get_errno(void)
{
   13dd8:	defffe04 	addi	sp,sp,-8
   13ddc:	dfc00115 	stw	ra,4(sp)
   13de0:	df000015 	stw	fp,0(sp)
   13de4:	d839883a 	mov	fp,sp
  return ((alt_errno) ? alt_errno() : &errno);
   13de8:	d0a00a17 	ldw	r2,-32728(gp)
   13dec:	10000326 	beq	r2,zero,13dfc <alt_get_errno+0x24>
   13df0:	d0a00a17 	ldw	r2,-32728(gp)
   13df4:	103ee83a 	callr	r2
   13df8:	00000106 	br	13e00 <alt_get_errno+0x28>
   13dfc:	d0a6ba04 	addi	r2,gp,-25880
}
   13e00:	e037883a 	mov	sp,fp
   13e04:	dfc00117 	ldw	ra,4(sp)
   13e08:	df000017 	ldw	fp,0(sp)
   13e0c:	dec00204 	addi	sp,sp,8
   13e10:	f800283a 	ret

00013e14 <lseek>:
 * ALT_LSEEK is mapped onto the lseek() system call in alt_syscall.h
 *
 */

off_t ALT_LSEEK (int file, off_t ptr, int dir)
{
   13e14:	defff904 	addi	sp,sp,-28
   13e18:	dfc00615 	stw	ra,24(sp)
   13e1c:	df000515 	stw	fp,20(sp)
   13e20:	df000504 	addi	fp,sp,20
   13e24:	e13ffd15 	stw	r4,-12(fp)
   13e28:	e17ffe15 	stw	r5,-8(fp)
   13e2c:	e1bfff15 	stw	r6,-4(fp)
  alt_fd* fd;
  off_t   rc = 0; 
   13e30:	e03ffb15 	stw	zero,-20(fp)
   * A common error case is that when the file descriptor was created, the call
   * to open() failed resulting in a negative file descriptor. This is trapped
   * below so that we don't try and process an invalid file descriptor.
   */

  fd = (file < 0) ? NULL : &alt_fd_list[file];
   13e34:	e0bffd17 	ldw	r2,-12(fp)
   13e38:	10000616 	blt	r2,zero,13e54 <lseek+0x40>
   13e3c:	e0bffd17 	ldw	r2,-12(fp)
   13e40:	10c00324 	muli	r3,r2,12
   13e44:	00800074 	movhi	r2,1
   13e48:	109a0304 	addi	r2,r2,26636
   13e4c:	1885883a 	add	r2,r3,r2
   13e50:	00000106 	br	13e58 <lseek+0x44>
   13e54:	0005883a 	mov	r2,zero
   13e58:	e0bffc15 	stw	r2,-16(fp)
  
  if (fd) 
   13e5c:	e0bffc17 	ldw	r2,-16(fp)
   13e60:	10001026 	beq	r2,zero,13ea4 <lseek+0x90>
    /*
     * If the device driver provides an implementation of the lseek() function,
     * then call that to process the request.
     */
 
    if (fd->dev->lseek)
   13e64:	e0bffc17 	ldw	r2,-16(fp)
   13e68:	10800017 	ldw	r2,0(r2)
   13e6c:	10800717 	ldw	r2,28(r2)
   13e70:	10000926 	beq	r2,zero,13e98 <lseek+0x84>
    {
      rc = fd->dev->lseek(fd, ptr, dir);
   13e74:	e0bffc17 	ldw	r2,-16(fp)
   13e78:	10800017 	ldw	r2,0(r2)
   13e7c:	10800717 	ldw	r2,28(r2)
   13e80:	e1bfff17 	ldw	r6,-4(fp)
   13e84:	e17ffe17 	ldw	r5,-8(fp)
   13e88:	e13ffc17 	ldw	r4,-16(fp)
   13e8c:	103ee83a 	callr	r2
   13e90:	e0bffb15 	stw	r2,-20(fp)
   13e94:	00000506 	br	13eac <lseek+0x98>
     * Otherwise return an error.
     */

    else
    {
      rc = -ENOTSUP;
   13e98:	00bfde84 	movi	r2,-134
   13e9c:	e0bffb15 	stw	r2,-20(fp)
   13ea0:	00000206 	br	13eac <lseek+0x98>
    }
  }
  else  
  {
    rc = -EBADFD;
   13ea4:	00bfebc4 	movi	r2,-81
   13ea8:	e0bffb15 	stw	r2,-20(fp)
  }

  if (rc < 0)
   13eac:	e0bffb17 	ldw	r2,-20(fp)
   13eb0:	1000070e 	bge	r2,zero,13ed0 <lseek+0xbc>
  {
    ALT_ERRNO = -rc;
   13eb4:	0013dd80 	call	13dd8 <alt_get_errno>
   13eb8:	1007883a 	mov	r3,r2
   13ebc:	e0bffb17 	ldw	r2,-20(fp)
   13ec0:	0085c83a 	sub	r2,zero,r2
   13ec4:	18800015 	stw	r2,0(r3)
    rc = -1;
   13ec8:	00bfffc4 	movi	r2,-1
   13ecc:	e0bffb15 	stw	r2,-20(fp)
  }

  return rc;
   13ed0:	e0bffb17 	ldw	r2,-20(fp)
}
   13ed4:	e037883a 	mov	sp,fp
   13ed8:	dfc00117 	ldw	ra,4(sp)
   13edc:	df000017 	ldw	fp,0(sp)
   13ee0:	dec00204 	addi	sp,sp,8
   13ee4:	f800283a 	ret

00013ee8 <alt_main>:
 * devices/filesystems/components in the system; and call the entry point for
 * the users application, i.e. main().
 */

void alt_main (void)
{
   13ee8:	defffd04 	addi	sp,sp,-12
   13eec:	dfc00215 	stw	ra,8(sp)
   13ef0:	df000115 	stw	fp,4(sp)
   13ef4:	df000104 	addi	fp,sp,4
#endif

  /* ALT LOG - please see HAL/sys/alt_log_printf.h for details */
  ALT_LOG_PRINT_BOOT("[alt_main.c] Entering alt_main, calling alt_irq_init.\r\n");
  /* Initialize the interrupt controller. */
  alt_irq_init (NULL);
   13ef8:	0009883a 	mov	r4,zero
   13efc:	00143600 	call	14360 <alt_irq_init>

  /* Initialize the operating system */
  ALT_LOG_PRINT_BOOT("[alt_main.c] Done alt_irq_init, calling alt_os_init.\r\n");
  ALT_OS_INIT();
   13f00:	0001883a 	nop
  ALT_LOG_PRINT_BOOT("[alt_main.c] Done OS Init, calling alt_sem_create.\r\n");
  ALT_SEM_CREATE (&alt_fd_list_lock, 1);

  /* Initialize the device drivers/software components. */
  ALT_LOG_PRINT_BOOT("[alt_main.c] Calling alt_sys_init.\r\n");
  alt_sys_init();
   13f04:	00143980 	call	14398 <alt_sys_init>
   * devices be present (not equal to /dev/null) and if direct drivers
   * aren't being used.
   */

    ALT_LOG_PRINT_BOOT("[alt_main.c] Redirecting IO.\r\n");
    alt_io_redirect(ALT_STDOUT, ALT_STDIN, ALT_STDERR);
   13f08:	01800074 	movhi	r6,1
   13f0c:	3197d804 	addi	r6,r6,24416
   13f10:	01400074 	movhi	r5,1
   13f14:	2957d804 	addi	r5,r5,24416
   13f18:	01000074 	movhi	r4,1
   13f1c:	2117d804 	addi	r4,r4,24416
   13f20:	00153d80 	call	153d8 <alt_io_redirect>
  /* 
   * Call the C++ constructors 
   */

  ALT_LOG_PRINT_BOOT("[alt_main.c] Calling C++ constructors.\r\n");
  _do_ctors ();
   13f24:	00151840 	call	15184 <_do_ctors>
   * redefined as _exit()). This is in the interest of reducing code footprint,
   * in that the atexit() overhead is removed when it's not needed.
   */

  ALT_LOG_PRINT_BOOT("[alt_main.c] Calling atexit.\r\n");
  atexit (_do_dtors);
   13f28:	01000074 	movhi	r4,1
   13f2c:	21147904 	addi	r4,r4,20964
   13f30:	0015b3c0 	call	15b3c <atexit>
  ALT_LOG_PRINT_BOOT("[alt_main.c] Calling main.\r\n");

#ifdef ALT_NO_EXIT
  main (alt_argc, alt_argv, alt_envp);
#else
  result = main (alt_argc, alt_argv, alt_envp);
   13f34:	d0a6bc17 	ldw	r2,-25872(gp)
   13f38:	d0e6bd17 	ldw	r3,-25868(gp)
   13f3c:	d126be17 	ldw	r4,-25864(gp)
   13f40:	200d883a 	mov	r6,r4
   13f44:	180b883a 	mov	r5,r3
   13f48:	1009883a 	mov	r4,r2
   13f4c:	00106600 	call	10660 <main>
   13f50:	e0bfff15 	stw	r2,-4(fp)
  close(STDOUT_FILENO);
   13f54:	01000044 	movi	r4,1
   13f58:	00137840 	call	13784 <close>
  exit (result);
   13f5c:	e13fff17 	ldw	r4,-4(fp)
   13f60:	0015b500 	call	15b50 <exit>

00013f64 <__malloc_lock>:
 * configuration is single threaded, so there is nothing to do here. Note that 
 * this requires that malloc is never called by an interrupt service routine.
 */

void __malloc_lock ( struct _reent *_r )
{
   13f64:	defffe04 	addi	sp,sp,-8
   13f68:	df000115 	stw	fp,4(sp)
   13f6c:	df000104 	addi	fp,sp,4
   13f70:	e13fff15 	stw	r4,-4(fp)
}
   13f74:	0001883a 	nop
   13f78:	e037883a 	mov	sp,fp
   13f7c:	df000017 	ldw	fp,0(sp)
   13f80:	dec00104 	addi	sp,sp,4
   13f84:	f800283a 	ret

00013f88 <__malloc_unlock>:
/*
 *
 */

void __malloc_unlock ( struct _reent *_r )
{
   13f88:	defffe04 	addi	sp,sp,-8
   13f8c:	df000115 	stw	fp,4(sp)
   13f90:	df000104 	addi	fp,sp,4
   13f94:	e13fff15 	stw	r4,-4(fp)
}
   13f98:	0001883a 	nop
   13f9c:	e037883a 	mov	sp,fp
   13fa0:	df000017 	ldw	fp,0(sp)
   13fa4:	dec00104 	addi	sp,sp,4
   13fa8:	f800283a 	ret

00013fac <alt_get_errno>:
#undef errno

extern int errno;

static ALT_INLINE int* alt_get_errno(void)
{
   13fac:	defffe04 	addi	sp,sp,-8
   13fb0:	dfc00115 	stw	ra,4(sp)
   13fb4:	df000015 	stw	fp,0(sp)
   13fb8:	d839883a 	mov	fp,sp
  return ((alt_errno) ? alt_errno() : &errno);
   13fbc:	d0a00a17 	ldw	r2,-32728(gp)
   13fc0:	10000326 	beq	r2,zero,13fd0 <alt_get_errno+0x24>
   13fc4:	d0a00a17 	ldw	r2,-32728(gp)
   13fc8:	103ee83a 	callr	r2
   13fcc:	00000106 	br	13fd4 <alt_get_errno+0x28>
   13fd0:	d0a6ba04 	addi	r2,gp,-25880
}
   13fd4:	e037883a 	mov	sp,fp
   13fd8:	dfc00117 	ldw	ra,4(sp)
   13fdc:	df000017 	ldw	fp,0(sp)
   13fe0:	dec00204 	addi	sp,sp,8
   13fe4:	f800283a 	ret

00013fe8 <read>:
}

#else /* !ALT_USE_DIRECT_DRIVERS */

int ALT_READ (int file, void *ptr, size_t len)
{
   13fe8:	defff904 	addi	sp,sp,-28
   13fec:	dfc00615 	stw	ra,24(sp)
   13ff0:	df000515 	stw	fp,20(sp)
   13ff4:	df000504 	addi	fp,sp,20
   13ff8:	e13ffd15 	stw	r4,-12(fp)
   13ffc:	e17ffe15 	stw	r5,-8(fp)
   14000:	e1bfff15 	stw	r6,-4(fp)
   * A common error case is that when the file descriptor was created, the call
   * to open() failed resulting in a negative file descriptor. This is trapped
   * below so that we don't try and process an invalid file descriptor.
   */

  fd = (file < 0) ? NULL : &alt_fd_list[file];
   14004:	e0bffd17 	ldw	r2,-12(fp)
   14008:	10000616 	blt	r2,zero,14024 <read+0x3c>
   1400c:	e0bffd17 	ldw	r2,-12(fp)
   14010:	10c00324 	muli	r3,r2,12
   14014:	00800074 	movhi	r2,1
   14018:	109a0304 	addi	r2,r2,26636
   1401c:	1885883a 	add	r2,r3,r2
   14020:	00000106 	br	14028 <read+0x40>
   14024:	0005883a 	mov	r2,zero
   14028:	e0bffb15 	stw	r2,-20(fp)
  
  if (fd)
   1402c:	e0bffb17 	ldw	r2,-20(fp)
   14030:	10002226 	beq	r2,zero,140bc <read+0xd4>
     * If the file has not been opened with read access, or if the driver does
     * not provide an implementation of read(), generate an error. Otherwise
     * call the drivers read() function to process the request.
     */

    if (((fd->fd_flags & O_ACCMODE) != O_WRONLY) && 
   14034:	e0bffb17 	ldw	r2,-20(fp)
   14038:	10800217 	ldw	r2,8(r2)
   1403c:	108000cc 	andi	r2,r2,3
   14040:	10800060 	cmpeqi	r2,r2,1
   14044:	1000181e 	bne	r2,zero,140a8 <read+0xc0>
        (fd->dev->read))
   14048:	e0bffb17 	ldw	r2,-20(fp)
   1404c:	10800017 	ldw	r2,0(r2)
   14050:	10800517 	ldw	r2,20(r2)
     * If the file has not been opened with read access, or if the driver does
     * not provide an implementation of read(), generate an error. Otherwise
     * call the drivers read() function to process the request.
     */

    if (((fd->fd_flags & O_ACCMODE) != O_WRONLY) && 
   14054:	10001426 	beq	r2,zero,140a8 <read+0xc0>
        (fd->dev->read))
      {
        if ((rval = fd->dev->read(fd, ptr, len)) < 0)
   14058:	e0bffb17 	ldw	r2,-20(fp)
   1405c:	10800017 	ldw	r2,0(r2)
   14060:	10800517 	ldw	r2,20(r2)
   14064:	e0ffff17 	ldw	r3,-4(fp)
   14068:	180d883a 	mov	r6,r3
   1406c:	e17ffe17 	ldw	r5,-8(fp)
   14070:	e13ffb17 	ldw	r4,-20(fp)
   14074:	103ee83a 	callr	r2
   14078:	e0bffc15 	stw	r2,-16(fp)
   1407c:	e0bffc17 	ldw	r2,-16(fp)
   14080:	1000070e 	bge	r2,zero,140a0 <read+0xb8>
        {
          ALT_ERRNO = -rval;
   14084:	0013fac0 	call	13fac <alt_get_errno>
   14088:	1007883a 	mov	r3,r2
   1408c:	e0bffc17 	ldw	r2,-16(fp)
   14090:	0085c83a 	sub	r2,zero,r2
   14094:	18800015 	stw	r2,0(r3)
          return -1;
   14098:	00bfffc4 	movi	r2,-1
   1409c:	00000c06 	br	140d0 <read+0xe8>
        }
        return rval;
   140a0:	e0bffc17 	ldw	r2,-16(fp)
   140a4:	00000a06 	br	140d0 <read+0xe8>
      }
      else
      {
        ALT_ERRNO = EACCES;
   140a8:	0013fac0 	call	13fac <alt_get_errno>
   140ac:	1007883a 	mov	r3,r2
   140b0:	00800344 	movi	r2,13
   140b4:	18800015 	stw	r2,0(r3)
   140b8:	00000406 	br	140cc <read+0xe4>
      }
    }
  else
  {
    ALT_ERRNO = EBADFD;
   140bc:	0013fac0 	call	13fac <alt_get_errno>
   140c0:	1007883a 	mov	r3,r2
   140c4:	00801444 	movi	r2,81
   140c8:	18800015 	stw	r2,0(r3)
  }
  return -1;
   140cc:	00bfffc4 	movi	r2,-1
}
   140d0:	e037883a 	mov	sp,fp
   140d4:	dfc00117 	ldw	ra,4(sp)
   140d8:	df000017 	ldw	fp,0(sp)
   140dc:	dec00204 	addi	sp,sp,8
   140e0:	f800283a 	ret

000140e4 <alt_release_fd>:
 * File descriptors correcponding to standard in, standard out and standard 
 * error cannont be released backed to the pool. They are always reserved.
 */

void alt_release_fd (int fd)
{
   140e4:	defffe04 	addi	sp,sp,-8
   140e8:	df000115 	stw	fp,4(sp)
   140ec:	df000104 	addi	fp,sp,4
   140f0:	e13fff15 	stw	r4,-4(fp)
  if (fd > 2)
   140f4:	e0bfff17 	ldw	r2,-4(fp)
   140f8:	108000d0 	cmplti	r2,r2,3
   140fc:	10000d1e 	bne	r2,zero,14134 <alt_release_fd+0x50>
  {
    alt_fd_list[fd].fd_flags = 0;
   14100:	00800074 	movhi	r2,1
   14104:	109a0304 	addi	r2,r2,26636
   14108:	e0ffff17 	ldw	r3,-4(fp)
   1410c:	18c00324 	muli	r3,r3,12
   14110:	10c5883a 	add	r2,r2,r3
   14114:	10800204 	addi	r2,r2,8
   14118:	10000015 	stw	zero,0(r2)
    alt_fd_list[fd].dev      = 0;
   1411c:	00800074 	movhi	r2,1
   14120:	109a0304 	addi	r2,r2,26636
   14124:	e0ffff17 	ldw	r3,-4(fp)
   14128:	18c00324 	muli	r3,r3,12
   1412c:	10c5883a 	add	r2,r2,r3
   14130:	10000015 	stw	zero,0(r2)
  }
}
   14134:	0001883a 	nop
   14138:	e037883a 	mov	sp,fp
   1413c:	df000017 	ldw	fp,0(sp)
   14140:	dec00104 	addi	sp,sp,4
   14144:	f800283a 	ret

00014148 <sbrk>:
#endif
 
caddr_t ALT_SBRK (int incr) __attribute__ ((no_instrument_function ));

caddr_t ALT_SBRK (int incr)
{ 
   14148:	defff904 	addi	sp,sp,-28
   1414c:	df000615 	stw	fp,24(sp)
   14150:	df000604 	addi	fp,sp,24
   14154:	e13fff15 	stw	r4,-4(fp)
static ALT_INLINE alt_irq_context ALT_ALWAYS_INLINE 
       alt_irq_disable_all (void)
{
  alt_irq_context context;

  NIOS2_READ_STATUS (context);
   14158:	0005303a 	rdctl	r2,status
   1415c:	e0bffe15 	stw	r2,-8(fp)

  NIOS2_WRITE_STATUS (context & ~NIOS2_STATUS_PIE_MSK);
   14160:	e0fffe17 	ldw	r3,-8(fp)
   14164:	00bfff84 	movi	r2,-2
   14168:	1884703a 	and	r2,r3,r2
   1416c:	1001703a 	wrctl	status,r2
  
  return context;
   14170:	e0bffe17 	ldw	r2,-8(fp)
  alt_irq_context context;
  char *prev_heap_end; 

  context = alt_irq_disable_all();
   14174:	e0bffb15 	stw	r2,-20(fp)

  /* Always return data aligned on a word boundary */
  heap_end = (char *)(((unsigned int)heap_end + 3) & ~3);
   14178:	d0a00c17 	ldw	r2,-32720(gp)
   1417c:	10c000c4 	addi	r3,r2,3
   14180:	00bfff04 	movi	r2,-4
   14184:	1884703a 	and	r2,r3,r2
   14188:	d0a00c15 	stw	r2,-32720(gp)
  if (((heap_end + incr) - __alt_heap_start) > ALT_MAX_HEAP_BYTES) {
    alt_irq_enable_all(context);
    return (caddr_t)-1;
  }
#else
  if ((heap_end + incr) > __alt_heap_limit) {
   1418c:	d0e00c17 	ldw	r3,-32720(gp)
   14190:	e0bfff17 	ldw	r2,-4(fp)
   14194:	1887883a 	add	r3,r3,r2
   14198:	008000b4 	movhi	r2,2
   1419c:	10a80004 	addi	r2,r2,-24576
   141a0:	10c0062e 	bgeu	r2,r3,141bc <sbrk+0x74>
   141a4:	e0bffb17 	ldw	r2,-20(fp)
   141a8:	e0bffa15 	stw	r2,-24(fp)
  status &= ~NIOS2_STATUS_PIE_MSK;
  status |= (context & NIOS2_STATUS_PIE_MSK);
  
  NIOS2_WRITE_STATUS (status);
#else
  NIOS2_WRITE_STATUS (context);
   141ac:	e0bffa17 	ldw	r2,-24(fp)
   141b0:	1001703a 	wrctl	status,r2
    alt_irq_enable_all(context);
    return (caddr_t)-1;
   141b4:	00bfffc4 	movi	r2,-1
   141b8:	00000b06 	br	141e8 <sbrk+0xa0>
  }
#endif

  prev_heap_end = heap_end; 
   141bc:	d0a00c17 	ldw	r2,-32720(gp)
   141c0:	e0bffd15 	stw	r2,-12(fp)
  heap_end += incr; 
   141c4:	d0e00c17 	ldw	r3,-32720(gp)
   141c8:	e0bfff17 	ldw	r2,-4(fp)
   141cc:	1885883a 	add	r2,r3,r2
   141d0:	d0a00c15 	stw	r2,-32720(gp)
   141d4:	e0bffb17 	ldw	r2,-20(fp)
   141d8:	e0bffc15 	stw	r2,-16(fp)
   141dc:	e0bffc17 	ldw	r2,-16(fp)
   141e0:	1001703a 	wrctl	status,r2

#endif

  alt_irq_enable_all(context);

  return (caddr_t) prev_heap_end; 
   141e4:	e0bffd17 	ldw	r2,-12(fp)
} 
   141e8:	e037883a 	mov	sp,fp
   141ec:	df000017 	ldw	fp,0(sp)
   141f0:	dec00104 	addi	sp,sp,4
   141f4:	f800283a 	ret

000141f8 <alt_get_errno>:
#undef errno

extern int errno;

static ALT_INLINE int* alt_get_errno(void)
{
   141f8:	defffe04 	addi	sp,sp,-8
   141fc:	dfc00115 	stw	ra,4(sp)
   14200:	df000015 	stw	fp,0(sp)
   14204:	d839883a 	mov	fp,sp
  return ((alt_errno) ? alt_errno() : &errno);
   14208:	d0a00a17 	ldw	r2,-32728(gp)
   1420c:	10000326 	beq	r2,zero,1421c <alt_get_errno+0x24>
   14210:	d0a00a17 	ldw	r2,-32728(gp)
   14214:	103ee83a 	callr	r2
   14218:	00000106 	br	14220 <alt_get_errno+0x28>
   1421c:	d0a6ba04 	addi	r2,gp,-25880
}
   14220:	e037883a 	mov	sp,fp
   14224:	dfc00117 	ldw	ra,4(sp)
   14228:	df000017 	ldw	fp,0(sp)
   1422c:	dec00204 	addi	sp,sp,8
   14230:	f800283a 	ret

00014234 <write>:
}

#else /* !ALT_USE_DIRECT_DRIVERS */

int ALT_WRITE (int file, const void *ptr, size_t len)
{
   14234:	defff904 	addi	sp,sp,-28
   14238:	dfc00615 	stw	ra,24(sp)
   1423c:	df000515 	stw	fp,20(sp)
   14240:	df000504 	addi	fp,sp,20
   14244:	e13ffd15 	stw	r4,-12(fp)
   14248:	e17ffe15 	stw	r5,-8(fp)
   1424c:	e1bfff15 	stw	r6,-4(fp)
   * A common error case is that when the file descriptor was created, the call
   * to open() failed resulting in a negative file descriptor. This is trapped
   * below so that we don't try and process an invalid file descriptor.
   */

  fd = (file < 0) ? NULL : &alt_fd_list[file];
   14250:	e0bffd17 	ldw	r2,-12(fp)
   14254:	10000616 	blt	r2,zero,14270 <write+0x3c>
   14258:	e0bffd17 	ldw	r2,-12(fp)
   1425c:	10c00324 	muli	r3,r2,12
   14260:	00800074 	movhi	r2,1
   14264:	109a0304 	addi	r2,r2,26636
   14268:	1885883a 	add	r2,r3,r2
   1426c:	00000106 	br	14274 <write+0x40>
   14270:	0005883a 	mov	r2,zero
   14274:	e0bffb15 	stw	r2,-20(fp)
  
  if (fd)
   14278:	e0bffb17 	ldw	r2,-20(fp)
   1427c:	10002126 	beq	r2,zero,14304 <write+0xd0>
     * If the file has not been opened with write access, or if the driver does
     * not provide an implementation of write(), generate an error. Otherwise
     * call the drivers write() function to process the request.
     */

    if (((fd->fd_flags & O_ACCMODE) != O_RDONLY) && fd->dev->write)
   14280:	e0bffb17 	ldw	r2,-20(fp)
   14284:	10800217 	ldw	r2,8(r2)
   14288:	108000cc 	andi	r2,r2,3
   1428c:	10001826 	beq	r2,zero,142f0 <write+0xbc>
   14290:	e0bffb17 	ldw	r2,-20(fp)
   14294:	10800017 	ldw	r2,0(r2)
   14298:	10800617 	ldw	r2,24(r2)
   1429c:	10001426 	beq	r2,zero,142f0 <write+0xbc>
    {
      
      /* ALT_LOG - see altera_hal/HAL/inc/sys/alt_log_printf.h */
      ALT_LOG_WRITE_FUNCTION(ptr,len);

      if ((rval = fd->dev->write(fd, ptr, len)) < 0)
   142a0:	e0bffb17 	ldw	r2,-20(fp)
   142a4:	10800017 	ldw	r2,0(r2)
   142a8:	10800617 	ldw	r2,24(r2)
   142ac:	e0ffff17 	ldw	r3,-4(fp)
   142b0:	180d883a 	mov	r6,r3
   142b4:	e17ffe17 	ldw	r5,-8(fp)
   142b8:	e13ffb17 	ldw	r4,-20(fp)
   142bc:	103ee83a 	callr	r2
   142c0:	e0bffc15 	stw	r2,-16(fp)
   142c4:	e0bffc17 	ldw	r2,-16(fp)
   142c8:	1000070e 	bge	r2,zero,142e8 <write+0xb4>
      {
        ALT_ERRNO = -rval;
   142cc:	00141f80 	call	141f8 <alt_get_errno>
   142d0:	1007883a 	mov	r3,r2
   142d4:	e0bffc17 	ldw	r2,-16(fp)
   142d8:	0085c83a 	sub	r2,zero,r2
   142dc:	18800015 	stw	r2,0(r3)
        return -1;
   142e0:	00bfffc4 	movi	r2,-1
   142e4:	00000c06 	br	14318 <write+0xe4>
      }
      return rval;
   142e8:	e0bffc17 	ldw	r2,-16(fp)
   142ec:	00000a06 	br	14318 <write+0xe4>
    }
    else
    {
      ALT_ERRNO = EACCES;
   142f0:	00141f80 	call	141f8 <alt_get_errno>
   142f4:	1007883a 	mov	r3,r2
   142f8:	00800344 	movi	r2,13
   142fc:	18800015 	stw	r2,0(r3)
   14300:	00000406 	br	14314 <write+0xe0>
    }
  }
  else  
  {
    ALT_ERRNO = EBADFD;
   14304:	00141f80 	call	141f8 <alt_get_errno>
   14308:	1007883a 	mov	r3,r2
   1430c:	00801444 	movi	r2,81
   14310:	18800015 	stw	r2,0(r3)
  }
  return -1;
   14314:	00bfffc4 	movi	r2,-1
}
   14318:	e037883a 	mov	sp,fp
   1431c:	dfc00117 	ldw	ra,4(sp)
   14320:	df000017 	ldw	fp,0(sp)
   14324:	dec00204 	addi	sp,sp,8
   14328:	f800283a 	ret

0001432c <alt_dev_reg>:
 */

extern int alt_fs_reg  (alt_dev* dev); 

static ALT_INLINE int alt_dev_reg (alt_dev* dev)
{
   1432c:	defffd04 	addi	sp,sp,-12
   14330:	dfc00215 	stw	ra,8(sp)
   14334:	df000115 	stw	fp,4(sp)
   14338:	df000104 	addi	fp,sp,4
   1433c:	e13fff15 	stw	r4,-4(fp)
  extern alt_llist alt_dev_list;

  return alt_dev_llist_insert ((alt_dev_llist*) dev, &alt_dev_list);
   14340:	d1600704 	addi	r5,gp,-32740
   14344:	e13fff17 	ldw	r4,-4(fp)
   14348:	00150e00 	call	150e0 <alt_dev_llist_insert>
}
   1434c:	e037883a 	mov	sp,fp
   14350:	dfc00117 	ldw	ra,4(sp)
   14354:	df000017 	ldw	fp,0(sp)
   14358:	dec00204 	addi	sp,sp,8
   1435c:	f800283a 	ret

00014360 <alt_irq_init>:
 * The "base" parameter is ignored and only
 * present for backwards-compatibility.
 */

void alt_irq_init ( const void* base )
{
   14360:	defffd04 	addi	sp,sp,-12
   14364:	dfc00215 	stw	ra,8(sp)
   14368:	df000115 	stw	fp,4(sp)
   1436c:	df000104 	addi	fp,sp,4
   14370:	e13fff15 	stw	r4,-4(fp)
    ALTERA_NIOS2_GEN2_IRQ_INIT ( NIOSII_CPU, NiosII_CPU);
   14374:	001584c0 	call	1584c <altera_nios2_gen2_irq_init>
 * alt_irq_cpu_enable_interrupts() enables the CPU to start taking interrupts.
 */
static ALT_INLINE void ALT_ALWAYS_INLINE 
       alt_irq_cpu_enable_interrupts (void)
{
    NIOS2_WRITE_STATUS(NIOS2_STATUS_PIE_MSK
   14378:	00800044 	movi	r2,1
   1437c:	1001703a 	wrctl	status,r2
    alt_irq_cpu_enable_interrupts();
}
   14380:	0001883a 	nop
   14384:	e037883a 	mov	sp,fp
   14388:	dfc00117 	ldw	ra,4(sp)
   1438c:	df000017 	ldw	fp,0(sp)
   14390:	dec00204 	addi	sp,sp,8
   14394:	f800283a 	ret

00014398 <alt_sys_init>:
 * Initialize the non-interrupt controller devices.
 * Called after alt_irq_init().
 */

void alt_sys_init( void )
{
   14398:	defffe04 	addi	sp,sp,-8
   1439c:	dfc00115 	stw	ra,4(sp)
   143a0:	df000015 	stw	fp,0(sp)
   143a4:	d839883a 	mov	fp,sp
    ALTERA_AVALON_TIMER_INIT ( SYS_CLK_TIMER, SYS_CLK_timer);
   143a8:	01c0fa04 	movi	r7,1000
   143ac:	000d883a 	mov	r6,zero
   143b0:	000b883a 	mov	r5,zero
   143b4:	010000b4 	movhi	r4,2
   143b8:	21040804 	addi	r4,r4,4128
   143bc:	0014edc0 	call	14edc <alt_avalon_timer_sc_init>
    ALTERA_AVALON_TIMER_INIT ( TIMER_SECOND, timer_second);
    ALTERA_AVALON_JTAG_UART_INIT ( JTAG_UART_0, jtag_uart_0);
   143c0:	01800404 	movi	r6,16
   143c4:	000b883a 	mov	r5,zero
   143c8:	01000074 	movhi	r4,1
   143cc:	211a6d04 	addi	r4,r4,27060
   143d0:	00145600 	call	14560 <altera_avalon_jtag_uart_init>
   143d4:	01000074 	movhi	r4,1
   143d8:	211a6304 	addi	r4,r4,27020
   143dc:	001432c0 	call	1432c <alt_dev_reg>
    ALTERA_AVALON_SYSID_QSYS_INIT ( SYSID_QSYS_0, sysid_qsys_0);
   143e0:	0001883a 	nop
}
   143e4:	0001883a 	nop
   143e8:	e037883a 	mov	sp,fp
   143ec:	dfc00117 	ldw	ra,4(sp)
   143f0:	df000017 	ldw	fp,0(sp)
   143f4:	dec00204 	addi	sp,sp,8
   143f8:	f800283a 	ret

000143fc <altera_avalon_jtag_uart_read_fd>:
 *
 */

int 
altera_avalon_jtag_uart_read_fd(alt_fd* fd, char* buffer, int space)
{
   143fc:	defffa04 	addi	sp,sp,-24
   14400:	dfc00515 	stw	ra,20(sp)
   14404:	df000415 	stw	fp,16(sp)
   14408:	df000404 	addi	fp,sp,16
   1440c:	e13ffd15 	stw	r4,-12(fp)
   14410:	e17ffe15 	stw	r5,-8(fp)
   14414:	e1bfff15 	stw	r6,-4(fp)
    altera_avalon_jtag_uart_dev* dev = (altera_avalon_jtag_uart_dev*) fd->dev; 
   14418:	e0bffd17 	ldw	r2,-12(fp)
   1441c:	10800017 	ldw	r2,0(r2)
   14420:	e0bffc15 	stw	r2,-16(fp)

    return altera_avalon_jtag_uart_read(&dev->state, buffer, space,
   14424:	e0bffc17 	ldw	r2,-16(fp)
   14428:	10c00a04 	addi	r3,r2,40
   1442c:	e0bffd17 	ldw	r2,-12(fp)
   14430:	10800217 	ldw	r2,8(r2)
   14434:	100f883a 	mov	r7,r2
   14438:	e1bfff17 	ldw	r6,-4(fp)
   1443c:	e17ffe17 	ldw	r5,-8(fp)
   14440:	1809883a 	mov	r4,r3
   14444:	0014a240 	call	14a24 <altera_avalon_jtag_uart_read>
      fd->fd_flags);
}
   14448:	e037883a 	mov	sp,fp
   1444c:	dfc00117 	ldw	ra,4(sp)
   14450:	df000017 	ldw	fp,0(sp)
   14454:	dec00204 	addi	sp,sp,8
   14458:	f800283a 	ret

0001445c <altera_avalon_jtag_uart_write_fd>:

int 
altera_avalon_jtag_uart_write_fd(alt_fd* fd, const char* buffer, int space)
{
   1445c:	defffa04 	addi	sp,sp,-24
   14460:	dfc00515 	stw	ra,20(sp)
   14464:	df000415 	stw	fp,16(sp)
   14468:	df000404 	addi	fp,sp,16
   1446c:	e13ffd15 	stw	r4,-12(fp)
   14470:	e17ffe15 	stw	r5,-8(fp)
   14474:	e1bfff15 	stw	r6,-4(fp)
    altera_avalon_jtag_uart_dev* dev = (altera_avalon_jtag_uart_dev*) fd->dev; 
   14478:	e0bffd17 	ldw	r2,-12(fp)
   1447c:	10800017 	ldw	r2,0(r2)
   14480:	e0bffc15 	stw	r2,-16(fp)

    return altera_avalon_jtag_uart_write(&dev->state, buffer, space,
   14484:	e0bffc17 	ldw	r2,-16(fp)
   14488:	10c00a04 	addi	r3,r2,40
   1448c:	e0bffd17 	ldw	r2,-12(fp)
   14490:	10800217 	ldw	r2,8(r2)
   14494:	100f883a 	mov	r7,r2
   14498:	e1bfff17 	ldw	r6,-4(fp)
   1449c:	e17ffe17 	ldw	r5,-8(fp)
   144a0:	1809883a 	mov	r4,r3
   144a4:	0014c400 	call	14c40 <altera_avalon_jtag_uart_write>
      fd->fd_flags);
}
   144a8:	e037883a 	mov	sp,fp
   144ac:	dfc00117 	ldw	ra,4(sp)
   144b0:	df000017 	ldw	fp,0(sp)
   144b4:	dec00204 	addi	sp,sp,8
   144b8:	f800283a 	ret

000144bc <altera_avalon_jtag_uart_close_fd>:

#ifndef ALTERA_AVALON_JTAG_UART_SMALL

int 
altera_avalon_jtag_uart_close_fd(alt_fd* fd)
{
   144bc:	defffc04 	addi	sp,sp,-16
   144c0:	dfc00315 	stw	ra,12(sp)
   144c4:	df000215 	stw	fp,8(sp)
   144c8:	df000204 	addi	fp,sp,8
   144cc:	e13fff15 	stw	r4,-4(fp)
    altera_avalon_jtag_uart_dev* dev = (altera_avalon_jtag_uart_dev*) fd->dev; 
   144d0:	e0bfff17 	ldw	r2,-4(fp)
   144d4:	10800017 	ldw	r2,0(r2)
   144d8:	e0bffe15 	stw	r2,-8(fp)

    return altera_avalon_jtag_uart_close(&dev->state, fd->fd_flags);
   144dc:	e0bffe17 	ldw	r2,-8(fp)
   144e0:	10c00a04 	addi	r3,r2,40
   144e4:	e0bfff17 	ldw	r2,-4(fp)
   144e8:	10800217 	ldw	r2,8(r2)
   144ec:	100b883a 	mov	r5,r2
   144f0:	1809883a 	mov	r4,r3
   144f4:	00148cc0 	call	148cc <altera_avalon_jtag_uart_close>
}
   144f8:	e037883a 	mov	sp,fp
   144fc:	dfc00117 	ldw	ra,4(sp)
   14500:	df000017 	ldw	fp,0(sp)
   14504:	dec00204 	addi	sp,sp,8
   14508:	f800283a 	ret

0001450c <altera_avalon_jtag_uart_ioctl_fd>:

int 
altera_avalon_jtag_uart_ioctl_fd(alt_fd* fd, int req, void* arg)
{
   1450c:	defffa04 	addi	sp,sp,-24
   14510:	dfc00515 	stw	ra,20(sp)
   14514:	df000415 	stw	fp,16(sp)
   14518:	df000404 	addi	fp,sp,16
   1451c:	e13ffd15 	stw	r4,-12(fp)
   14520:	e17ffe15 	stw	r5,-8(fp)
   14524:	e1bfff15 	stw	r6,-4(fp)
    altera_avalon_jtag_uart_dev* dev = (altera_avalon_jtag_uart_dev*) fd->dev;
   14528:	e0bffd17 	ldw	r2,-12(fp)
   1452c:	10800017 	ldw	r2,0(r2)
   14530:	e0bffc15 	stw	r2,-16(fp)

    return altera_avalon_jtag_uart_ioctl(&dev->state, req, arg);
   14534:	e0bffc17 	ldw	r2,-16(fp)
   14538:	10800a04 	addi	r2,r2,40
   1453c:	e1bfff17 	ldw	r6,-4(fp)
   14540:	e17ffe17 	ldw	r5,-8(fp)
   14544:	1009883a 	mov	r4,r2
   14548:	00149340 	call	14934 <altera_avalon_jtag_uart_ioctl>
}
   1454c:	e037883a 	mov	sp,fp
   14550:	dfc00117 	ldw	ra,4(sp)
   14554:	df000017 	ldw	fp,0(sp)
   14558:	dec00204 	addi	sp,sp,8
   1455c:	f800283a 	ret

00014560 <altera_avalon_jtag_uart_init>:
 * Return 1 on sucessful IRQ register and 0 on failure.
 */

void altera_avalon_jtag_uart_init(altera_avalon_jtag_uart_state* sp, 
                                  int irq_controller_id, int irq)
{
   14560:	defffa04 	addi	sp,sp,-24
   14564:	dfc00515 	stw	ra,20(sp)
   14568:	df000415 	stw	fp,16(sp)
   1456c:	df000404 	addi	fp,sp,16
   14570:	e13ffd15 	stw	r4,-12(fp)
   14574:	e17ffe15 	stw	r5,-8(fp)
   14578:	e1bfff15 	stw	r6,-4(fp)
  ALT_FLAG_CREATE(&sp->events, 0);
  ALT_SEM_CREATE(&sp->read_lock, 1);
  ALT_SEM_CREATE(&sp->write_lock, 1);

  /* enable read interrupts at the device */
  sp->irq_enable = ALTERA_AVALON_JTAG_UART_CONTROL_RE_MSK;
   1457c:	e0bffd17 	ldw	r2,-12(fp)
   14580:	00c00044 	movi	r3,1
   14584:	10c00815 	stw	r3,32(r2)

  IOWR_ALTERA_AVALON_JTAG_UART_CONTROL(sp->base, sp->irq_enable); 
   14588:	e0bffd17 	ldw	r2,-12(fp)
   1458c:	10800017 	ldw	r2,0(r2)
   14590:	10800104 	addi	r2,r2,4
   14594:	1007883a 	mov	r3,r2
   14598:	e0bffd17 	ldw	r2,-12(fp)
   1459c:	10800817 	ldw	r2,32(r2)
   145a0:	18800035 	stwio	r2,0(r3)
  
  /* register the interrupt handler */
#ifdef ALT_ENHANCED_INTERRUPT_API_PRESENT
  alt_ic_isr_register(irq_controller_id, irq, altera_avalon_jtag_uart_irq, 
   145a4:	e0bffe17 	ldw	r2,-8(fp)
   145a8:	e0ffff17 	ldw	r3,-4(fp)
   145ac:	d8000015 	stw	zero,0(sp)
   145b0:	e1fffd17 	ldw	r7,-12(fp)
   145b4:	01800074 	movhi	r6,1
   145b8:	31918804 	addi	r6,r6,17952
   145bc:	180b883a 	mov	r5,r3
   145c0:	1009883a 	mov	r4,r2
   145c4:	001396c0 	call	1396c <alt_ic_isr_register>
#else
  alt_irq_register(irq, sp, altera_avalon_jtag_uart_irq);
#endif  

  /* Register an alarm to go off every second to check for presence of host */
  sp->host_inactive = 0;
   145c8:	e0bffd17 	ldw	r2,-12(fp)
   145cc:	10000915 	stw	zero,36(r2)

  if (alt_alarm_start(&sp->alarm, alt_ticks_per_second(), 
   145d0:	e0bffd17 	ldw	r2,-12(fp)
   145d4:	10800204 	addi	r2,r2,8
 * Obtain the system clock rate in ticks/s. 
 */

static ALT_INLINE alt_u32 ALT_ALWAYS_INLINE alt_ticks_per_second (void)
{
  return _alt_tick_rate;
   145d8:	d0e6c017 	ldw	r3,-25856(gp)
   145dc:	e1fffd17 	ldw	r7,-12(fp)
   145e0:	01800074 	movhi	r6,1
   145e4:	31920b04 	addi	r6,r6,18476
   145e8:	180b883a 	mov	r5,r3
   145ec:	1009883a 	mov	r4,r2
   145f0:	0014f580 	call	14f58 <alt_alarm_start>
   145f4:	1000040e 	bge	r2,zero,14608 <altera_avalon_jtag_uart_init+0xa8>
    &altera_avalon_jtag_uart_timeout, sp) < 0)
  {
    /* If we can't set the alarm then record "don't know if host present" 
     * and behave as though the host is present.
     */
    sp->timeout = INT_MAX;
   145f8:	e0fffd17 	ldw	r3,-12(fp)
   145fc:	00a00034 	movhi	r2,32768
   14600:	10bfffc4 	addi	r2,r2,-1
   14604:	18800115 	stw	r2,4(r3)
  }

  /* ALT_LOG - see altera_hal/HAL/inc/sys/alt_log_printf.h */ 
  ALT_LOG_JTAG_UART_ALARM_REGISTER(sp, sp->base);
}
   14608:	0001883a 	nop
   1460c:	e037883a 	mov	sp,fp
   14610:	dfc00117 	ldw	ra,4(sp)
   14614:	df000017 	ldw	fp,0(sp)
   14618:	dec00204 	addi	sp,sp,8
   1461c:	f800283a 	ret

00014620 <altera_avalon_jtag_uart_irq>:
#ifdef ALT_ENHANCED_INTERRUPT_API_PRESENT
static void altera_avalon_jtag_uart_irq(void* context)
#else
static void altera_avalon_jtag_uart_irq(void* context, alt_u32 id)
#endif
{
   14620:	defff804 	addi	sp,sp,-32
   14624:	df000715 	stw	fp,28(sp)
   14628:	df000704 	addi	fp,sp,28
   1462c:	e13fff15 	stw	r4,-4(fp)
  altera_avalon_jtag_uart_state* sp = (altera_avalon_jtag_uart_state*) context;
   14630:	e0bfff17 	ldw	r2,-4(fp)
   14634:	e0bffb15 	stw	r2,-20(fp)
  unsigned int base = sp->base;
   14638:	e0bffb17 	ldw	r2,-20(fp)
   1463c:	10800017 	ldw	r2,0(r2)
   14640:	e0bffc15 	stw	r2,-16(fp)
  /* ALT_LOG - see altera_hal/HAL/inc/sys/alt_log_printf.h */ 
  ALT_LOG_JTAG_UART_ISR_FUNCTION(base, sp);

  for ( ; ; )
  {
    unsigned int control = IORD_ALTERA_AVALON_JTAG_UART_CONTROL(base);
   14644:	e0bffc17 	ldw	r2,-16(fp)
   14648:	10800104 	addi	r2,r2,4
   1464c:	10800037 	ldwio	r2,0(r2)
   14650:	e0bffd15 	stw	r2,-12(fp)

    /* Return once nothing more to do */
    if ((control & (ALTERA_AVALON_JTAG_UART_CONTROL_RI_MSK | ALTERA_AVALON_JTAG_UART_CONTROL_WI_MSK)) == 0)
   14654:	e0bffd17 	ldw	r2,-12(fp)
   14658:	1080c00c 	andi	r2,r2,768
   1465c:	10006d26 	beq	r2,zero,14814 <altera_avalon_jtag_uart_irq+0x1f4>
      break;

    if (control & ALTERA_AVALON_JTAG_UART_CONTROL_RI_MSK)
   14660:	e0bffd17 	ldw	r2,-12(fp)
   14664:	1080400c 	andi	r2,r2,256
   14668:	10003526 	beq	r2,zero,14740 <altera_avalon_jtag_uart_irq+0x120>
    {
      /* process a read irq.  Start by assuming that there is data in the
       * receive FIFO (otherwise why would we have been interrupted?)
       */
      unsigned int data = 1 << ALTERA_AVALON_JTAG_UART_DATA_RAVAIL_OFST;
   1466c:	00800074 	movhi	r2,1
   14670:	e0bff915 	stw	r2,-28(fp)
      for ( ; ; )
      {
        /* Check whether there is space in the buffer.  If not then we must not
         * read any characters from the buffer as they will be lost.
         */
        unsigned int next = (sp->rx_in + 1) % ALTERA_AVALON_JTAG_UART_BUF_LEN;
   14674:	e0bffb17 	ldw	r2,-20(fp)
   14678:	10800a17 	ldw	r2,40(r2)
   1467c:	10800044 	addi	r2,r2,1
   14680:	1081ffcc 	andi	r2,r2,2047
   14684:	e0bffe15 	stw	r2,-8(fp)
        if (next == sp->rx_out)
   14688:	e0bffb17 	ldw	r2,-20(fp)
   1468c:	10c00b17 	ldw	r3,44(r2)
   14690:	e0bffe17 	ldw	r2,-8(fp)
   14694:	18801526 	beq	r3,r2,146ec <altera_avalon_jtag_uart_irq+0xcc>
          break;

        /* Try to remove a character from the FIFO and find out whether there
         * are any more characters remaining.
         */
        data = IORD_ALTERA_AVALON_JTAG_UART_DATA(base);
   14698:	e0bffc17 	ldw	r2,-16(fp)
   1469c:	10800037 	ldwio	r2,0(r2)
   146a0:	e0bff915 	stw	r2,-28(fp)
        
        if ((data & ALTERA_AVALON_JTAG_UART_DATA_RVALID_MSK) == 0)
   146a4:	e0bff917 	ldw	r2,-28(fp)
   146a8:	10a0000c 	andi	r2,r2,32768
   146ac:	10001126 	beq	r2,zero,146f4 <altera_avalon_jtag_uart_irq+0xd4>
          break;

        sp->rx_buf[sp->rx_in] = (data & ALTERA_AVALON_JTAG_UART_DATA_DATA_MSK) >> ALTERA_AVALON_JTAG_UART_DATA_DATA_OFST;
   146b0:	e0bffb17 	ldw	r2,-20(fp)
   146b4:	10800a17 	ldw	r2,40(r2)
   146b8:	e0fff917 	ldw	r3,-28(fp)
   146bc:	1809883a 	mov	r4,r3
   146c0:	e0fffb17 	ldw	r3,-20(fp)
   146c4:	1885883a 	add	r2,r3,r2
   146c8:	10800e04 	addi	r2,r2,56
   146cc:	11000005 	stb	r4,0(r2)
        sp->rx_in = (sp->rx_in + 1) % ALTERA_AVALON_JTAG_UART_BUF_LEN;
   146d0:	e0bffb17 	ldw	r2,-20(fp)
   146d4:	10800a17 	ldw	r2,40(r2)
   146d8:	10800044 	addi	r2,r2,1
   146dc:	10c1ffcc 	andi	r3,r2,2047
   146e0:	e0bffb17 	ldw	r2,-20(fp)
   146e4:	10c00a15 	stw	r3,40(r2)

        /* Post an event to notify jtag_uart_read that a character has been read */
        ALT_FLAG_POST (sp->events, ALT_JTAG_UART_READ_RDY, OS_FLAG_SET);
      }
   146e8:	003fe206 	br	14674 <_gp+0xffff4c88>
        /* Check whether there is space in the buffer.  If not then we must not
         * read any characters from the buffer as they will be lost.
         */
        unsigned int next = (sp->rx_in + 1) % ALTERA_AVALON_JTAG_UART_BUF_LEN;
        if (next == sp->rx_out)
          break;
   146ec:	0001883a 	nop
   146f0:	00000106 	br	146f8 <altera_avalon_jtag_uart_irq+0xd8>
         * are any more characters remaining.
         */
        data = IORD_ALTERA_AVALON_JTAG_UART_DATA(base);
        
        if ((data & ALTERA_AVALON_JTAG_UART_DATA_RVALID_MSK) == 0)
          break;
   146f4:	0001883a 	nop

        /* Post an event to notify jtag_uart_read that a character has been read */
        ALT_FLAG_POST (sp->events, ALT_JTAG_UART_READ_RDY, OS_FLAG_SET);
      }

      if (data & ALTERA_AVALON_JTAG_UART_DATA_RAVAIL_MSK)
   146f8:	e0bff917 	ldw	r2,-28(fp)
   146fc:	10bfffec 	andhi	r2,r2,65535
   14700:	10000f26 	beq	r2,zero,14740 <altera_avalon_jtag_uart_irq+0x120>
      {
        /* If there is still data available here then the buffer is full 
         * so turn off receive interrupts until some space becomes available.
         */
        sp->irq_enable &= ~ALTERA_AVALON_JTAG_UART_CONTROL_RE_MSK;
   14704:	e0bffb17 	ldw	r2,-20(fp)
   14708:	10c00817 	ldw	r3,32(r2)
   1470c:	00bfff84 	movi	r2,-2
   14710:	1886703a 	and	r3,r3,r2
   14714:	e0bffb17 	ldw	r2,-20(fp)
   14718:	10c00815 	stw	r3,32(r2)
        IOWR_ALTERA_AVALON_JTAG_UART_CONTROL(base, sp->irq_enable);
   1471c:	e0bffc17 	ldw	r2,-16(fp)
   14720:	10800104 	addi	r2,r2,4
   14724:	1007883a 	mov	r3,r2
   14728:	e0bffb17 	ldw	r2,-20(fp)
   1472c:	10800817 	ldw	r2,32(r2)
   14730:	18800035 	stwio	r2,0(r3)
        
        /* Dummy read to ensure IRQ is cleared prior to ISR completion */
        IORD_ALTERA_AVALON_JTAG_UART_CONTROL(base);
   14734:	e0bffc17 	ldw	r2,-16(fp)
   14738:	10800104 	addi	r2,r2,4
   1473c:	10800037 	ldwio	r2,0(r2)
      }
    }

    if (control & ALTERA_AVALON_JTAG_UART_CONTROL_WI_MSK)
   14740:	e0bffd17 	ldw	r2,-12(fp)
   14744:	1080800c 	andi	r2,r2,512
   14748:	103fbe26 	beq	r2,zero,14644 <_gp+0xffff4c58>
    {
      /* process a write irq */
      unsigned int space = (control & ALTERA_AVALON_JTAG_UART_CONTROL_WSPACE_MSK) >> ALTERA_AVALON_JTAG_UART_CONTROL_WSPACE_OFST;
   1474c:	e0bffd17 	ldw	r2,-12(fp)
   14750:	1004d43a 	srli	r2,r2,16
   14754:	e0bffa15 	stw	r2,-24(fp)

      while (space > 0 && sp->tx_out != sp->tx_in)
   14758:	00001406 	br	147ac <altera_avalon_jtag_uart_irq+0x18c>
      {
        IOWR_ALTERA_AVALON_JTAG_UART_DATA(base, sp->tx_buf[sp->tx_out]);
   1475c:	e0bffc17 	ldw	r2,-16(fp)
   14760:	e0fffb17 	ldw	r3,-20(fp)
   14764:	18c00d17 	ldw	r3,52(r3)
   14768:	e13ffb17 	ldw	r4,-20(fp)
   1476c:	20c7883a 	add	r3,r4,r3
   14770:	18c20e04 	addi	r3,r3,2104
   14774:	18c00003 	ldbu	r3,0(r3)
   14778:	18c03fcc 	andi	r3,r3,255
   1477c:	18c0201c 	xori	r3,r3,128
   14780:	18ffe004 	addi	r3,r3,-128
   14784:	10c00035 	stwio	r3,0(r2)

        sp->tx_out = (sp->tx_out + 1) % ALTERA_AVALON_JTAG_UART_BUF_LEN;
   14788:	e0bffb17 	ldw	r2,-20(fp)
   1478c:	10800d17 	ldw	r2,52(r2)
   14790:	10800044 	addi	r2,r2,1
   14794:	10c1ffcc 	andi	r3,r2,2047
   14798:	e0bffb17 	ldw	r2,-20(fp)
   1479c:	10c00d15 	stw	r3,52(r2)

        /* Post an event to notify jtag_uart_write that a character has been written */
        ALT_FLAG_POST (sp->events, ALT_JTAG_UART_WRITE_RDY, OS_FLAG_SET);

        space--;
   147a0:	e0bffa17 	ldw	r2,-24(fp)
   147a4:	10bfffc4 	addi	r2,r2,-1
   147a8:	e0bffa15 	stw	r2,-24(fp)
    if (control & ALTERA_AVALON_JTAG_UART_CONTROL_WI_MSK)
    {
      /* process a write irq */
      unsigned int space = (control & ALTERA_AVALON_JTAG_UART_CONTROL_WSPACE_MSK) >> ALTERA_AVALON_JTAG_UART_CONTROL_WSPACE_OFST;

      while (space > 0 && sp->tx_out != sp->tx_in)
   147ac:	e0bffa17 	ldw	r2,-24(fp)
   147b0:	10000526 	beq	r2,zero,147c8 <altera_avalon_jtag_uart_irq+0x1a8>
   147b4:	e0bffb17 	ldw	r2,-20(fp)
   147b8:	10c00d17 	ldw	r3,52(r2)
   147bc:	e0bffb17 	ldw	r2,-20(fp)
   147c0:	10800c17 	ldw	r2,48(r2)
   147c4:	18bfe51e 	bne	r3,r2,1475c <_gp+0xffff4d70>
        ALT_FLAG_POST (sp->events, ALT_JTAG_UART_WRITE_RDY, OS_FLAG_SET);

        space--;
      }

      if (space > 0)
   147c8:	e0bffa17 	ldw	r2,-24(fp)
   147cc:	103f9d26 	beq	r2,zero,14644 <_gp+0xffff4c58>
      {
        /* If we don't have any more data available then turn off the TX interrupt */
        sp->irq_enable &= ~ALTERA_AVALON_JTAG_UART_CONTROL_WE_MSK;
   147d0:	e0bffb17 	ldw	r2,-20(fp)
   147d4:	10c00817 	ldw	r3,32(r2)
   147d8:	00bfff44 	movi	r2,-3
   147dc:	1886703a 	and	r3,r3,r2
   147e0:	e0bffb17 	ldw	r2,-20(fp)
   147e4:	10c00815 	stw	r3,32(r2)
        IOWR_ALTERA_AVALON_JTAG_UART_CONTROL(sp->base, sp->irq_enable);
   147e8:	e0bffb17 	ldw	r2,-20(fp)
   147ec:	10800017 	ldw	r2,0(r2)
   147f0:	10800104 	addi	r2,r2,4
   147f4:	1007883a 	mov	r3,r2
   147f8:	e0bffb17 	ldw	r2,-20(fp)
   147fc:	10800817 	ldw	r2,32(r2)
   14800:	18800035 	stwio	r2,0(r3)
        
        /* Dummy read to ensure IRQ is cleared prior to ISR completion */
        IORD_ALTERA_AVALON_JTAG_UART_CONTROL(base);
   14804:	e0bffc17 	ldw	r2,-16(fp)
   14808:	10800104 	addi	r2,r2,4
   1480c:	10800037 	ldwio	r2,0(r2)
      }
    }
  }
   14810:	003f8c06 	br	14644 <_gp+0xffff4c58>
  {
    unsigned int control = IORD_ALTERA_AVALON_JTAG_UART_CONTROL(base);

    /* Return once nothing more to do */
    if ((control & (ALTERA_AVALON_JTAG_UART_CONTROL_RI_MSK | ALTERA_AVALON_JTAG_UART_CONTROL_WI_MSK)) == 0)
      break;
   14814:	0001883a 	nop
        /* Dummy read to ensure IRQ is cleared prior to ISR completion */
        IORD_ALTERA_AVALON_JTAG_UART_CONTROL(base);
      }
    }
  }
}
   14818:	0001883a 	nop
   1481c:	e037883a 	mov	sp,fp
   14820:	df000017 	ldw	fp,0(sp)
   14824:	dec00104 	addi	sp,sp,4
   14828:	f800283a 	ret

0001482c <altera_avalon_jtag_uart_timeout>:
 * Timeout routine is called every second
 */

static alt_u32 
altera_avalon_jtag_uart_timeout(void* context) 
{
   1482c:	defff804 	addi	sp,sp,-32
   14830:	df000715 	stw	fp,28(sp)
   14834:	df000704 	addi	fp,sp,28
   14838:	e13ffb15 	stw	r4,-20(fp)
  altera_avalon_jtag_uart_state* sp = (altera_avalon_jtag_uart_state *) context;
   1483c:	e0bffb17 	ldw	r2,-20(fp)
   14840:	e0bff915 	stw	r2,-28(fp)

  unsigned int control = IORD_ALTERA_AVALON_JTAG_UART_CONTROL(sp->base);
   14844:	e0bff917 	ldw	r2,-28(fp)
   14848:	10800017 	ldw	r2,0(r2)
   1484c:	10800104 	addi	r2,r2,4
   14850:	10800037 	ldwio	r2,0(r2)
   14854:	e0bffa15 	stw	r2,-24(fp)

  if (control & ALTERA_AVALON_JTAG_UART_CONTROL_AC_MSK)
   14858:	e0bffa17 	ldw	r2,-24(fp)
   1485c:	1081000c 	andi	r2,r2,1024
   14860:	10000b26 	beq	r2,zero,14890 <altera_avalon_jtag_uart_timeout+0x64>
  {
    IOWR_ALTERA_AVALON_JTAG_UART_CONTROL(sp->base, sp->irq_enable | ALTERA_AVALON_JTAG_UART_CONTROL_AC_MSK);
   14864:	e0bff917 	ldw	r2,-28(fp)
   14868:	10800017 	ldw	r2,0(r2)
   1486c:	10800104 	addi	r2,r2,4
   14870:	1007883a 	mov	r3,r2
   14874:	e0bff917 	ldw	r2,-28(fp)
   14878:	10800817 	ldw	r2,32(r2)
   1487c:	10810014 	ori	r2,r2,1024
   14880:	18800035 	stwio	r2,0(r3)
    sp->host_inactive = 0;
   14884:	e0bff917 	ldw	r2,-28(fp)
   14888:	10000915 	stw	zero,36(r2)
   1488c:	00000a06 	br	148b8 <altera_avalon_jtag_uart_timeout+0x8c>
  }
  else if (sp->host_inactive < INT_MAX - 2) {
   14890:	e0bff917 	ldw	r2,-28(fp)
   14894:	10c00917 	ldw	r3,36(r2)
   14898:	00a00034 	movhi	r2,32768
   1489c:	10bfff04 	addi	r2,r2,-4
   148a0:	10c00536 	bltu	r2,r3,148b8 <altera_avalon_jtag_uart_timeout+0x8c>
    sp->host_inactive++;
   148a4:	e0bff917 	ldw	r2,-28(fp)
   148a8:	10800917 	ldw	r2,36(r2)
   148ac:	10c00044 	addi	r3,r2,1
   148b0:	e0bff917 	ldw	r2,-28(fp)
   148b4:	10c00915 	stw	r3,36(r2)
   148b8:	d0a6c017 	ldw	r2,-25856(gp)
      ALT_FLAG_POST (sp->events, ALT_JTAG_UART_TIMEOUT, OS_FLAG_SET);
    }
  }

  return alt_ticks_per_second();
}
   148bc:	e037883a 	mov	sp,fp
   148c0:	df000017 	ldw	fp,0(sp)
   148c4:	dec00104 	addi	sp,sp,4
   148c8:	f800283a 	ret

000148cc <altera_avalon_jtag_uart_close>:
 * The close routine is not implemented for the small driver; instead it will
 * map to null. This is because the small driver simply waits while characters
 * are transmitted; there is no interrupt-serviced buffer to empty 
 */
int altera_avalon_jtag_uart_close(altera_avalon_jtag_uart_state* sp, int flags)
{
   148cc:	defffd04 	addi	sp,sp,-12
   148d0:	df000215 	stw	fp,8(sp)
   148d4:	df000204 	addi	fp,sp,8
   148d8:	e13ffe15 	stw	r4,-8(fp)
   148dc:	e17fff15 	stw	r5,-4(fp)
  /* 
   * Wait for all transmit data to be emptied by the JTAG UART ISR, or
   * for a host-inactivity timeout, in which case transmit data will be lost
   */
  while ( (sp->tx_out != sp->tx_in) && (sp->host_inactive < sp->timeout) ) {
   148e0:	00000506 	br	148f8 <altera_avalon_jtag_uart_close+0x2c>
    if (flags & O_NONBLOCK) {
   148e4:	e0bfff17 	ldw	r2,-4(fp)
   148e8:	1090000c 	andi	r2,r2,16384
   148ec:	10000226 	beq	r2,zero,148f8 <altera_avalon_jtag_uart_close+0x2c>
      return -EWOULDBLOCK; 
   148f0:	00bffd44 	movi	r2,-11
   148f4:	00000b06 	br	14924 <altera_avalon_jtag_uart_close+0x58>
{
  /* 
   * Wait for all transmit data to be emptied by the JTAG UART ISR, or
   * for a host-inactivity timeout, in which case transmit data will be lost
   */
  while ( (sp->tx_out != sp->tx_in) && (sp->host_inactive < sp->timeout) ) {
   148f8:	e0bffe17 	ldw	r2,-8(fp)
   148fc:	10c00d17 	ldw	r3,52(r2)
   14900:	e0bffe17 	ldw	r2,-8(fp)
   14904:	10800c17 	ldw	r2,48(r2)
   14908:	18800526 	beq	r3,r2,14920 <altera_avalon_jtag_uart_close+0x54>
   1490c:	e0bffe17 	ldw	r2,-8(fp)
   14910:	10c00917 	ldw	r3,36(r2)
   14914:	e0bffe17 	ldw	r2,-8(fp)
   14918:	10800117 	ldw	r2,4(r2)
   1491c:	18bff136 	bltu	r3,r2,148e4 <_gp+0xffff4ef8>
    if (flags & O_NONBLOCK) {
      return -EWOULDBLOCK; 
    }
  }

  return 0;
   14920:	0005883a 	mov	r2,zero
}
   14924:	e037883a 	mov	sp,fp
   14928:	df000017 	ldw	fp,0(sp)
   1492c:	dec00104 	addi	sp,sp,4
   14930:	f800283a 	ret

00014934 <altera_avalon_jtag_uart_ioctl>:
/* ----------------------------------------------------------- */

int 
altera_avalon_jtag_uart_ioctl(altera_avalon_jtag_uart_state* sp, int req,
  void* arg)
{
   14934:	defffa04 	addi	sp,sp,-24
   14938:	df000515 	stw	fp,20(sp)
   1493c:	df000504 	addi	fp,sp,20
   14940:	e13ffd15 	stw	r4,-12(fp)
   14944:	e17ffe15 	stw	r5,-8(fp)
   14948:	e1bfff15 	stw	r6,-4(fp)
  int rc = -ENOTTY;
   1494c:	00bff9c4 	movi	r2,-25
   14950:	e0bffb15 	stw	r2,-20(fp)

  switch (req)
   14954:	e0bffe17 	ldw	r2,-8(fp)
   14958:	10da8060 	cmpeqi	r3,r2,27137
   1495c:	1800031e 	bne	r3,zero,1496c <altera_avalon_jtag_uart_ioctl+0x38>
   14960:	109a80a0 	cmpeqi	r2,r2,27138
   14964:	1000181e 	bne	r2,zero,149c8 <altera_avalon_jtag_uart_ioctl+0x94>
      rc = 0;
    }
    break;

  default:
    break;
   14968:	00002906 	br	14a10 <altera_avalon_jtag_uart_ioctl+0xdc>

  switch (req)
  {
  case TIOCSTIMEOUT:
    /* Set the time to wait until assuming host is not connected */
    if (sp->timeout != INT_MAX)
   1496c:	e0bffd17 	ldw	r2,-12(fp)
   14970:	10c00117 	ldw	r3,4(r2)
   14974:	00a00034 	movhi	r2,32768
   14978:	10bfffc4 	addi	r2,r2,-1
   1497c:	18802126 	beq	r3,r2,14a04 <altera_avalon_jtag_uart_ioctl+0xd0>
    {
      int timeout = *((int *)arg);
   14980:	e0bfff17 	ldw	r2,-4(fp)
   14984:	10800017 	ldw	r2,0(r2)
   14988:	e0bffc15 	stw	r2,-16(fp)
      sp->timeout = (timeout >= 2 && timeout < INT_MAX) ? timeout : INT_MAX - 1;
   1498c:	e0bffc17 	ldw	r2,-16(fp)
   14990:	10800090 	cmplti	r2,r2,2
   14994:	1000061e 	bne	r2,zero,149b0 <altera_avalon_jtag_uart_ioctl+0x7c>
   14998:	e0fffc17 	ldw	r3,-16(fp)
   1499c:	00a00034 	movhi	r2,32768
   149a0:	10bfffc4 	addi	r2,r2,-1
   149a4:	18800226 	beq	r3,r2,149b0 <altera_avalon_jtag_uart_ioctl+0x7c>
   149a8:	e0bffc17 	ldw	r2,-16(fp)
   149ac:	00000206 	br	149b8 <altera_avalon_jtag_uart_ioctl+0x84>
   149b0:	00a00034 	movhi	r2,32768
   149b4:	10bfff84 	addi	r2,r2,-2
   149b8:	e0fffd17 	ldw	r3,-12(fp)
   149bc:	18800115 	stw	r2,4(r3)
      rc = 0;
   149c0:	e03ffb15 	stw	zero,-20(fp)
    }
    break;
   149c4:	00000f06 	br	14a04 <altera_avalon_jtag_uart_ioctl+0xd0>

  case TIOCGCONNECTED:
    /* Find out whether host is connected */
    if (sp->timeout != INT_MAX)
   149c8:	e0bffd17 	ldw	r2,-12(fp)
   149cc:	10c00117 	ldw	r3,4(r2)
   149d0:	00a00034 	movhi	r2,32768
   149d4:	10bfffc4 	addi	r2,r2,-1
   149d8:	18800c26 	beq	r3,r2,14a0c <altera_avalon_jtag_uart_ioctl+0xd8>
    {
      *((int *)arg) = (sp->host_inactive < sp->timeout) ? 1 : 0;
   149dc:	e0bffd17 	ldw	r2,-12(fp)
   149e0:	10c00917 	ldw	r3,36(r2)
   149e4:	e0bffd17 	ldw	r2,-12(fp)
   149e8:	10800117 	ldw	r2,4(r2)
   149ec:	1885803a 	cmpltu	r2,r3,r2
   149f0:	10c03fcc 	andi	r3,r2,255
   149f4:	e0bfff17 	ldw	r2,-4(fp)
   149f8:	10c00015 	stw	r3,0(r2)
      rc = 0;
   149fc:	e03ffb15 	stw	zero,-20(fp)
    }
    break;
   14a00:	00000206 	br	14a0c <altera_avalon_jtag_uart_ioctl+0xd8>
    {
      int timeout = *((int *)arg);
      sp->timeout = (timeout >= 2 && timeout < INT_MAX) ? timeout : INT_MAX - 1;
      rc = 0;
    }
    break;
   14a04:	0001883a 	nop
   14a08:	00000106 	br	14a10 <altera_avalon_jtag_uart_ioctl+0xdc>
    if (sp->timeout != INT_MAX)
    {
      *((int *)arg) = (sp->host_inactive < sp->timeout) ? 1 : 0;
      rc = 0;
    }
    break;
   14a0c:	0001883a 	nop

  default:
    break;
  }

  return rc;
   14a10:	e0bffb17 	ldw	r2,-20(fp)
}
   14a14:	e037883a 	mov	sp,fp
   14a18:	df000017 	ldw	fp,0(sp)
   14a1c:	dec00104 	addi	sp,sp,4
   14a20:	f800283a 	ret

00014a24 <altera_avalon_jtag_uart_read>:
/* ----------------------------------------------------------- */

int 
altera_avalon_jtag_uart_read(altera_avalon_jtag_uart_state* sp, 
  char * buffer, int space, int flags)
{
   14a24:	defff304 	addi	sp,sp,-52
   14a28:	dfc00c15 	stw	ra,48(sp)
   14a2c:	df000b15 	stw	fp,44(sp)
   14a30:	df000b04 	addi	fp,sp,44
   14a34:	e13ffc15 	stw	r4,-16(fp)
   14a38:	e17ffd15 	stw	r5,-12(fp)
   14a3c:	e1bffe15 	stw	r6,-8(fp)
   14a40:	e1ffff15 	stw	r7,-4(fp)
  char * ptr = buffer;
   14a44:	e0bffd17 	ldw	r2,-12(fp)
   14a48:	e0bff515 	stw	r2,-44(fp)
   * When running in a multi threaded environment, obtain the "read_lock"
   * semaphore. This ensures that reading from the device is thread-safe.
   */
  ALT_SEM_PEND (sp->read_lock, 0);

  while (space > 0)
   14a4c:	00004706 	br	14b6c <altera_avalon_jtag_uart_read+0x148>
    unsigned int in, out;

    /* Read as much data as possible */
    do
    {
      in  = sp->rx_in;
   14a50:	e0bffc17 	ldw	r2,-16(fp)
   14a54:	10800a17 	ldw	r2,40(r2)
   14a58:	e0bff715 	stw	r2,-36(fp)
      out = sp->rx_out;
   14a5c:	e0bffc17 	ldw	r2,-16(fp)
   14a60:	10800b17 	ldw	r2,44(r2)
   14a64:	e0bff815 	stw	r2,-32(fp)

      if (in >= out)
   14a68:	e0fff717 	ldw	r3,-36(fp)
   14a6c:	e0bff817 	ldw	r2,-32(fp)
   14a70:	18800536 	bltu	r3,r2,14a88 <altera_avalon_jtag_uart_read+0x64>
        n = in - out;
   14a74:	e0fff717 	ldw	r3,-36(fp)
   14a78:	e0bff817 	ldw	r2,-32(fp)
   14a7c:	1885c83a 	sub	r2,r3,r2
   14a80:	e0bff615 	stw	r2,-40(fp)
   14a84:	00000406 	br	14a98 <altera_avalon_jtag_uart_read+0x74>
      else
        n = ALTERA_AVALON_JTAG_UART_BUF_LEN - out;
   14a88:	00c20004 	movi	r3,2048
   14a8c:	e0bff817 	ldw	r2,-32(fp)
   14a90:	1885c83a 	sub	r2,r3,r2
   14a94:	e0bff615 	stw	r2,-40(fp)

      if (n == 0)
   14a98:	e0bff617 	ldw	r2,-40(fp)
   14a9c:	10001e26 	beq	r2,zero,14b18 <altera_avalon_jtag_uart_read+0xf4>
        break; /* No more data available */

      if (n > space)
   14aa0:	e0fffe17 	ldw	r3,-8(fp)
   14aa4:	e0bff617 	ldw	r2,-40(fp)
   14aa8:	1880022e 	bgeu	r3,r2,14ab4 <altera_avalon_jtag_uart_read+0x90>
        n = space;
   14aac:	e0bffe17 	ldw	r2,-8(fp)
   14ab0:	e0bff615 	stw	r2,-40(fp)

      memcpy(ptr, sp->rx_buf + out, n);
   14ab4:	e0bffc17 	ldw	r2,-16(fp)
   14ab8:	10c00e04 	addi	r3,r2,56
   14abc:	e0bff817 	ldw	r2,-32(fp)
   14ac0:	1885883a 	add	r2,r3,r2
   14ac4:	e1bff617 	ldw	r6,-40(fp)
   14ac8:	100b883a 	mov	r5,r2
   14acc:	e13ff517 	ldw	r4,-44(fp)
   14ad0:	0011f740 	call	11f74 <memcpy>
      ptr   += n;
   14ad4:	e0fff517 	ldw	r3,-44(fp)
   14ad8:	e0bff617 	ldw	r2,-40(fp)
   14adc:	1885883a 	add	r2,r3,r2
   14ae0:	e0bff515 	stw	r2,-44(fp)
      space -= n;
   14ae4:	e0fffe17 	ldw	r3,-8(fp)
   14ae8:	e0bff617 	ldw	r2,-40(fp)
   14aec:	1885c83a 	sub	r2,r3,r2
   14af0:	e0bffe15 	stw	r2,-8(fp)

      sp->rx_out = (out + n) % ALTERA_AVALON_JTAG_UART_BUF_LEN;
   14af4:	e0fff817 	ldw	r3,-32(fp)
   14af8:	e0bff617 	ldw	r2,-40(fp)
   14afc:	1885883a 	add	r2,r3,r2
   14b00:	10c1ffcc 	andi	r3,r2,2047
   14b04:	e0bffc17 	ldw	r2,-16(fp)
   14b08:	10c00b15 	stw	r3,44(r2)
    }
    while (space > 0);
   14b0c:	e0bffe17 	ldw	r2,-8(fp)
   14b10:	00bfcf16 	blt	zero,r2,14a50 <_gp+0xffff5064>
   14b14:	00000106 	br	14b1c <altera_avalon_jtag_uart_read+0xf8>
        n = in - out;
      else
        n = ALTERA_AVALON_JTAG_UART_BUF_LEN - out;

      if (n == 0)
        break; /* No more data available */
   14b18:	0001883a 	nop
      sp->rx_out = (out + n) % ALTERA_AVALON_JTAG_UART_BUF_LEN;
    }
    while (space > 0);

    /* If we read any data then return it */
    if (ptr != buffer)
   14b1c:	e0fff517 	ldw	r3,-44(fp)
   14b20:	e0bffd17 	ldw	r2,-12(fp)
   14b24:	1880141e 	bne	r3,r2,14b78 <altera_avalon_jtag_uart_read+0x154>
      break;

    /* If in non-blocking mode then return error */
    if (flags & O_NONBLOCK)
   14b28:	e0bfff17 	ldw	r2,-4(fp)
   14b2c:	1090000c 	andi	r2,r2,16384
   14b30:	1000131e 	bne	r2,zero,14b80 <altera_avalon_jtag_uart_read+0x15c>
      while (in == sp->rx_in && sp->host_inactive < sp->timeout)
        ;
    }
#else
    /* No OS: Always spin */
    while (in == sp->rx_in && sp->host_inactive < sp->timeout)
   14b34:	0001883a 	nop
   14b38:	e0bffc17 	ldw	r2,-16(fp)
   14b3c:	10c00a17 	ldw	r3,40(r2)
   14b40:	e0bff717 	ldw	r2,-36(fp)
   14b44:	1880051e 	bne	r3,r2,14b5c <altera_avalon_jtag_uart_read+0x138>
   14b48:	e0bffc17 	ldw	r2,-16(fp)
   14b4c:	10c00917 	ldw	r3,36(r2)
   14b50:	e0bffc17 	ldw	r2,-16(fp)
   14b54:	10800117 	ldw	r2,4(r2)
   14b58:	18bff736 	bltu	r3,r2,14b38 <_gp+0xffff514c>
      ;
#endif /* __ucosii__ */

    if (in == sp->rx_in)
   14b5c:	e0bffc17 	ldw	r2,-16(fp)
   14b60:	10c00a17 	ldw	r3,40(r2)
   14b64:	e0bff717 	ldw	r2,-36(fp)
   14b68:	18800726 	beq	r3,r2,14b88 <altera_avalon_jtag_uart_read+0x164>
   * When running in a multi threaded environment, obtain the "read_lock"
   * semaphore. This ensures that reading from the device is thread-safe.
   */
  ALT_SEM_PEND (sp->read_lock, 0);

  while (space > 0)
   14b6c:	e0bffe17 	ldw	r2,-8(fp)
   14b70:	00bfb716 	blt	zero,r2,14a50 <_gp+0xffff5064>
   14b74:	00000506 	br	14b8c <altera_avalon_jtag_uart_read+0x168>
    }
    while (space > 0);

    /* If we read any data then return it */
    if (ptr != buffer)
      break;
   14b78:	0001883a 	nop
   14b7c:	00000306 	br	14b8c <altera_avalon_jtag_uart_read+0x168>

    /* If in non-blocking mode then return error */
    if (flags & O_NONBLOCK)
      break;
   14b80:	0001883a 	nop
   14b84:	00000106 	br	14b8c <altera_avalon_jtag_uart_read+0x168>
    while (in == sp->rx_in && sp->host_inactive < sp->timeout)
      ;
#endif /* __ucosii__ */

    if (in == sp->rx_in)
      break;
   14b88:	0001883a 	nop
   * semaphore so that other threads can access the buffer.
   */

  ALT_SEM_POST (sp->read_lock);

  if (ptr != buffer)
   14b8c:	e0fff517 	ldw	r3,-44(fp)
   14b90:	e0bffd17 	ldw	r2,-12(fp)
   14b94:	18801826 	beq	r3,r2,14bf8 <altera_avalon_jtag_uart_read+0x1d4>
static ALT_INLINE alt_irq_context ALT_ALWAYS_INLINE 
       alt_irq_disable_all (void)
{
  alt_irq_context context;

  NIOS2_READ_STATUS (context);
   14b98:	0005303a 	rdctl	r2,status
   14b9c:	e0bffb15 	stw	r2,-20(fp)

  NIOS2_WRITE_STATUS (context & ~NIOS2_STATUS_PIE_MSK);
   14ba0:	e0fffb17 	ldw	r3,-20(fp)
   14ba4:	00bfff84 	movi	r2,-2
   14ba8:	1884703a 	and	r2,r3,r2
   14bac:	1001703a 	wrctl	status,r2
  
  return context;
   14bb0:	e0bffb17 	ldw	r2,-20(fp)
  {
    /* If we read any data then there is space in the buffer so enable interrupts */
    context = alt_irq_disable_all();
   14bb4:	e0bffa15 	stw	r2,-24(fp)
    sp->irq_enable |= ALTERA_AVALON_JTAG_UART_CONTROL_RE_MSK;
   14bb8:	e0bffc17 	ldw	r2,-16(fp)
   14bbc:	10800817 	ldw	r2,32(r2)
   14bc0:	10c00054 	ori	r3,r2,1
   14bc4:	e0bffc17 	ldw	r2,-16(fp)
   14bc8:	10c00815 	stw	r3,32(r2)
    IOWR_ALTERA_AVALON_JTAG_UART_CONTROL(sp->base, sp->irq_enable);
   14bcc:	e0bffc17 	ldw	r2,-16(fp)
   14bd0:	10800017 	ldw	r2,0(r2)
   14bd4:	10800104 	addi	r2,r2,4
   14bd8:	1007883a 	mov	r3,r2
   14bdc:	e0bffc17 	ldw	r2,-16(fp)
   14be0:	10800817 	ldw	r2,32(r2)
   14be4:	18800035 	stwio	r2,0(r3)
   14be8:	e0bffa17 	ldw	r2,-24(fp)
   14bec:	e0bff915 	stw	r2,-28(fp)
  status &= ~NIOS2_STATUS_PIE_MSK;
  status |= (context & NIOS2_STATUS_PIE_MSK);
  
  NIOS2_WRITE_STATUS (status);
#else
  NIOS2_WRITE_STATUS (context);
   14bf0:	e0bff917 	ldw	r2,-28(fp)
   14bf4:	1001703a 	wrctl	status,r2
    alt_irq_enable_all(context);
  }

  if (ptr != buffer)
   14bf8:	e0fff517 	ldw	r3,-44(fp)
   14bfc:	e0bffd17 	ldw	r2,-12(fp)
   14c00:	18800426 	beq	r3,r2,14c14 <altera_avalon_jtag_uart_read+0x1f0>
    return ptr - buffer;
   14c04:	e0fff517 	ldw	r3,-44(fp)
   14c08:	e0bffd17 	ldw	r2,-12(fp)
   14c0c:	1885c83a 	sub	r2,r3,r2
   14c10:	00000606 	br	14c2c <altera_avalon_jtag_uart_read+0x208>
  else if (flags & O_NONBLOCK)
   14c14:	e0bfff17 	ldw	r2,-4(fp)
   14c18:	1090000c 	andi	r2,r2,16384
   14c1c:	10000226 	beq	r2,zero,14c28 <altera_avalon_jtag_uart_read+0x204>
    return -EWOULDBLOCK;
   14c20:	00bffd44 	movi	r2,-11
   14c24:	00000106 	br	14c2c <altera_avalon_jtag_uart_read+0x208>
  else
    return -EIO;
   14c28:	00bffec4 	movi	r2,-5
}
   14c2c:	e037883a 	mov	sp,fp
   14c30:	dfc00117 	ldw	ra,4(sp)
   14c34:	df000017 	ldw	fp,0(sp)
   14c38:	dec00204 	addi	sp,sp,8
   14c3c:	f800283a 	ret

00014c40 <altera_avalon_jtag_uart_write>:
/* ----------------------------------------------------------- */

int 
altera_avalon_jtag_uart_write(altera_avalon_jtag_uart_state* sp, 
  const char * ptr, int count, int flags)
{
   14c40:	defff304 	addi	sp,sp,-52
   14c44:	dfc00c15 	stw	ra,48(sp)
   14c48:	df000b15 	stw	fp,44(sp)
   14c4c:	df000b04 	addi	fp,sp,44
   14c50:	e13ffc15 	stw	r4,-16(fp)
   14c54:	e17ffd15 	stw	r5,-12(fp)
   14c58:	e1bffe15 	stw	r6,-8(fp)
   14c5c:	e1ffff15 	stw	r7,-4(fp)
  /* Remove warning at optimisation level 03 by seting out to 0 */
  unsigned int in, out=0;
   14c60:	e03ff515 	stw	zero,-44(fp)
  unsigned int n;
  alt_irq_context context;

  const char * start = ptr;
   14c64:	e0bffd17 	ldw	r2,-12(fp)
   14c68:	e0bff715 	stw	r2,-36(fp)
  ALT_SEM_PEND (sp->write_lock, 0);

  do
  {
    /* Copy as much as we can into the transmit buffer */
    while (count > 0)
   14c6c:	00003706 	br	14d4c <altera_avalon_jtag_uart_write+0x10c>
    {
      /* We need a stable value of the out pointer to calculate the space available */
      in  = sp->tx_in;
   14c70:	e0bffc17 	ldw	r2,-16(fp)
   14c74:	10800c17 	ldw	r2,48(r2)
   14c78:	e0bff915 	stw	r2,-28(fp)
      out = sp->tx_out;
   14c7c:	e0bffc17 	ldw	r2,-16(fp)
   14c80:	10800d17 	ldw	r2,52(r2)
   14c84:	e0bff515 	stw	r2,-44(fp)

      if (in < out)
   14c88:	e0fff917 	ldw	r3,-28(fp)
   14c8c:	e0bff517 	ldw	r2,-44(fp)
   14c90:	1880062e 	bgeu	r3,r2,14cac <altera_avalon_jtag_uart_write+0x6c>
        n = out - 1 - in;
   14c94:	e0fff517 	ldw	r3,-44(fp)
   14c98:	e0bff917 	ldw	r2,-28(fp)
   14c9c:	1885c83a 	sub	r2,r3,r2
   14ca0:	10bfffc4 	addi	r2,r2,-1
   14ca4:	e0bff615 	stw	r2,-40(fp)
   14ca8:	00000b06 	br	14cd8 <altera_avalon_jtag_uart_write+0x98>
      else if (out > 0)
   14cac:	e0bff517 	ldw	r2,-44(fp)
   14cb0:	10000526 	beq	r2,zero,14cc8 <altera_avalon_jtag_uart_write+0x88>
        n = ALTERA_AVALON_JTAG_UART_BUF_LEN - in;
   14cb4:	00c20004 	movi	r3,2048
   14cb8:	e0bff917 	ldw	r2,-28(fp)
   14cbc:	1885c83a 	sub	r2,r3,r2
   14cc0:	e0bff615 	stw	r2,-40(fp)
   14cc4:	00000406 	br	14cd8 <altera_avalon_jtag_uart_write+0x98>
      else
        n = ALTERA_AVALON_JTAG_UART_BUF_LEN - 1 - in;
   14cc8:	00c1ffc4 	movi	r3,2047
   14ccc:	e0bff917 	ldw	r2,-28(fp)
   14cd0:	1885c83a 	sub	r2,r3,r2
   14cd4:	e0bff615 	stw	r2,-40(fp)

      if (n == 0)
   14cd8:	e0bff617 	ldw	r2,-40(fp)
   14cdc:	10001e26 	beq	r2,zero,14d58 <altera_avalon_jtag_uart_write+0x118>
        break;

      if (n > count)
   14ce0:	e0fffe17 	ldw	r3,-8(fp)
   14ce4:	e0bff617 	ldw	r2,-40(fp)
   14ce8:	1880022e 	bgeu	r3,r2,14cf4 <altera_avalon_jtag_uart_write+0xb4>
        n = count;
   14cec:	e0bffe17 	ldw	r2,-8(fp)
   14cf0:	e0bff615 	stw	r2,-40(fp)

      memcpy(sp->tx_buf + in, ptr, n);
   14cf4:	e0bffc17 	ldw	r2,-16(fp)
   14cf8:	10c20e04 	addi	r3,r2,2104
   14cfc:	e0bff917 	ldw	r2,-28(fp)
   14d00:	1885883a 	add	r2,r3,r2
   14d04:	e1bff617 	ldw	r6,-40(fp)
   14d08:	e17ffd17 	ldw	r5,-12(fp)
   14d0c:	1009883a 	mov	r4,r2
   14d10:	0011f740 	call	11f74 <memcpy>
      ptr   += n;
   14d14:	e0fffd17 	ldw	r3,-12(fp)
   14d18:	e0bff617 	ldw	r2,-40(fp)
   14d1c:	1885883a 	add	r2,r3,r2
   14d20:	e0bffd15 	stw	r2,-12(fp)
      count -= n;
   14d24:	e0fffe17 	ldw	r3,-8(fp)
   14d28:	e0bff617 	ldw	r2,-40(fp)
   14d2c:	1885c83a 	sub	r2,r3,r2
   14d30:	e0bffe15 	stw	r2,-8(fp)

      sp->tx_in = (in + n) % ALTERA_AVALON_JTAG_UART_BUF_LEN;
   14d34:	e0fff917 	ldw	r3,-28(fp)
   14d38:	e0bff617 	ldw	r2,-40(fp)
   14d3c:	1885883a 	add	r2,r3,r2
   14d40:	10c1ffcc 	andi	r3,r2,2047
   14d44:	e0bffc17 	ldw	r2,-16(fp)
   14d48:	10c00c15 	stw	r3,48(r2)
  ALT_SEM_PEND (sp->write_lock, 0);

  do
  {
    /* Copy as much as we can into the transmit buffer */
    while (count > 0)
   14d4c:	e0bffe17 	ldw	r2,-8(fp)
   14d50:	00bfc716 	blt	zero,r2,14c70 <_gp+0xffff5284>
   14d54:	00000106 	br	14d5c <altera_avalon_jtag_uart_write+0x11c>
        n = ALTERA_AVALON_JTAG_UART_BUF_LEN - in;
      else
        n = ALTERA_AVALON_JTAG_UART_BUF_LEN - 1 - in;

      if (n == 0)
        break;
   14d58:	0001883a 	nop
static ALT_INLINE alt_irq_context ALT_ALWAYS_INLINE 
       alt_irq_disable_all (void)
{
  alt_irq_context context;

  NIOS2_READ_STATUS (context);
   14d5c:	0005303a 	rdctl	r2,status
   14d60:	e0bffb15 	stw	r2,-20(fp)

  NIOS2_WRITE_STATUS (context & ~NIOS2_STATUS_PIE_MSK);
   14d64:	e0fffb17 	ldw	r3,-20(fp)
   14d68:	00bfff84 	movi	r2,-2
   14d6c:	1884703a 	and	r2,r3,r2
   14d70:	1001703a 	wrctl	status,r2
  
  return context;
   14d74:	e0bffb17 	ldw	r2,-20(fp)
     * to enable interrupts if there is no space left in the FIFO
     *
     * For now kick the interrupt routine every time to make it transmit 
     * the data 
     */
    context = alt_irq_disable_all();
   14d78:	e0bffa15 	stw	r2,-24(fp)
    sp->irq_enable |= ALTERA_AVALON_JTAG_UART_CONTROL_WE_MSK;
   14d7c:	e0bffc17 	ldw	r2,-16(fp)
   14d80:	10800817 	ldw	r2,32(r2)
   14d84:	10c00094 	ori	r3,r2,2
   14d88:	e0bffc17 	ldw	r2,-16(fp)
   14d8c:	10c00815 	stw	r3,32(r2)
    IOWR_ALTERA_AVALON_JTAG_UART_CONTROL(sp->base, sp->irq_enable);
   14d90:	e0bffc17 	ldw	r2,-16(fp)
   14d94:	10800017 	ldw	r2,0(r2)
   14d98:	10800104 	addi	r2,r2,4
   14d9c:	1007883a 	mov	r3,r2
   14da0:	e0bffc17 	ldw	r2,-16(fp)
   14da4:	10800817 	ldw	r2,32(r2)
   14da8:	18800035 	stwio	r2,0(r3)
   14dac:	e0bffa17 	ldw	r2,-24(fp)
   14db0:	e0bff815 	stw	r2,-32(fp)
  status &= ~NIOS2_STATUS_PIE_MSK;
  status |= (context & NIOS2_STATUS_PIE_MSK);
  
  NIOS2_WRITE_STATUS (status);
#else
  NIOS2_WRITE_STATUS (context);
   14db4:	e0bff817 	ldw	r2,-32(fp)
   14db8:	1001703a 	wrctl	status,r2
    /* 
     * If there is any data left then either return now or block until 
     * some has been sent 
     */
    /* consider: test whether there is anything there while doing this and delay for at most 2s. */
    if (count > 0)
   14dbc:	e0bffe17 	ldw	r2,-8(fp)
   14dc0:	0080100e 	bge	zero,r2,14e04 <altera_avalon_jtag_uart_write+0x1c4>
    {
      if (flags & O_NONBLOCK)
   14dc4:	e0bfff17 	ldw	r2,-4(fp)
   14dc8:	1090000c 	andi	r2,r2,16384
   14dcc:	1000101e 	bne	r2,zero,14e10 <altera_avalon_jtag_uart_write+0x1d0>
      /*
       * No OS present: Always wait for data to be removed from buffer.  Once
       * the interrupt routine has removed some data then we will be able to
       * insert some more.
       */
      while (out == sp->tx_out && sp->host_inactive < sp->timeout)
   14dd0:	0001883a 	nop
   14dd4:	e0bffc17 	ldw	r2,-16(fp)
   14dd8:	10c00d17 	ldw	r3,52(r2)
   14ddc:	e0bff517 	ldw	r2,-44(fp)
   14de0:	1880051e 	bne	r3,r2,14df8 <altera_avalon_jtag_uart_write+0x1b8>
   14de4:	e0bffc17 	ldw	r2,-16(fp)
   14de8:	10c00917 	ldw	r3,36(r2)
   14dec:	e0bffc17 	ldw	r2,-16(fp)
   14df0:	10800117 	ldw	r2,4(r2)
   14df4:	18bff736 	bltu	r3,r2,14dd4 <_gp+0xffff53e8>
        ;
#endif /* __ucosii__ */

      if  (sp->host_inactive)
   14df8:	e0bffc17 	ldw	r2,-16(fp)
   14dfc:	10800917 	ldw	r2,36(r2)
   14e00:	1000051e 	bne	r2,zero,14e18 <altera_avalon_jtag_uart_write+0x1d8>
         break;
    }
  }
  while (count > 0);
   14e04:	e0bffe17 	ldw	r2,-8(fp)
   14e08:	00bfd016 	blt	zero,r2,14d4c <_gp+0xffff5360>
   14e0c:	00000306 	br	14e1c <altera_avalon_jtag_uart_write+0x1dc>
     */
    /* consider: test whether there is anything there while doing this and delay for at most 2s. */
    if (count > 0)
    {
      if (flags & O_NONBLOCK)
        break;
   14e10:	0001883a 	nop
   14e14:	00000106 	br	14e1c <altera_avalon_jtag_uart_write+0x1dc>
      while (out == sp->tx_out && sp->host_inactive < sp->timeout)
        ;
#endif /* __ucosii__ */

      if  (sp->host_inactive)
         break;
   14e18:	0001883a 	nop
   * Now that access to the circular buffer is complete, release the write
   * semaphore so that other threads can access the buffer.
   */
  ALT_SEM_POST (sp->write_lock);

  if (ptr != start)
   14e1c:	e0fffd17 	ldw	r3,-12(fp)
   14e20:	e0bff717 	ldw	r2,-36(fp)
   14e24:	18800426 	beq	r3,r2,14e38 <altera_avalon_jtag_uart_write+0x1f8>
    return ptr - start;
   14e28:	e0fffd17 	ldw	r3,-12(fp)
   14e2c:	e0bff717 	ldw	r2,-36(fp)
   14e30:	1885c83a 	sub	r2,r3,r2
   14e34:	00000606 	br	14e50 <altera_avalon_jtag_uart_write+0x210>
  else if (flags & O_NONBLOCK)
   14e38:	e0bfff17 	ldw	r2,-4(fp)
   14e3c:	1090000c 	andi	r2,r2,16384
   14e40:	10000226 	beq	r2,zero,14e4c <altera_avalon_jtag_uart_write+0x20c>
    return -EWOULDBLOCK;
   14e44:	00bffd44 	movi	r2,-11
   14e48:	00000106 	br	14e50 <altera_avalon_jtag_uart_write+0x210>
    sp->tx_out = sp->tx_in = 0;
    return ptr - start + count;
  }
#endif
  else
    return -EIO; /* Host not connected */
   14e4c:	00bffec4 	movi	r2,-5
}
   14e50:	e037883a 	mov	sp,fp
   14e54:	dfc00117 	ldw	ra,4(sp)
   14e58:	df000017 	ldw	fp,0(sp)
   14e5c:	dec00204 	addi	sp,sp,8
   14e60:	f800283a 	ret

00014e64 <alt_avalon_timer_sc_irq>:
#ifdef ALT_ENHANCED_INTERRUPT_API_PRESENT
static void alt_avalon_timer_sc_irq (void* base)
#else
static void alt_avalon_timer_sc_irq (void* base, alt_u32 id)
#endif
{
   14e64:	defffa04 	addi	sp,sp,-24
   14e68:	dfc00515 	stw	ra,20(sp)
   14e6c:	df000415 	stw	fp,16(sp)
   14e70:	df000404 	addi	fp,sp,16
   14e74:	e13fff15 	stw	r4,-4(fp)
  alt_irq_context cpu_sr;
  
  /* clear the interrupt */
  IOWR_ALTERA_AVALON_TIMER_STATUS (base, 0);
   14e78:	0007883a 	mov	r3,zero
   14e7c:	e0bfff17 	ldw	r2,-4(fp)
   14e80:	10c00035 	stwio	r3,0(r2)
  /* 
   * Dummy read to ensure IRQ is negated before the ISR returns.
   * The control register is read because reading the status
   * register has side-effects per the register map documentation.
   */
  IORD_ALTERA_AVALON_TIMER_CONTROL (base);
   14e84:	e0bfff17 	ldw	r2,-4(fp)
   14e88:	10800104 	addi	r2,r2,4
   14e8c:	10800037 	ldwio	r2,0(r2)
static ALT_INLINE alt_irq_context ALT_ALWAYS_INLINE 
       alt_irq_disable_all (void)
{
  alt_irq_context context;

  NIOS2_READ_STATUS (context);
   14e90:	0005303a 	rdctl	r2,status
   14e94:	e0bffd15 	stw	r2,-12(fp)

  NIOS2_WRITE_STATUS (context & ~NIOS2_STATUS_PIE_MSK);
   14e98:	e0fffd17 	ldw	r3,-12(fp)
   14e9c:	00bfff84 	movi	r2,-2
   14ea0:	1884703a 	and	r2,r3,r2
   14ea4:	1001703a 	wrctl	status,r2
  
  return context;
   14ea8:	e0bffd17 	ldw	r2,-12(fp)

  /* 
   * Notify the system of a clock tick. disable interrupts 
   * during this time to safely support ISR preemption
   */
  cpu_sr = alt_irq_disable_all();
   14eac:	e0bffc15 	stw	r2,-16(fp)
  alt_tick ();
   14eb0:	00157440 	call	15744 <alt_tick>
   14eb4:	e0bffc17 	ldw	r2,-16(fp)
   14eb8:	e0bffe15 	stw	r2,-8(fp)
  status &= ~NIOS2_STATUS_PIE_MSK;
  status |= (context & NIOS2_STATUS_PIE_MSK);
  
  NIOS2_WRITE_STATUS (status);
#else
  NIOS2_WRITE_STATUS (context);
   14ebc:	e0bffe17 	ldw	r2,-8(fp)
   14ec0:	1001703a 	wrctl	status,r2
  alt_irq_enable_all(cpu_sr);
}
   14ec4:	0001883a 	nop
   14ec8:	e037883a 	mov	sp,fp
   14ecc:	dfc00117 	ldw	ra,4(sp)
   14ed0:	df000017 	ldw	fp,0(sp)
   14ed4:	dec00204 	addi	sp,sp,8
   14ed8:	f800283a 	ret

00014edc <alt_avalon_timer_sc_init>:
 * auto-generated alt_sys_init() function.
 */

void alt_avalon_timer_sc_init (void* base, alt_u32 irq_controller_id, 
                                alt_u32 irq, alt_u32 freq)
{
   14edc:	defff804 	addi	sp,sp,-32
   14ee0:	dfc00715 	stw	ra,28(sp)
   14ee4:	df000615 	stw	fp,24(sp)
   14ee8:	df000604 	addi	fp,sp,24
   14eec:	e13ffc15 	stw	r4,-16(fp)
   14ef0:	e17ffd15 	stw	r5,-12(fp)
   14ef4:	e1bffe15 	stw	r6,-8(fp)
   14ef8:	e1ffff15 	stw	r7,-4(fp)
   14efc:	e0bfff17 	ldw	r2,-4(fp)
   14f00:	e0bffb15 	stw	r2,-20(fp)
 * in order to initialise the value of the clock frequency.
 */

static ALT_INLINE int ALT_ALWAYS_INLINE alt_sysclk_init (alt_u32 nticks)
{
  if (! _alt_tick_rate)
   14f04:	d0a6c017 	ldw	r2,-25856(gp)
   14f08:	1000021e 	bne	r2,zero,14f14 <alt_avalon_timer_sc_init+0x38>
  {
    _alt_tick_rate = nticks;
   14f0c:	e0bffb17 	ldw	r2,-20(fp)
   14f10:	d0a6c015 	stw	r2,-25856(gp)
  
  alt_sysclk_init (freq);
  
  /* set to free running mode */
  
  IOWR_ALTERA_AVALON_TIMER_CONTROL (base, 
   14f14:	e0bffc17 	ldw	r2,-16(fp)
   14f18:	10800104 	addi	r2,r2,4
   14f1c:	00c001c4 	movi	r3,7
   14f20:	10c00035 	stwio	r3,0(r2)
            ALTERA_AVALON_TIMER_CONTROL_CONT_MSK |
            ALTERA_AVALON_TIMER_CONTROL_START_MSK);

  /* register the interrupt handler, and enable the interrupt */
#ifdef ALT_ENHANCED_INTERRUPT_API_PRESENT
  alt_ic_isr_register(irq_controller_id, irq, alt_avalon_timer_sc_irq, 
   14f24:	d8000015 	stw	zero,0(sp)
   14f28:	e1fffc17 	ldw	r7,-16(fp)
   14f2c:	01800074 	movhi	r6,1
   14f30:	31939904 	addi	r6,r6,20068
   14f34:	e17ffe17 	ldw	r5,-8(fp)
   14f38:	e13ffd17 	ldw	r4,-12(fp)
   14f3c:	001396c0 	call	1396c <alt_ic_isr_register>
                      base, NULL);
#else
  alt_irq_register (irq, base, alt_avalon_timer_sc_irq);
#endif  
}
   14f40:	0001883a 	nop
   14f44:	e037883a 	mov	sp,fp
   14f48:	dfc00117 	ldw	ra,4(sp)
   14f4c:	df000017 	ldw	fp,0(sp)
   14f50:	dec00204 	addi	sp,sp,8
   14f54:	f800283a 	ret

00014f58 <alt_alarm_start>:
 */ 

int alt_alarm_start (alt_alarm* alarm, alt_u32 nticks,
                     alt_u32 (*callback) (void* context),
                     void* context)
{
   14f58:	defff504 	addi	sp,sp,-44
   14f5c:	df000a15 	stw	fp,40(sp)
   14f60:	df000a04 	addi	fp,sp,40
   14f64:	e13ffc15 	stw	r4,-16(fp)
   14f68:	e17ffd15 	stw	r5,-12(fp)
   14f6c:	e1bffe15 	stw	r6,-8(fp)
   14f70:	e1ffff15 	stw	r7,-4(fp)
  alt_irq_context irq_context;
  alt_u32 current_nticks = 0;
   14f74:	e03ff615 	stw	zero,-40(fp)
 * Obtain the system clock rate in ticks/s. 
 */

static ALT_INLINE alt_u32 ALT_ALWAYS_INLINE alt_ticks_per_second (void)
{
  return _alt_tick_rate;
   14f78:	d0a6c017 	ldw	r2,-25856(gp)
  
  if (alt_ticks_per_second ())
   14f7c:	10003c26 	beq	r2,zero,15070 <alt_alarm_start+0x118>
  {
    if (alarm)
   14f80:	e0bffc17 	ldw	r2,-16(fp)
   14f84:	10003826 	beq	r2,zero,15068 <alt_alarm_start+0x110>
    {
      alarm->callback = callback;
   14f88:	e0bffc17 	ldw	r2,-16(fp)
   14f8c:	e0fffe17 	ldw	r3,-8(fp)
   14f90:	10c00315 	stw	r3,12(r2)
      alarm->context  = context;
   14f94:	e0bffc17 	ldw	r2,-16(fp)
   14f98:	e0ffff17 	ldw	r3,-4(fp)
   14f9c:	10c00515 	stw	r3,20(r2)
static ALT_INLINE alt_irq_context ALT_ALWAYS_INLINE 
       alt_irq_disable_all (void)
{
  alt_irq_context context;

  NIOS2_READ_STATUS (context);
   14fa0:	0005303a 	rdctl	r2,status
   14fa4:	e0bff915 	stw	r2,-28(fp)

  NIOS2_WRITE_STATUS (context & ~NIOS2_STATUS_PIE_MSK);
   14fa8:	e0fff917 	ldw	r3,-28(fp)
   14fac:	00bfff84 	movi	r2,-2
   14fb0:	1884703a 	and	r2,r3,r2
   14fb4:	1001703a 	wrctl	status,r2
  
  return context;
   14fb8:	e0bff917 	ldw	r2,-28(fp)
 
      irq_context = alt_irq_disable_all ();
   14fbc:	e0bff815 	stw	r2,-32(fp)
 * alt_nticks() returns the elapsed number of system clock ticks since reset.
 */

static ALT_INLINE alt_u32 ALT_ALWAYS_INLINE alt_nticks (void)
{
  return _alt_nticks;
   14fc0:	d0a6c117 	ldw	r2,-25852(gp)
      
      current_nticks = alt_nticks();
   14fc4:	e0bff615 	stw	r2,-40(fp)
      
      alarm->time = nticks + current_nticks + 1; 
   14fc8:	e0fffd17 	ldw	r3,-12(fp)
   14fcc:	e0bff617 	ldw	r2,-40(fp)
   14fd0:	1885883a 	add	r2,r3,r2
   14fd4:	10c00044 	addi	r3,r2,1
   14fd8:	e0bffc17 	ldw	r2,-16(fp)
   14fdc:	10c00215 	stw	r3,8(r2)
      /* 
       * If the desired alarm time causes a roll-over, set the rollover
       * flag. This will prevent the subsequent tick event from causing
       * an alarm too early.
       */
      if(alarm->time < current_nticks)
   14fe0:	e0bffc17 	ldw	r2,-16(fp)
   14fe4:	10c00217 	ldw	r3,8(r2)
   14fe8:	e0bff617 	ldw	r2,-40(fp)
   14fec:	1880042e 	bgeu	r3,r2,15000 <alt_alarm_start+0xa8>
      {
        alarm->rollover = 1;
   14ff0:	e0bffc17 	ldw	r2,-16(fp)
   14ff4:	00c00044 	movi	r3,1
   14ff8:	10c00405 	stb	r3,16(r2)
   14ffc:	00000206 	br	15008 <alt_alarm_start+0xb0>
      }
      else
      {
        alarm->rollover = 0;
   15000:	e0bffc17 	ldw	r2,-16(fp)
   15004:	10000405 	stb	zero,16(r2)
      }
    
      alt_llist_insert (&alt_alarm_list, &alarm->llist);
   15008:	e0bffc17 	ldw	r2,-16(fp)
   1500c:	d0e00d04 	addi	r3,gp,-32716
   15010:	e0fffa15 	stw	r3,-24(fp)
   15014:	e0bffb15 	stw	r2,-20(fp)
 */

static ALT_INLINE void ALT_ALWAYS_INLINE alt_llist_insert(alt_llist* list, 
                alt_llist* entry)
{
  entry->previous = list;
   15018:	e0bffb17 	ldw	r2,-20(fp)
   1501c:	e0fffa17 	ldw	r3,-24(fp)
   15020:	10c00115 	stw	r3,4(r2)
  entry->next     = list->next;
   15024:	e0bffa17 	ldw	r2,-24(fp)
   15028:	10c00017 	ldw	r3,0(r2)
   1502c:	e0bffb17 	ldw	r2,-20(fp)
   15030:	10c00015 	stw	r3,0(r2)

  list->next->previous = entry;
   15034:	e0bffa17 	ldw	r2,-24(fp)
   15038:	10800017 	ldw	r2,0(r2)
   1503c:	e0fffb17 	ldw	r3,-20(fp)
   15040:	10c00115 	stw	r3,4(r2)
  list->next           = entry;
   15044:	e0bffa17 	ldw	r2,-24(fp)
   15048:	e0fffb17 	ldw	r3,-20(fp)
   1504c:	10c00015 	stw	r3,0(r2)
   15050:	e0bff817 	ldw	r2,-32(fp)
   15054:	e0bff715 	stw	r2,-36(fp)
  status &= ~NIOS2_STATUS_PIE_MSK;
  status |= (context & NIOS2_STATUS_PIE_MSK);
  
  NIOS2_WRITE_STATUS (status);
#else
  NIOS2_WRITE_STATUS (context);
   15058:	e0bff717 	ldw	r2,-36(fp)
   1505c:	1001703a 	wrctl	status,r2
      alt_irq_enable_all (irq_context);

      return 0;
   15060:	0005883a 	mov	r2,zero
   15064:	00000306 	br	15074 <alt_alarm_start+0x11c>
    }
    else
    {
      return -EINVAL;
   15068:	00bffa84 	movi	r2,-22
   1506c:	00000106 	br	15074 <alt_alarm_start+0x11c>
    }
  }
  else
  {
    return -ENOTSUP;
   15070:	00bfde84 	movi	r2,-134
  }
}
   15074:	e037883a 	mov	sp,fp
   15078:	df000017 	ldw	fp,0(sp)
   1507c:	dec00104 	addi	sp,sp,4
   15080:	f800283a 	ret

00015084 <alt_dcache_flush_all>:
/*
 * alt_dcache_flush_all() is called to flush the entire data cache.
 */

void alt_dcache_flush_all (void)
{
   15084:	deffff04 	addi	sp,sp,-4
   15088:	df000015 	stw	fp,0(sp)
   1508c:	d839883a 	mov	fp,sp
  for (i = (char*) 0; i < (char*) NIOS2_DCACHE_SIZE; i+= NIOS2_DCACHE_LINE_SIZE)
  { 
    __asm__ volatile ("flushd (%0)" :: "r" (i));
  }
#endif /* NIOS2_DCACHE_SIZE > 0 */
}
   15090:	0001883a 	nop
   15094:	e037883a 	mov	sp,fp
   15098:	df000017 	ldw	fp,0(sp)
   1509c:	dec00104 	addi	sp,sp,4
   150a0:	f800283a 	ret

000150a4 <alt_get_errno>:
#undef errno

extern int errno;

static ALT_INLINE int* alt_get_errno(void)
{
   150a4:	defffe04 	addi	sp,sp,-8
   150a8:	dfc00115 	stw	ra,4(sp)
   150ac:	df000015 	stw	fp,0(sp)
   150b0:	d839883a 	mov	fp,sp
  return ((alt_errno) ? alt_errno() : &errno);
   150b4:	d0a00a17 	ldw	r2,-32728(gp)
   150b8:	10000326 	beq	r2,zero,150c8 <alt_get_errno+0x24>
   150bc:	d0a00a17 	ldw	r2,-32728(gp)
   150c0:	103ee83a 	callr	r2
   150c4:	00000106 	br	150cc <alt_get_errno+0x28>
   150c8:	d0a6ba04 	addi	r2,gp,-25880
}
   150cc:	e037883a 	mov	sp,fp
   150d0:	dfc00117 	ldw	ra,4(sp)
   150d4:	df000017 	ldw	fp,0(sp)
   150d8:	dec00204 	addi	sp,sp,8
   150dc:	f800283a 	ret

000150e0 <alt_dev_llist_insert>:
/*
 *
 */

int alt_dev_llist_insert (alt_dev_llist* dev, alt_llist* list)
{
   150e0:	defffa04 	addi	sp,sp,-24
   150e4:	dfc00515 	stw	ra,20(sp)
   150e8:	df000415 	stw	fp,16(sp)
   150ec:	df000404 	addi	fp,sp,16
   150f0:	e13ffe15 	stw	r4,-8(fp)
   150f4:	e17fff15 	stw	r5,-4(fp)
  /*
   * check that the device exists, and that it has a valid name.
   */

  if (!dev || !dev->name)
   150f8:	e0bffe17 	ldw	r2,-8(fp)
   150fc:	10000326 	beq	r2,zero,1510c <alt_dev_llist_insert+0x2c>
   15100:	e0bffe17 	ldw	r2,-8(fp)
   15104:	10800217 	ldw	r2,8(r2)
   15108:	1000061e 	bne	r2,zero,15124 <alt_dev_llist_insert+0x44>
  {
    ALT_ERRNO = EINVAL;
   1510c:	00150a40 	call	150a4 <alt_get_errno>
   15110:	1007883a 	mov	r3,r2
   15114:	00800584 	movi	r2,22
   15118:	18800015 	stw	r2,0(r3)
    return -EINVAL;
   1511c:	00bffa84 	movi	r2,-22
   15120:	00001306 	br	15170 <alt_dev_llist_insert+0x90>
  
  /*
   * register the device.
   */
  
  alt_llist_insert(list, &dev->llist);
   15124:	e0bffe17 	ldw	r2,-8(fp)
   15128:	e0ffff17 	ldw	r3,-4(fp)
   1512c:	e0fffc15 	stw	r3,-16(fp)
   15130:	e0bffd15 	stw	r2,-12(fp)
 */

static ALT_INLINE void ALT_ALWAYS_INLINE alt_llist_insert(alt_llist* list, 
                alt_llist* entry)
{
  entry->previous = list;
   15134:	e0bffd17 	ldw	r2,-12(fp)
   15138:	e0fffc17 	ldw	r3,-16(fp)
   1513c:	10c00115 	stw	r3,4(r2)
  entry->next     = list->next;
   15140:	e0bffc17 	ldw	r2,-16(fp)
   15144:	10c00017 	ldw	r3,0(r2)
   15148:	e0bffd17 	ldw	r2,-12(fp)
   1514c:	10c00015 	stw	r3,0(r2)

  list->next->previous = entry;
   15150:	e0bffc17 	ldw	r2,-16(fp)
   15154:	10800017 	ldw	r2,0(r2)
   15158:	e0fffd17 	ldw	r3,-12(fp)
   1515c:	10c00115 	stw	r3,4(r2)
  list->next           = entry;
   15160:	e0bffc17 	ldw	r2,-16(fp)
   15164:	e0fffd17 	ldw	r3,-12(fp)
   15168:	10c00015 	stw	r3,0(r2)

  return 0;  
   1516c:	0005883a 	mov	r2,zero
}
   15170:	e037883a 	mov	sp,fp
   15174:	dfc00117 	ldw	ra,4(sp)
   15178:	df000017 	ldw	fp,0(sp)
   1517c:	dec00204 	addi	sp,sp,8
   15180:	f800283a 	ret

00015184 <_do_ctors>:
/*
 * Run the C++ static constructors.
 */

void _do_ctors(void)
{
   15184:	defffd04 	addi	sp,sp,-12
   15188:	dfc00215 	stw	ra,8(sp)
   1518c:	df000115 	stw	fp,4(sp)
   15190:	df000104 	addi	fp,sp,4
  constructor* ctor;

  for (ctor = &__CTOR_END__[-1]; ctor >= __CTOR_LIST__; ctor--)
   15194:	00800074 	movhi	r2,1
   15198:	1097b304 	addi	r2,r2,24268
   1519c:	e0bfff15 	stw	r2,-4(fp)
   151a0:	00000606 	br	151bc <_do_ctors+0x38>
        (*ctor) (); 
   151a4:	e0bfff17 	ldw	r2,-4(fp)
   151a8:	10800017 	ldw	r2,0(r2)
   151ac:	103ee83a 	callr	r2

void _do_ctors(void)
{
  constructor* ctor;

  for (ctor = &__CTOR_END__[-1]; ctor >= __CTOR_LIST__; ctor--)
   151b0:	e0bfff17 	ldw	r2,-4(fp)
   151b4:	10bfff04 	addi	r2,r2,-4
   151b8:	e0bfff15 	stw	r2,-4(fp)
   151bc:	e0ffff17 	ldw	r3,-4(fp)
   151c0:	00800074 	movhi	r2,1
   151c4:	1097b404 	addi	r2,r2,24272
   151c8:	18bff62e 	bgeu	r3,r2,151a4 <_gp+0xffff57b8>
        (*ctor) (); 
}
   151cc:	0001883a 	nop
   151d0:	e037883a 	mov	sp,fp
   151d4:	dfc00117 	ldw	ra,4(sp)
   151d8:	df000017 	ldw	fp,0(sp)
   151dc:	dec00204 	addi	sp,sp,8
   151e0:	f800283a 	ret

000151e4 <_do_dtors>:
/*
 * Run the C++ static destructors.
 */

void _do_dtors(void)
{
   151e4:	defffd04 	addi	sp,sp,-12
   151e8:	dfc00215 	stw	ra,8(sp)
   151ec:	df000115 	stw	fp,4(sp)
   151f0:	df000104 	addi	fp,sp,4
  destructor* dtor;

  for (dtor = &__DTOR_END__[-1]; dtor >= __DTOR_LIST__; dtor--)
   151f4:	00800074 	movhi	r2,1
   151f8:	1097b304 	addi	r2,r2,24268
   151fc:	e0bfff15 	stw	r2,-4(fp)
   15200:	00000606 	br	1521c <_do_dtors+0x38>
        (*dtor) (); 
   15204:	e0bfff17 	ldw	r2,-4(fp)
   15208:	10800017 	ldw	r2,0(r2)
   1520c:	103ee83a 	callr	r2

void _do_dtors(void)
{
  destructor* dtor;

  for (dtor = &__DTOR_END__[-1]; dtor >= __DTOR_LIST__; dtor--)
   15210:	e0bfff17 	ldw	r2,-4(fp)
   15214:	10bfff04 	addi	r2,r2,-4
   15218:	e0bfff15 	stw	r2,-4(fp)
   1521c:	e0ffff17 	ldw	r3,-4(fp)
   15220:	00800074 	movhi	r2,1
   15224:	1097b404 	addi	r2,r2,24272
   15228:	18bff62e 	bgeu	r3,r2,15204 <_gp+0xffff5818>
        (*dtor) (); 
}
   1522c:	0001883a 	nop
   15230:	e037883a 	mov	sp,fp
   15234:	dfc00117 	ldw	ra,4(sp)
   15238:	df000017 	ldw	fp,0(sp)
   1523c:	dec00204 	addi	sp,sp,8
   15240:	f800283a 	ret

00015244 <alt_icache_flush_all>:
/*
 * alt_icache_flush_all() is called to flush the entire instruction cache.
 */

void alt_icache_flush_all (void)
{
   15244:	defffe04 	addi	sp,sp,-8
   15248:	dfc00115 	stw	ra,4(sp)
   1524c:	df000015 	stw	fp,0(sp)
   15250:	d839883a 	mov	fp,sp
#if NIOS2_ICACHE_SIZE > 0
  alt_icache_flush (0, NIOS2_ICACHE_SIZE);
   15254:	01420004 	movi	r5,2048
   15258:	0009883a 	mov	r4,zero
   1525c:	0015aac0 	call	15aac <alt_icache_flush>
#endif
}
   15260:	0001883a 	nop
   15264:	e037883a 	mov	sp,fp
   15268:	dfc00117 	ldw	ra,4(sp)
   1526c:	df000017 	ldw	fp,0(sp)
   15270:	dec00204 	addi	sp,sp,8
   15274:	f800283a 	ret

00015278 <alt_exception_cause_generated_bad_addr>:
 * Return: 1: BADADDR (bad_addr argument to handler) is valid
 *         0: BADADDR is not valid
 */
int 
alt_exception_cause_generated_bad_addr(alt_exception_cause cause)
{
   15278:	defffe04 	addi	sp,sp,-8
   1527c:	df000115 	stw	fp,4(sp)
   15280:	df000104 	addi	fp,sp,4
   15284:	e13fff15 	stw	r4,-4(fp)
  switch (cause) {
   15288:	e0bfff17 	ldw	r2,-4(fp)
   1528c:	10bffe84 	addi	r2,r2,-6
   15290:	10c00428 	cmpgeui	r3,r2,16
   15294:	18001a1e 	bne	r3,zero,15300 <alt_exception_cause_generated_bad_addr+0x88>
   15298:	100690ba 	slli	r3,r2,2
   1529c:	00800074 	movhi	r2,1
   152a0:	1094ac04 	addi	r2,r2,21168
   152a4:	1885883a 	add	r2,r3,r2
   152a8:	10800017 	ldw	r2,0(r2)
   152ac:	1000683a 	jmp	r2
   152b0:	000152f0 	cmpltui	zero,zero,1355
   152b4:	000152f0 	cmpltui	zero,zero,1355
   152b8:	00015300 	call	1530 <__alt_mem_MEMOIRE_ONCHIP-0xead0>
   152bc:	00015300 	call	1530 <__alt_mem_MEMOIRE_ONCHIP-0xead0>
   152c0:	00015300 	call	1530 <__alt_mem_MEMOIRE_ONCHIP-0xead0>
   152c4:	000152f0 	cmpltui	zero,zero,1355
   152c8:	000152f8 	rdprs	zero,zero,1355
   152cc:	00015300 	call	1530 <__alt_mem_MEMOIRE_ONCHIP-0xead0>
   152d0:	000152f0 	cmpltui	zero,zero,1355
   152d4:	000152f0 	cmpltui	zero,zero,1355
   152d8:	00015300 	call	1530 <__alt_mem_MEMOIRE_ONCHIP-0xead0>
   152dc:	000152f0 	cmpltui	zero,zero,1355
   152e0:	000152f8 	rdprs	zero,zero,1355
   152e4:	00015300 	call	1530 <__alt_mem_MEMOIRE_ONCHIP-0xead0>
   152e8:	00015300 	call	1530 <__alt_mem_MEMOIRE_ONCHIP-0xead0>
   152ec:	000152f0 	cmpltui	zero,zero,1355
  case NIOS2_EXCEPTION_MISALIGNED_TARGET_PC:
  case NIOS2_EXCEPTION_TLB_READ_PERM_VIOLATION:
  case NIOS2_EXCEPTION_TLB_WRITE_PERM_VIOLATION:
  case NIOS2_EXCEPTION_MPU_DATA_REGION_VIOLATION:
  case NIOS2_EXCEPTION_ECC_DATA_ERR:
    return 1;
   152f0:	00800044 	movi	r2,1
   152f4:	00000306 	br	15304 <alt_exception_cause_generated_bad_addr+0x8c>

  case NIOS2_EXCEPTION_TLB_MISS:
  case NIOS2_EXCEPTION_ECC_TLB_ERR:
    return 0;
   152f8:	0005883a 	mov	r2,zero
   152fc:	00000106 	br	15304 <alt_exception_cause_generated_bad_addr+0x8c>

  default:
    return 0;
   15300:	0005883a 	mov	r2,zero
  }
}
   15304:	e037883a 	mov	sp,fp
   15308:	df000017 	ldw	fp,0(sp)
   1530c:	dec00104 	addi	sp,sp,4
   15310:	f800283a 	ret

00015314 <alt_open_fd>:
 * If the device can not be succesfully opened, then the input file descriptor
 * remains unchanged.
 */

static void alt_open_fd(alt_fd* fd, const char* name, int flags, int mode)
{
   15314:	defff904 	addi	sp,sp,-28
   15318:	dfc00615 	stw	ra,24(sp)
   1531c:	df000515 	stw	fp,20(sp)
   15320:	df000504 	addi	fp,sp,20
   15324:	e13ffc15 	stw	r4,-16(fp)
   15328:	e17ffd15 	stw	r5,-12(fp)
   1532c:	e1bffe15 	stw	r6,-8(fp)
   15330:	e1ffff15 	stw	r7,-4(fp)
  int old;

  old = open (name, flags, mode);
   15334:	e1bfff17 	ldw	r6,-4(fp)
   15338:	e17ffe17 	ldw	r5,-8(fp)
   1533c:	e13ffd17 	ldw	r4,-12(fp)
   15340:	00155540 	call	15554 <open>
   15344:	e0bffb15 	stw	r2,-20(fp)

  if (old >= 0)
   15348:	e0bffb17 	ldw	r2,-20(fp)
   1534c:	10001c16 	blt	r2,zero,153c0 <alt_open_fd+0xac>
  {
    fd->dev      = alt_fd_list[old].dev;
   15350:	00800074 	movhi	r2,1
   15354:	109a0304 	addi	r2,r2,26636
   15358:	e0fffb17 	ldw	r3,-20(fp)
   1535c:	18c00324 	muli	r3,r3,12
   15360:	10c5883a 	add	r2,r2,r3
   15364:	10c00017 	ldw	r3,0(r2)
   15368:	e0bffc17 	ldw	r2,-16(fp)
   1536c:	10c00015 	stw	r3,0(r2)
    fd->priv     = alt_fd_list[old].priv;
   15370:	00800074 	movhi	r2,1
   15374:	109a0304 	addi	r2,r2,26636
   15378:	e0fffb17 	ldw	r3,-20(fp)
   1537c:	18c00324 	muli	r3,r3,12
   15380:	10c5883a 	add	r2,r2,r3
   15384:	10800104 	addi	r2,r2,4
   15388:	10c00017 	ldw	r3,0(r2)
   1538c:	e0bffc17 	ldw	r2,-16(fp)
   15390:	10c00115 	stw	r3,4(r2)
    fd->fd_flags = alt_fd_list[old].fd_flags;
   15394:	00800074 	movhi	r2,1
   15398:	109a0304 	addi	r2,r2,26636
   1539c:	e0fffb17 	ldw	r3,-20(fp)
   153a0:	18c00324 	muli	r3,r3,12
   153a4:	10c5883a 	add	r2,r2,r3
   153a8:	10800204 	addi	r2,r2,8
   153ac:	10c00017 	ldw	r3,0(r2)
   153b0:	e0bffc17 	ldw	r2,-16(fp)
   153b4:	10c00215 	stw	r3,8(r2)

    alt_release_fd (old);
   153b8:	e13ffb17 	ldw	r4,-20(fp)
   153bc:	00140e40 	call	140e4 <alt_release_fd>
  }
} 
   153c0:	0001883a 	nop
   153c4:	e037883a 	mov	sp,fp
   153c8:	dfc00117 	ldw	ra,4(sp)
   153cc:	df000017 	ldw	fp,0(sp)
   153d0:	dec00204 	addi	sp,sp,8
   153d4:	f800283a 	ret

000153d8 <alt_io_redirect>:
 */
 
void alt_io_redirect(const char* stdout_dev, 
                     const char* stdin_dev, 
                     const char* stderr_dev)
{
   153d8:	defffb04 	addi	sp,sp,-20
   153dc:	dfc00415 	stw	ra,16(sp)
   153e0:	df000315 	stw	fp,12(sp)
   153e4:	df000304 	addi	fp,sp,12
   153e8:	e13ffd15 	stw	r4,-12(fp)
   153ec:	e17ffe15 	stw	r5,-8(fp)
   153f0:	e1bfff15 	stw	r6,-4(fp)
  /* Redirect the channels */

  alt_open_fd (&alt_fd_list[STDOUT_FILENO], stdout_dev, O_WRONLY, 0777);
   153f4:	01c07fc4 	movi	r7,511
   153f8:	01800044 	movi	r6,1
   153fc:	e17ffd17 	ldw	r5,-12(fp)
   15400:	01000074 	movhi	r4,1
   15404:	211a0604 	addi	r4,r4,26648
   15408:	00153140 	call	15314 <alt_open_fd>
  alt_open_fd (&alt_fd_list[STDIN_FILENO], stdin_dev, O_RDONLY, 0777);
   1540c:	01c07fc4 	movi	r7,511
   15410:	000d883a 	mov	r6,zero
   15414:	e17ffe17 	ldw	r5,-8(fp)
   15418:	01000074 	movhi	r4,1
   1541c:	211a0304 	addi	r4,r4,26636
   15420:	00153140 	call	15314 <alt_open_fd>
  alt_open_fd (&alt_fd_list[STDERR_FILENO], stderr_dev, O_WRONLY, 0777);
   15424:	01c07fc4 	movi	r7,511
   15428:	01800044 	movi	r6,1
   1542c:	e17fff17 	ldw	r5,-4(fp)
   15430:	01000074 	movhi	r4,1
   15434:	211a0904 	addi	r4,r4,26660
   15438:	00153140 	call	15314 <alt_open_fd>
}  
   1543c:	0001883a 	nop
   15440:	e037883a 	mov	sp,fp
   15444:	dfc00117 	ldw	ra,4(sp)
   15448:	df000017 	ldw	fp,0(sp)
   1544c:	dec00204 	addi	sp,sp,8
   15450:	f800283a 	ret

00015454 <alt_get_errno>:
#undef errno

extern int errno;

static ALT_INLINE int* alt_get_errno(void)
{
   15454:	defffe04 	addi	sp,sp,-8
   15458:	dfc00115 	stw	ra,4(sp)
   1545c:	df000015 	stw	fp,0(sp)
   15460:	d839883a 	mov	fp,sp
  return ((alt_errno) ? alt_errno() : &errno);
   15464:	d0a00a17 	ldw	r2,-32728(gp)
   15468:	10000326 	beq	r2,zero,15478 <alt_get_errno+0x24>
   1546c:	d0a00a17 	ldw	r2,-32728(gp)
   15470:	103ee83a 	callr	r2
   15474:	00000106 	br	1547c <alt_get_errno+0x28>
   15478:	d0a6ba04 	addi	r2,gp,-25880
}
   1547c:	e037883a 	mov	sp,fp
   15480:	dfc00117 	ldw	ra,4(sp)
   15484:	df000017 	ldw	fp,0(sp)
   15488:	dec00204 	addi	sp,sp,8
   1548c:	f800283a 	ret

00015490 <alt_file_locked>:
 * performed for devices. Filesystems are required to handle the ioctl() call
 * themselves, and report the error from the filesystems open() function. 
 */ 

static int alt_file_locked (alt_fd* fd)
{
   15490:	defffd04 	addi	sp,sp,-12
   15494:	df000215 	stw	fp,8(sp)
   15498:	df000204 	addi	fp,sp,8
   1549c:	e13fff15 	stw	r4,-4(fp)

  /*
   * Mark the file descriptor as belonging to a device.
   */

  fd->fd_flags |= ALT_FD_DEV;
   154a0:	e0bfff17 	ldw	r2,-4(fp)
   154a4:	10800217 	ldw	r2,8(r2)
   154a8:	10d00034 	orhi	r3,r2,16384
   154ac:	e0bfff17 	ldw	r2,-4(fp)
   154b0:	10c00215 	stw	r3,8(r2)
  /*
   * Loop through all current file descriptors searching for one that's locked
   * for exclusive access. If a match is found, generate an error.
   */

  for (i = 0; i <= alt_max_fd; i++)
   154b4:	e03ffe15 	stw	zero,-8(fp)
   154b8:	00001d06 	br	15530 <alt_file_locked+0xa0>
  {
    if ((alt_fd_list[i].dev == fd->dev) &&
   154bc:	00800074 	movhi	r2,1
   154c0:	109a0304 	addi	r2,r2,26636
   154c4:	e0fffe17 	ldw	r3,-8(fp)
   154c8:	18c00324 	muli	r3,r3,12
   154cc:	10c5883a 	add	r2,r2,r3
   154d0:	10c00017 	ldw	r3,0(r2)
   154d4:	e0bfff17 	ldw	r2,-4(fp)
   154d8:	10800017 	ldw	r2,0(r2)
   154dc:	1880111e 	bne	r3,r2,15524 <alt_file_locked+0x94>
        (alt_fd_list[i].fd_flags & ALT_FD_EXCL) &&
   154e0:	00800074 	movhi	r2,1
   154e4:	109a0304 	addi	r2,r2,26636
   154e8:	e0fffe17 	ldw	r3,-8(fp)
   154ec:	18c00324 	muli	r3,r3,12
   154f0:	10c5883a 	add	r2,r2,r3
   154f4:	10800204 	addi	r2,r2,8
   154f8:	10800017 	ldw	r2,0(r2)
   * for exclusive access. If a match is found, generate an error.
   */

  for (i = 0; i <= alt_max_fd; i++)
  {
    if ((alt_fd_list[i].dev == fd->dev) &&
   154fc:	1000090e 	bge	r2,zero,15524 <alt_file_locked+0x94>
        (alt_fd_list[i].fd_flags & ALT_FD_EXCL) &&
        (&alt_fd_list[i] != fd))
   15500:	e0bffe17 	ldw	r2,-8(fp)
   15504:	10c00324 	muli	r3,r2,12
   15508:	00800074 	movhi	r2,1
   1550c:	109a0304 	addi	r2,r2,26636
   15510:	1887883a 	add	r3,r3,r2
   */

  for (i = 0; i <= alt_max_fd; i++)
  {
    if ((alt_fd_list[i].dev == fd->dev) &&
        (alt_fd_list[i].fd_flags & ALT_FD_EXCL) &&
   15514:	e0bfff17 	ldw	r2,-4(fp)
   15518:	18800226 	beq	r3,r2,15524 <alt_file_locked+0x94>
        (&alt_fd_list[i] != fd))
    {
      return -EACCES;
   1551c:	00bffcc4 	movi	r2,-13
   15520:	00000806 	br	15544 <alt_file_locked+0xb4>
  /*
   * Loop through all current file descriptors searching for one that's locked
   * for exclusive access. If a match is found, generate an error.
   */

  for (i = 0; i <= alt_max_fd; i++)
   15524:	e0bffe17 	ldw	r2,-8(fp)
   15528:	10800044 	addi	r2,r2,1
   1552c:	e0bffe15 	stw	r2,-8(fp)
   15530:	d0a00917 	ldw	r2,-32732(gp)
   15534:	1007883a 	mov	r3,r2
   15538:	e0bffe17 	ldw	r2,-8(fp)
   1553c:	18bfdf2e 	bgeu	r3,r2,154bc <_gp+0xffff5ad0>
    }
  }
  
  /* The device is not locked */
 
  return 0;
   15540:	0005883a 	mov	r2,zero
}
   15544:	e037883a 	mov	sp,fp
   15548:	df000017 	ldw	fp,0(sp)
   1554c:	dec00104 	addi	sp,sp,4
   15550:	f800283a 	ret

00015554 <open>:
 *
 * ALT_OPEN is mapped onto the open() system call in alt_syscall.h
 */
 
int ALT_OPEN (const char* file, int flags, int mode)
{ 
   15554:	defff604 	addi	sp,sp,-40
   15558:	dfc00915 	stw	ra,36(sp)
   1555c:	df000815 	stw	fp,32(sp)
   15560:	df000804 	addi	fp,sp,32
   15564:	e13ffd15 	stw	r4,-12(fp)
   15568:	e17ffe15 	stw	r5,-8(fp)
   1556c:	e1bfff15 	stw	r6,-4(fp)
  alt_dev* dev;
  alt_fd*  fd;
  int index  = -1;
   15570:	00bfffc4 	movi	r2,-1
   15574:	e0bff915 	stw	r2,-28(fp)
  int status = -ENODEV;
   15578:	00bffb44 	movi	r2,-19
   1557c:	e0bffa15 	stw	r2,-24(fp)
  int isafs = 0;
   15580:	e03ffb15 	stw	zero,-20(fp)
  /* 
   * Check the device list, to see if a device with a matching name is 
   * registered.
   */
  
  if (!(dev = alt_find_dev (file, &alt_dev_list)))
   15584:	d1600704 	addi	r5,gp,-32740
   15588:	e13ffd17 	ldw	r4,-12(fp)
   1558c:	00158700 	call	15870 <alt_find_dev>
   15590:	e0bff815 	stw	r2,-32(fp)
   15594:	e0bff817 	ldw	r2,-32(fp)
   15598:	1000051e 	bne	r2,zero,155b0 <open+0x5c>
  {
    /* No matching device, so try the filesystem list */

    dev   = alt_find_file (file);
   1559c:	e13ffd17 	ldw	r4,-12(fp)
   155a0:	00159000 	call	15900 <alt_find_file>
   155a4:	e0bff815 	stw	r2,-32(fp)
    isafs = 1;
   155a8:	00800044 	movi	r2,1
   155ac:	e0bffb15 	stw	r2,-20(fp)

  /* 
   * If a matching device or filesystem is found, allocate a file descriptor. 
   */

  if (dev)
   155b0:	e0bff817 	ldw	r2,-32(fp)
   155b4:	10002926 	beq	r2,zero,1565c <open+0x108>
  {
    if ((index = alt_get_fd (dev)) < 0)
   155b8:	e13ff817 	ldw	r4,-32(fp)
   155bc:	0015a080 	call	15a08 <alt_get_fd>
   155c0:	e0bff915 	stw	r2,-28(fp)
   155c4:	e0bff917 	ldw	r2,-28(fp)
   155c8:	1000030e 	bge	r2,zero,155d8 <open+0x84>
    {
      status = index;
   155cc:	e0bff917 	ldw	r2,-28(fp)
   155d0:	e0bffa15 	stw	r2,-24(fp)
   155d4:	00002306 	br	15664 <open+0x110>
    }
    else
    {
      fd = &alt_fd_list[index];
   155d8:	e0bff917 	ldw	r2,-28(fp)
   155dc:	10c00324 	muli	r3,r2,12
   155e0:	00800074 	movhi	r2,1
   155e4:	109a0304 	addi	r2,r2,26636
   155e8:	1885883a 	add	r2,r3,r2
   155ec:	e0bffc15 	stw	r2,-16(fp)
      fd->fd_flags = (flags & ~ALT_FD_FLAGS_MASK);
   155f0:	e0fffe17 	ldw	r3,-8(fp)
   155f4:	00900034 	movhi	r2,16384
   155f8:	10bfffc4 	addi	r2,r2,-1
   155fc:	1886703a 	and	r3,r3,r2
   15600:	e0bffc17 	ldw	r2,-16(fp)
   15604:	10c00215 	stw	r3,8(r2)
      
      /* If this is a device, ensure it isn't already locked */

      if (isafs || ((status = alt_file_locked (fd)) >= 0))
   15608:	e0bffb17 	ldw	r2,-20(fp)
   1560c:	1000051e 	bne	r2,zero,15624 <open+0xd0>
   15610:	e13ffc17 	ldw	r4,-16(fp)
   15614:	00154900 	call	15490 <alt_file_locked>
   15618:	e0bffa15 	stw	r2,-24(fp)
   1561c:	e0bffa17 	ldw	r2,-24(fp)
   15620:	10001016 	blt	r2,zero,15664 <open+0x110>
        /* 
         * If the device or filesystem provides an open() callback function,
         * call it now to perform any device/filesystem specific operations.
         */
    
        status = (dev->open) ? dev->open(fd, file, flags, mode): 0;
   15624:	e0bff817 	ldw	r2,-32(fp)
   15628:	10800317 	ldw	r2,12(r2)
   1562c:	10000826 	beq	r2,zero,15650 <open+0xfc>
   15630:	e0bff817 	ldw	r2,-32(fp)
   15634:	10800317 	ldw	r2,12(r2)
   15638:	e1ffff17 	ldw	r7,-4(fp)
   1563c:	e1bffe17 	ldw	r6,-8(fp)
   15640:	e17ffd17 	ldw	r5,-12(fp)
   15644:	e13ffc17 	ldw	r4,-16(fp)
   15648:	103ee83a 	callr	r2
   1564c:	00000106 	br	15654 <open+0x100>
   15650:	0005883a 	mov	r2,zero
   15654:	e0bffa15 	stw	r2,-24(fp)
   15658:	00000206 	br	15664 <open+0x110>
      }
    }
  }
  else
  {
    status = -ENODEV;
   1565c:	00bffb44 	movi	r2,-19
   15660:	e0bffa15 	stw	r2,-24(fp)
  }

  /* Allocation failed, so clean up and return an error */ 

  if (status < 0)
   15664:	e0bffa17 	ldw	r2,-24(fp)
   15668:	1000090e 	bge	r2,zero,15690 <open+0x13c>
  {
    alt_release_fd (index);  
   1566c:	e13ff917 	ldw	r4,-28(fp)
   15670:	00140e40 	call	140e4 <alt_release_fd>
    ALT_ERRNO = -status;
   15674:	00154540 	call	15454 <alt_get_errno>
   15678:	1007883a 	mov	r3,r2
   1567c:	e0bffa17 	ldw	r2,-24(fp)
   15680:	0085c83a 	sub	r2,zero,r2
   15684:	18800015 	stw	r2,0(r3)
    return -1;
   15688:	00bfffc4 	movi	r2,-1
   1568c:	00000106 	br	15694 <open+0x140>
  }
  
  /* return the reference upon success */

  return index;
   15690:	e0bff917 	ldw	r2,-28(fp)
}
   15694:	e037883a 	mov	sp,fp
   15698:	dfc00117 	ldw	ra,4(sp)
   1569c:	df000017 	ldw	fp,0(sp)
   156a0:	dec00204 	addi	sp,sp,8
   156a4:	f800283a 	ret

000156a8 <alt_alarm_stop>:
 * alarms. Alternatively an alarm can unregister itself by returning zero when 
 * the alarm executes.
 */

void alt_alarm_stop (alt_alarm* alarm)
{
   156a8:	defffa04 	addi	sp,sp,-24
   156ac:	df000515 	stw	fp,20(sp)
   156b0:	df000504 	addi	fp,sp,20
   156b4:	e13fff15 	stw	r4,-4(fp)
static ALT_INLINE alt_irq_context ALT_ALWAYS_INLINE 
       alt_irq_disable_all (void)
{
  alt_irq_context context;

  NIOS2_READ_STATUS (context);
   156b8:	0005303a 	rdctl	r2,status
   156bc:	e0bffc15 	stw	r2,-16(fp)

  NIOS2_WRITE_STATUS (context & ~NIOS2_STATUS_PIE_MSK);
   156c0:	e0fffc17 	ldw	r3,-16(fp)
   156c4:	00bfff84 	movi	r2,-2
   156c8:	1884703a 	and	r2,r3,r2
   156cc:	1001703a 	wrctl	status,r2
  
  return context;
   156d0:	e0bffc17 	ldw	r2,-16(fp)
  alt_irq_context irq_context;

  irq_context = alt_irq_disable_all();
   156d4:	e0bffb15 	stw	r2,-20(fp)
  alt_llist_remove (&alarm->llist);
   156d8:	e0bfff17 	ldw	r2,-4(fp)
   156dc:	e0bffd15 	stw	r2,-12(fp)
 * input argument is the element to remove.
 */
     
static ALT_INLINE void ALT_ALWAYS_INLINE alt_llist_remove(alt_llist* entry)
{
  entry->next->previous = entry->previous;
   156e0:	e0bffd17 	ldw	r2,-12(fp)
   156e4:	10800017 	ldw	r2,0(r2)
   156e8:	e0fffd17 	ldw	r3,-12(fp)
   156ec:	18c00117 	ldw	r3,4(r3)
   156f0:	10c00115 	stw	r3,4(r2)
  entry->previous->next = entry->next;
   156f4:	e0bffd17 	ldw	r2,-12(fp)
   156f8:	10800117 	ldw	r2,4(r2)
   156fc:	e0fffd17 	ldw	r3,-12(fp)
   15700:	18c00017 	ldw	r3,0(r3)
   15704:	10c00015 	stw	r3,0(r2)
  /* 
   * Set the entry to point to itself, so that any further calls to
   * alt_llist_remove() are harmless.
   */

  entry->previous = entry;
   15708:	e0bffd17 	ldw	r2,-12(fp)
   1570c:	e0fffd17 	ldw	r3,-12(fp)
   15710:	10c00115 	stw	r3,4(r2)
  entry->next     = entry;
   15714:	e0bffd17 	ldw	r2,-12(fp)
   15718:	e0fffd17 	ldw	r3,-12(fp)
   1571c:	10c00015 	stw	r3,0(r2)
   15720:	e0bffb17 	ldw	r2,-20(fp)
   15724:	e0bffe15 	stw	r2,-8(fp)
  status &= ~NIOS2_STATUS_PIE_MSK;
  status |= (context & NIOS2_STATUS_PIE_MSK);
  
  NIOS2_WRITE_STATUS (status);
#else
  NIOS2_WRITE_STATUS (context);
   15728:	e0bffe17 	ldw	r2,-8(fp)
   1572c:	1001703a 	wrctl	status,r2
  alt_irq_enable_all (irq_context);
}
   15730:	0001883a 	nop
   15734:	e037883a 	mov	sp,fp
   15738:	df000017 	ldw	fp,0(sp)
   1573c:	dec00104 	addi	sp,sp,4
   15740:	f800283a 	ret

00015744 <alt_tick>:
 * 
 * alt_tick() is expected to run at interrupt level.
 */

void alt_tick (void)
{
   15744:	defffb04 	addi	sp,sp,-20
   15748:	dfc00415 	stw	ra,16(sp)
   1574c:	df000315 	stw	fp,12(sp)
   15750:	df000304 	addi	fp,sp,12
  alt_alarm* next;
  alt_alarm* alarm = (alt_alarm*) alt_alarm_list.next;
   15754:	d0a00d17 	ldw	r2,-32716(gp)
   15758:	e0bffd15 	stw	r2,-12(fp)

  alt_u32    next_callback;

  /* update the tick counter */

  _alt_nticks++;
   1575c:	d0a6c117 	ldw	r2,-25852(gp)
   15760:	10800044 	addi	r2,r2,1
   15764:	d0a6c115 	stw	r2,-25852(gp)

  /* process the registered callbacks */

  while (alarm != (alt_alarm*) &alt_alarm_list)
   15768:	00002e06 	br	15824 <alt_tick+0xe0>
  {
    next = (alt_alarm*) alarm->llist.next;
   1576c:	e0bffd17 	ldw	r2,-12(fp)
   15770:	10800017 	ldw	r2,0(r2)
   15774:	e0bffe15 	stw	r2,-8(fp)
    /* 
     * Upon the tick-counter rolling over it is safe to clear the 
     * roll-over flag; once the flag is cleared this (or subsequnt)
     * tick events are enabled to generate an alarm event. 
     */
    if ((alarm->rollover) && (_alt_nticks == 0))
   15778:	e0bffd17 	ldw	r2,-12(fp)
   1577c:	10800403 	ldbu	r2,16(r2)
   15780:	10803fcc 	andi	r2,r2,255
   15784:	10000426 	beq	r2,zero,15798 <alt_tick+0x54>
   15788:	d0a6c117 	ldw	r2,-25852(gp)
   1578c:	1000021e 	bne	r2,zero,15798 <alt_tick+0x54>
    {
      alarm->rollover = 0;
   15790:	e0bffd17 	ldw	r2,-12(fp)
   15794:	10000405 	stb	zero,16(r2)
    }
    
    /* if the alarm period has expired, make the callback */    
    if ((alarm->time <= _alt_nticks) && (alarm->rollover == 0))
   15798:	e0bffd17 	ldw	r2,-12(fp)
   1579c:	10800217 	ldw	r2,8(r2)
   157a0:	d0e6c117 	ldw	r3,-25852(gp)
   157a4:	18801d36 	bltu	r3,r2,1581c <alt_tick+0xd8>
   157a8:	e0bffd17 	ldw	r2,-12(fp)
   157ac:	10800403 	ldbu	r2,16(r2)
   157b0:	10803fcc 	andi	r2,r2,255
   157b4:	1000191e 	bne	r2,zero,1581c <alt_tick+0xd8>
    {
      next_callback = alarm->callback (alarm->context);
   157b8:	e0bffd17 	ldw	r2,-12(fp)
   157bc:	10800317 	ldw	r2,12(r2)
   157c0:	e0fffd17 	ldw	r3,-12(fp)
   157c4:	18c00517 	ldw	r3,20(r3)
   157c8:	1809883a 	mov	r4,r3
   157cc:	103ee83a 	callr	r2
   157d0:	e0bfff15 	stw	r2,-4(fp)

      /* deactivate the alarm if the return value is zero */

      if (next_callback == 0)
   157d4:	e0bfff17 	ldw	r2,-4(fp)
   157d8:	1000031e 	bne	r2,zero,157e8 <alt_tick+0xa4>
      {
        alt_alarm_stop (alarm);
   157dc:	e13ffd17 	ldw	r4,-12(fp)
   157e0:	00156a80 	call	156a8 <alt_alarm_stop>
   157e4:	00000d06 	br	1581c <alt_tick+0xd8>
      }
      else
      {
        alarm->time += next_callback;
   157e8:	e0bffd17 	ldw	r2,-12(fp)
   157ec:	10c00217 	ldw	r3,8(r2)
   157f0:	e0bfff17 	ldw	r2,-4(fp)
   157f4:	1887883a 	add	r3,r3,r2
   157f8:	e0bffd17 	ldw	r2,-12(fp)
   157fc:	10c00215 	stw	r3,8(r2)
        /* 
         * If the desired alarm time causes a roll-over, set the rollover
         * flag. This will prevent the subsequent tick event from causing
         * an alarm too early.
         */
        if(alarm->time < _alt_nticks)
   15800:	e0bffd17 	ldw	r2,-12(fp)
   15804:	10c00217 	ldw	r3,8(r2)
   15808:	d0a6c117 	ldw	r2,-25852(gp)
   1580c:	1880032e 	bgeu	r3,r2,1581c <alt_tick+0xd8>
        {
          alarm->rollover = 1;
   15810:	e0bffd17 	ldw	r2,-12(fp)
   15814:	00c00044 	movi	r3,1
   15818:	10c00405 	stb	r3,16(r2)
        }
      }
    }
    alarm = next;
   1581c:	e0bffe17 	ldw	r2,-8(fp)
   15820:	e0bffd15 	stw	r2,-12(fp)

  _alt_nticks++;

  /* process the registered callbacks */

  while (alarm != (alt_alarm*) &alt_alarm_list)
   15824:	e0fffd17 	ldw	r3,-12(fp)
   15828:	d0a00d04 	addi	r2,gp,-32716
   1582c:	18bfcf1e 	bne	r3,r2,1576c <_gp+0xffff5d80>

  /* 
   * Update the operating system specific timer facilities.
   */

  ALT_OS_TIME_TICK();
   15830:	0001883a 	nop
}
   15834:	0001883a 	nop
   15838:	e037883a 	mov	sp,fp
   1583c:	dfc00117 	ldw	ra,4(sp)
   15840:	df000017 	ldw	fp,0(sp)
   15844:	dec00204 	addi	sp,sp,8
   15848:	f800283a 	ret

0001584c <altera_nios2_gen2_irq_init>:
/*
 * To initialize the internal interrupt controller, just clear the IENABLE
 * register so that all possible IRQs are disabled.
 */
void altera_nios2_gen2_irq_init(void) 
{
   1584c:	deffff04 	addi	sp,sp,-4
   15850:	df000015 	stw	fp,0(sp)
   15854:	d839883a 	mov	fp,sp
    NIOS2_WRITE_IENABLE(0);
   15858:	000170fa 	wrctl	ienable,zero
}
   1585c:	0001883a 	nop
   15860:	e037883a 	mov	sp,fp
   15864:	df000017 	ldw	fp,0(sp)
   15868:	dec00104 	addi	sp,sp,4
   1586c:	f800283a 	ret

00015870 <alt_find_dev>:
 * "name" must be an exact match for the devices registered name for a match to
 * be found.
 */
 
alt_dev* alt_find_dev(const char* name, alt_llist* llist)
{
   15870:	defffa04 	addi	sp,sp,-24
   15874:	dfc00515 	stw	ra,20(sp)
   15878:	df000415 	stw	fp,16(sp)
   1587c:	df000404 	addi	fp,sp,16
   15880:	e13ffe15 	stw	r4,-8(fp)
   15884:	e17fff15 	stw	r5,-4(fp)
  alt_dev* next = (alt_dev*) llist->next;
   15888:	e0bfff17 	ldw	r2,-4(fp)
   1588c:	10800017 	ldw	r2,0(r2)
   15890:	e0bffc15 	stw	r2,-16(fp)
  alt_32 len;

  len  = strlen(name) + 1;
   15894:	e13ffe17 	ldw	r4,-8(fp)
   15898:	0010c080 	call	10c08 <strlen>
   1589c:	10800044 	addi	r2,r2,1
   158a0:	e0bffd15 	stw	r2,-12(fp)
  /*
   * Check each list entry in turn, until a match is found, or we reach the
   * end of the list (i.e. next winds up pointing back to the list head).
   */ 

  while (next != (alt_dev*) llist)
   158a4:	00000d06 	br	158dc <alt_find_dev+0x6c>
    /* 
     * memcmp() is used here rather than strcmp() in order to reduce the size
     * of the executable.
     */

    if (!memcmp (next->name, name, len))
   158a8:	e0bffc17 	ldw	r2,-16(fp)
   158ac:	10800217 	ldw	r2,8(r2)
   158b0:	e0fffd17 	ldw	r3,-12(fp)
   158b4:	180d883a 	mov	r6,r3
   158b8:	e17ffe17 	ldw	r5,-8(fp)
   158bc:	1009883a 	mov	r4,r2
   158c0:	0015b880 	call	15b88 <memcmp>
   158c4:	1000021e 	bne	r2,zero,158d0 <alt_find_dev+0x60>
    {
      /* match found */

      return next;
   158c8:	e0bffc17 	ldw	r2,-16(fp)
   158cc:	00000706 	br	158ec <alt_find_dev+0x7c>
    }
    next = (alt_dev*) next->llist.next;
   158d0:	e0bffc17 	ldw	r2,-16(fp)
   158d4:	10800017 	ldw	r2,0(r2)
   158d8:	e0bffc15 	stw	r2,-16(fp)
  /*
   * Check each list entry in turn, until a match is found, or we reach the
   * end of the list (i.e. next winds up pointing back to the list head).
   */ 

  while (next != (alt_dev*) llist)
   158dc:	e0fffc17 	ldw	r3,-16(fp)
   158e0:	e0bfff17 	ldw	r2,-4(fp)
   158e4:	18bff01e 	bne	r3,r2,158a8 <_gp+0xffff5ebc>
    next = (alt_dev*) next->llist.next;
  }
  
  /* No match found */
  
  return NULL;
   158e8:	0005883a 	mov	r2,zero
}
   158ec:	e037883a 	mov	sp,fp
   158f0:	dfc00117 	ldw	ra,4(sp)
   158f4:	df000017 	ldw	fp,0(sp)
   158f8:	dec00204 	addi	sp,sp,8
   158fc:	f800283a 	ret

00015900 <alt_find_file>:
 * either '/' or '\0' is the prefix of the filename. For example the filename:
 * "/myfilesystem/junk.txt" would match: "/myfilesystem", but not: "/myfile". 
 */
 
alt_dev* alt_find_file (const char* name)
{
   15900:	defffb04 	addi	sp,sp,-20
   15904:	dfc00415 	stw	ra,16(sp)
   15908:	df000315 	stw	fp,12(sp)
   1590c:	df000304 	addi	fp,sp,12
   15910:	e13fff15 	stw	r4,-4(fp)
  alt_dev* next = (alt_dev*) alt_fs_list.next;   
   15914:	d0a00517 	ldw	r2,-32748(gp)
   15918:	e0bffd15 	stw	r2,-12(fp)
  /*
   * Check each list entry in turn, until a match is found, or we reach the
   * end of the list (i.e. next winds up pointing back to the list head).
   */ 
 
  while (next != (alt_dev*) &alt_fs_list)
   1591c:	00003106 	br	159e4 <alt_find_file+0xe4>
  {
    len = strlen(next->name);
   15920:	e0bffd17 	ldw	r2,-12(fp)
   15924:	10800217 	ldw	r2,8(r2)
   15928:	1009883a 	mov	r4,r2
   1592c:	0010c080 	call	10c08 <strlen>
   15930:	e0bffe15 	stw	r2,-8(fp)
    
    if (next->name[len-1] == '/')
   15934:	e0bffd17 	ldw	r2,-12(fp)
   15938:	10c00217 	ldw	r3,8(r2)
   1593c:	e0bffe17 	ldw	r2,-8(fp)
   15940:	10bfffc4 	addi	r2,r2,-1
   15944:	1885883a 	add	r2,r3,r2
   15948:	10800003 	ldbu	r2,0(r2)
   1594c:	10803fcc 	andi	r2,r2,255
   15950:	1080201c 	xori	r2,r2,128
   15954:	10bfe004 	addi	r2,r2,-128
   15958:	10800bd8 	cmpnei	r2,r2,47
   1595c:	1000031e 	bne	r2,zero,1596c <alt_find_file+0x6c>
    {
      len -= 1;
   15960:	e0bffe17 	ldw	r2,-8(fp)
   15964:	10bfffc4 	addi	r2,r2,-1
   15968:	e0bffe15 	stw	r2,-8(fp)
    }

    if (((name[len] == '/') || (name[len] == '\0')) && 
   1596c:	e0bffe17 	ldw	r2,-8(fp)
   15970:	e0ffff17 	ldw	r3,-4(fp)
   15974:	1885883a 	add	r2,r3,r2
   15978:	10800003 	ldbu	r2,0(r2)
   1597c:	10803fcc 	andi	r2,r2,255
   15980:	1080201c 	xori	r2,r2,128
   15984:	10bfe004 	addi	r2,r2,-128
   15988:	10800be0 	cmpeqi	r2,r2,47
   1598c:	1000081e 	bne	r2,zero,159b0 <alt_find_file+0xb0>
   15990:	e0bffe17 	ldw	r2,-8(fp)
   15994:	e0ffff17 	ldw	r3,-4(fp)
   15998:	1885883a 	add	r2,r3,r2
   1599c:	10800003 	ldbu	r2,0(r2)
   159a0:	10803fcc 	andi	r2,r2,255
   159a4:	1080201c 	xori	r2,r2,128
   159a8:	10bfe004 	addi	r2,r2,-128
   159ac:	10000a1e 	bne	r2,zero,159d8 <alt_find_file+0xd8>
        !memcmp (next->name, name, len))
   159b0:	e0bffd17 	ldw	r2,-12(fp)
   159b4:	10800217 	ldw	r2,8(r2)
   159b8:	e0fffe17 	ldw	r3,-8(fp)
   159bc:	180d883a 	mov	r6,r3
   159c0:	e17fff17 	ldw	r5,-4(fp)
   159c4:	1009883a 	mov	r4,r2
   159c8:	0015b880 	call	15b88 <memcmp>
    if (next->name[len-1] == '/')
    {
      len -= 1;
    }

    if (((name[len] == '/') || (name[len] == '\0')) && 
   159cc:	1000021e 	bne	r2,zero,159d8 <alt_find_file+0xd8>
        !memcmp (next->name, name, len))
    {
      /* match found */

      return next;
   159d0:	e0bffd17 	ldw	r2,-12(fp)
   159d4:	00000706 	br	159f4 <alt_find_file+0xf4>
    }
    next = (alt_dev*) next->llist.next;
   159d8:	e0bffd17 	ldw	r2,-12(fp)
   159dc:	10800017 	ldw	r2,0(r2)
   159e0:	e0bffd15 	stw	r2,-12(fp)
  /*
   * Check each list entry in turn, until a match is found, or we reach the
   * end of the list (i.e. next winds up pointing back to the list head).
   */ 
 
  while (next != (alt_dev*) &alt_fs_list)
   159e4:	e0fffd17 	ldw	r3,-12(fp)
   159e8:	d0a00504 	addi	r2,gp,-32748
   159ec:	18bfcc1e 	bne	r3,r2,15920 <_gp+0xffff5f34>
    next = (alt_dev*) next->llist.next;
  }
  
  /* No match found */
  
  return NULL;     
   159f0:	0005883a 	mov	r2,zero
}
   159f4:	e037883a 	mov	sp,fp
   159f8:	dfc00117 	ldw	ra,4(sp)
   159fc:	df000017 	ldw	fp,0(sp)
   15a00:	dec00204 	addi	sp,sp,8
   15a04:	f800283a 	ret

00015a08 <alt_get_fd>:
 * the offset of the file descriptor within the file descriptor array). A
 * negative value indicates failure.
 */

int alt_get_fd (alt_dev* dev)
{
   15a08:	defffc04 	addi	sp,sp,-16
   15a0c:	df000315 	stw	fp,12(sp)
   15a10:	df000304 	addi	fp,sp,12
   15a14:	e13fff15 	stw	r4,-4(fp)
  alt_32 i;
  int rc = -EMFILE;
   15a18:	00bffa04 	movi	r2,-24
   15a1c:	e0bffe15 	stw	r2,-8(fp)
   * indicates the highest file descriptor ever allocated. This is used to
   * improve efficency when searching the file descriptor list, and 
   * therefore reduce contention on the alt_fd_list_lock semaphore. 
   */

  for (i = 0; i < ALT_MAX_FD; i++)
   15a20:	e03ffd15 	stw	zero,-12(fp)
   15a24:	00001906 	br	15a8c <alt_get_fd+0x84>
  {
    if (!alt_fd_list[i].dev)
   15a28:	00800074 	movhi	r2,1
   15a2c:	109a0304 	addi	r2,r2,26636
   15a30:	e0fffd17 	ldw	r3,-12(fp)
   15a34:	18c00324 	muli	r3,r3,12
   15a38:	10c5883a 	add	r2,r2,r3
   15a3c:	10800017 	ldw	r2,0(r2)
   15a40:	10000f1e 	bne	r2,zero,15a80 <alt_get_fd+0x78>
    {
      alt_fd_list[i].dev = dev;
   15a44:	00800074 	movhi	r2,1
   15a48:	109a0304 	addi	r2,r2,26636
   15a4c:	e0fffd17 	ldw	r3,-12(fp)
   15a50:	18c00324 	muli	r3,r3,12
   15a54:	10c5883a 	add	r2,r2,r3
   15a58:	e0ffff17 	ldw	r3,-4(fp)
   15a5c:	10c00015 	stw	r3,0(r2)
      if (i > alt_max_fd)
   15a60:	d0e00917 	ldw	r3,-32732(gp)
   15a64:	e0bffd17 	ldw	r2,-12(fp)
   15a68:	1880020e 	bge	r3,r2,15a74 <alt_get_fd+0x6c>
      {
        alt_max_fd = i;
   15a6c:	e0bffd17 	ldw	r2,-12(fp)
   15a70:	d0a00915 	stw	r2,-32732(gp)
      }
      rc = i;
   15a74:	e0bffd17 	ldw	r2,-12(fp)
   15a78:	e0bffe15 	stw	r2,-8(fp)
      goto alt_get_fd_exit;
   15a7c:	00000606 	br	15a98 <alt_get_fd+0x90>
   * indicates the highest file descriptor ever allocated. This is used to
   * improve efficency when searching the file descriptor list, and 
   * therefore reduce contention on the alt_fd_list_lock semaphore. 
   */

  for (i = 0; i < ALT_MAX_FD; i++)
   15a80:	e0bffd17 	ldw	r2,-12(fp)
   15a84:	10800044 	addi	r2,r2,1
   15a88:	e0bffd15 	stw	r2,-12(fp)
   15a8c:	e0bffd17 	ldw	r2,-12(fp)
   15a90:	10800810 	cmplti	r2,r2,32
   15a94:	103fe41e 	bne	r2,zero,15a28 <_gp+0xffff603c>
   * file descriptor pool.
   */

  ALT_SEM_POST(alt_fd_list_lock);

  return rc;
   15a98:	e0bffe17 	ldw	r2,-8(fp)
}
   15a9c:	e037883a 	mov	sp,fp
   15aa0:	df000017 	ldw	fp,0(sp)
   15aa4:	dec00104 	addi	sp,sp,4
   15aa8:	f800283a 	ret

00015aac <alt_icache_flush>:
 * alt_icache_flush() is called to flush the instruction cache for a memory
 * region of length "len" bytes, starting at address "start".
 */

void alt_icache_flush (void* start, alt_u32 len)
{
   15aac:	defffb04 	addi	sp,sp,-20
   15ab0:	df000415 	stw	fp,16(sp)
   15ab4:	df000404 	addi	fp,sp,16
   15ab8:	e13ffe15 	stw	r4,-8(fp)
   15abc:	e17fff15 	stw	r5,-4(fp)

  /*
   * This is the most we would ever need to flush.
   */
 
  if (len > NIOS2_ICACHE_SIZE)
   15ac0:	e0bfff17 	ldw	r2,-4(fp)
   15ac4:	10820070 	cmpltui	r2,r2,2049
   15ac8:	1000021e 	bne	r2,zero,15ad4 <alt_icache_flush+0x28>
  {
    len = NIOS2_ICACHE_SIZE;
   15acc:	00820004 	movi	r2,2048
   15ad0:	e0bfff15 	stw	r2,-4(fp)
  }

  end = ((char*) start) + len;
   15ad4:	e0fffe17 	ldw	r3,-8(fp)
   15ad8:	e0bfff17 	ldw	r2,-4(fp)
   15adc:	1885883a 	add	r2,r3,r2
   15ae0:	e0bffd15 	stw	r2,-12(fp)

  for (i = start; i < end; i+= NIOS2_ICACHE_LINE_SIZE)
   15ae4:	e0bffe17 	ldw	r2,-8(fp)
   15ae8:	e0bffc15 	stw	r2,-16(fp)
   15aec:	00000506 	br	15b04 <alt_icache_flush+0x58>
  { 
    __asm__ volatile ("flushi %0" :: "r" (i)); 
   15af0:	e0bffc17 	ldw	r2,-16(fp)
   15af4:	1000603a 	flushi	r2
    len = NIOS2_ICACHE_SIZE;
  }

  end = ((char*) start) + len;

  for (i = start; i < end; i+= NIOS2_ICACHE_LINE_SIZE)
   15af8:	e0bffc17 	ldw	r2,-16(fp)
   15afc:	10800804 	addi	r2,r2,32
   15b00:	e0bffc15 	stw	r2,-16(fp)
   15b04:	e0fffc17 	ldw	r3,-16(fp)
   15b08:	e0bffd17 	ldw	r2,-12(fp)
   15b0c:	18bff836 	bltu	r3,r2,15af0 <_gp+0xffff6104>
   * For an unaligned flush request, we've got one more line left.
   * Note that this is dependent on NIOS2_ICACHE_LINE_SIZE to be a 
   * multiple of 2 (which it always is).
   */

  if (((alt_u32) start) & (NIOS2_ICACHE_LINE_SIZE - 1))
   15b10:	e0bffe17 	ldw	r2,-8(fp)
   15b14:	108007cc 	andi	r2,r2,31
   15b18:	10000226 	beq	r2,zero,15b24 <alt_icache_flush+0x78>
  {
    __asm__ volatile ("flushi %0" :: "r" (i));
   15b1c:	e0bffc17 	ldw	r2,-16(fp)
   15b20:	1000603a 	flushi	r2
  /* 
   * Having flushed the cache, flush any stale instructions in the 
   * pipeline 
   */

  __asm__ volatile ("flushp");
   15b24:	0000203a 	flushp

#endif /* NIOS2_ICACHE_SIZE > 0 */
}
   15b28:	0001883a 	nop
   15b2c:	e037883a 	mov	sp,fp
   15b30:	df000017 	ldw	fp,0(sp)
   15b34:	dec00104 	addi	sp,sp,4
   15b38:	f800283a 	ret

00015b3c <atexit>:
   15b3c:	200b883a 	mov	r5,r4
   15b40:	000f883a 	mov	r7,zero
   15b44:	000d883a 	mov	r6,zero
   15b48:	0009883a 	mov	r4,zero
   15b4c:	0015c041 	jmpi	15c04 <__register_exitproc>

00015b50 <exit>:
   15b50:	defffe04 	addi	sp,sp,-8
   15b54:	000b883a 	mov	r5,zero
   15b58:	dc000015 	stw	r16,0(sp)
   15b5c:	dfc00115 	stw	ra,4(sp)
   15b60:	2021883a 	mov	r16,r4
   15b64:	0015d1c0 	call	15d1c <__call_exitprocs>
   15b68:	00800074 	movhi	r2,1
   15b6c:	109e7c04 	addi	r2,r2,31216
   15b70:	11000017 	ldw	r4,0(r2)
   15b74:	20800f17 	ldw	r2,60(r4)
   15b78:	10000126 	beq	r2,zero,15b80 <exit+0x30>
   15b7c:	103ee83a 	callr	r2
   15b80:	8009883a 	mov	r4,r16
   15b84:	0015e9c0 	call	15e9c <_exit>

00015b88 <memcmp>:
   15b88:	01c000c4 	movi	r7,3
   15b8c:	3980192e 	bgeu	r7,r6,15bf4 <memcmp+0x6c>
   15b90:	2144b03a 	or	r2,r4,r5
   15b94:	11c4703a 	and	r2,r2,r7
   15b98:	10000f26 	beq	r2,zero,15bd8 <memcmp+0x50>
   15b9c:	20800003 	ldbu	r2,0(r4)
   15ba0:	28c00003 	ldbu	r3,0(r5)
   15ba4:	10c0151e 	bne	r2,r3,15bfc <memcmp+0x74>
   15ba8:	31bfff84 	addi	r6,r6,-2
   15bac:	01ffffc4 	movi	r7,-1
   15bb0:	00000406 	br	15bc4 <memcmp+0x3c>
   15bb4:	20800003 	ldbu	r2,0(r4)
   15bb8:	28c00003 	ldbu	r3,0(r5)
   15bbc:	31bfffc4 	addi	r6,r6,-1
   15bc0:	10c00e1e 	bne	r2,r3,15bfc <memcmp+0x74>
   15bc4:	21000044 	addi	r4,r4,1
   15bc8:	29400044 	addi	r5,r5,1
   15bcc:	31fff91e 	bne	r6,r7,15bb4 <_gp+0xffff61c8>
   15bd0:	0005883a 	mov	r2,zero
   15bd4:	f800283a 	ret
   15bd8:	20c00017 	ldw	r3,0(r4)
   15bdc:	28800017 	ldw	r2,0(r5)
   15be0:	18bfee1e 	bne	r3,r2,15b9c <_gp+0xffff61b0>
   15be4:	31bfff04 	addi	r6,r6,-4
   15be8:	21000104 	addi	r4,r4,4
   15bec:	29400104 	addi	r5,r5,4
   15bf0:	39bff936 	bltu	r7,r6,15bd8 <_gp+0xffff61ec>
   15bf4:	303fe91e 	bne	r6,zero,15b9c <_gp+0xffff61b0>
   15bf8:	003ff506 	br	15bd0 <_gp+0xffff61e4>
   15bfc:	10c5c83a 	sub	r2,r2,r3
   15c00:	f800283a 	ret

00015c04 <__register_exitproc>:
   15c04:	defffa04 	addi	sp,sp,-24
   15c08:	dc000315 	stw	r16,12(sp)
   15c0c:	04000074 	movhi	r16,1
   15c10:	841e7c04 	addi	r16,r16,31216
   15c14:	80c00017 	ldw	r3,0(r16)
   15c18:	dc400415 	stw	r17,16(sp)
   15c1c:	dfc00515 	stw	ra,20(sp)
   15c20:	18805217 	ldw	r2,328(r3)
   15c24:	2023883a 	mov	r17,r4
   15c28:	10003726 	beq	r2,zero,15d08 <__register_exitproc+0x104>
   15c2c:	10c00117 	ldw	r3,4(r2)
   15c30:	010007c4 	movi	r4,31
   15c34:	20c00e16 	blt	r4,r3,15c70 <__register_exitproc+0x6c>
   15c38:	1a000044 	addi	r8,r3,1
   15c3c:	8800221e 	bne	r17,zero,15cc8 <__register_exitproc+0xc4>
   15c40:	18c00084 	addi	r3,r3,2
   15c44:	18c7883a 	add	r3,r3,r3
   15c48:	18c7883a 	add	r3,r3,r3
   15c4c:	12000115 	stw	r8,4(r2)
   15c50:	10c7883a 	add	r3,r2,r3
   15c54:	19400015 	stw	r5,0(r3)
   15c58:	0005883a 	mov	r2,zero
   15c5c:	dfc00517 	ldw	ra,20(sp)
   15c60:	dc400417 	ldw	r17,16(sp)
   15c64:	dc000317 	ldw	r16,12(sp)
   15c68:	dec00604 	addi	sp,sp,24
   15c6c:	f800283a 	ret
   15c70:	00800034 	movhi	r2,0
   15c74:	10800004 	addi	r2,r2,0
   15c78:	10002626 	beq	r2,zero,15d14 <__register_exitproc+0x110>
   15c7c:	01006404 	movi	r4,400
   15c80:	d9400015 	stw	r5,0(sp)
   15c84:	d9800115 	stw	r6,4(sp)
   15c88:	d9c00215 	stw	r7,8(sp)
   15c8c:	00000000 	call	0 <__alt_mem_MEMOIRE_ONCHIP-0x10000>
   15c90:	d9400017 	ldw	r5,0(sp)
   15c94:	d9800117 	ldw	r6,4(sp)
   15c98:	d9c00217 	ldw	r7,8(sp)
   15c9c:	10001d26 	beq	r2,zero,15d14 <__register_exitproc+0x110>
   15ca0:	81000017 	ldw	r4,0(r16)
   15ca4:	10000115 	stw	zero,4(r2)
   15ca8:	02000044 	movi	r8,1
   15cac:	22405217 	ldw	r9,328(r4)
   15cb0:	0007883a 	mov	r3,zero
   15cb4:	12400015 	stw	r9,0(r2)
   15cb8:	20805215 	stw	r2,328(r4)
   15cbc:	10006215 	stw	zero,392(r2)
   15cc0:	10006315 	stw	zero,396(r2)
   15cc4:	883fde26 	beq	r17,zero,15c40 <_gp+0xffff6254>
   15cc8:	18c9883a 	add	r4,r3,r3
   15ccc:	2109883a 	add	r4,r4,r4
   15cd0:	1109883a 	add	r4,r2,r4
   15cd4:	21802215 	stw	r6,136(r4)
   15cd8:	01800044 	movi	r6,1
   15cdc:	12406217 	ldw	r9,392(r2)
   15ce0:	30cc983a 	sll	r6,r6,r3
   15ce4:	4992b03a 	or	r9,r9,r6
   15ce8:	12406215 	stw	r9,392(r2)
   15cec:	21c04215 	stw	r7,264(r4)
   15cf0:	01000084 	movi	r4,2
   15cf4:	893fd21e 	bne	r17,r4,15c40 <_gp+0xffff6254>
   15cf8:	11006317 	ldw	r4,396(r2)
   15cfc:	218cb03a 	or	r6,r4,r6
   15d00:	11806315 	stw	r6,396(r2)
   15d04:	003fce06 	br	15c40 <_gp+0xffff6254>
   15d08:	18805304 	addi	r2,r3,332
   15d0c:	18805215 	stw	r2,328(r3)
   15d10:	003fc606 	br	15c2c <_gp+0xffff6240>
   15d14:	00bfffc4 	movi	r2,-1
   15d18:	003fd006 	br	15c5c <_gp+0xffff6270>

00015d1c <__call_exitprocs>:
   15d1c:	defff504 	addi	sp,sp,-44
   15d20:	df000915 	stw	fp,36(sp)
   15d24:	dd400615 	stw	r21,24(sp)
   15d28:	dc800315 	stw	r18,12(sp)
   15d2c:	dfc00a15 	stw	ra,40(sp)
   15d30:	ddc00815 	stw	r23,32(sp)
   15d34:	dd800715 	stw	r22,28(sp)
   15d38:	dd000515 	stw	r20,20(sp)
   15d3c:	dcc00415 	stw	r19,16(sp)
   15d40:	dc400215 	stw	r17,8(sp)
   15d44:	dc000115 	stw	r16,4(sp)
   15d48:	d9000015 	stw	r4,0(sp)
   15d4c:	2839883a 	mov	fp,r5
   15d50:	04800044 	movi	r18,1
   15d54:	057fffc4 	movi	r21,-1
   15d58:	00800074 	movhi	r2,1
   15d5c:	109e7c04 	addi	r2,r2,31216
   15d60:	12000017 	ldw	r8,0(r2)
   15d64:	45005217 	ldw	r20,328(r8)
   15d68:	44c05204 	addi	r19,r8,328
   15d6c:	a0001c26 	beq	r20,zero,15de0 <__call_exitprocs+0xc4>
   15d70:	a0800117 	ldw	r2,4(r20)
   15d74:	15ffffc4 	addi	r23,r2,-1
   15d78:	b8000d16 	blt	r23,zero,15db0 <__call_exitprocs+0x94>
   15d7c:	14000044 	addi	r16,r2,1
   15d80:	8421883a 	add	r16,r16,r16
   15d84:	8421883a 	add	r16,r16,r16
   15d88:	84402004 	addi	r17,r16,128
   15d8c:	a463883a 	add	r17,r20,r17
   15d90:	a421883a 	add	r16,r20,r16
   15d94:	e0001e26 	beq	fp,zero,15e10 <__call_exitprocs+0xf4>
   15d98:	80804017 	ldw	r2,256(r16)
   15d9c:	e0801c26 	beq	fp,r2,15e10 <__call_exitprocs+0xf4>
   15da0:	bdffffc4 	addi	r23,r23,-1
   15da4:	843fff04 	addi	r16,r16,-4
   15da8:	8c7fff04 	addi	r17,r17,-4
   15dac:	bd7ff91e 	bne	r23,r21,15d94 <_gp+0xffff63a8>
   15db0:	00800034 	movhi	r2,0
   15db4:	10800004 	addi	r2,r2,0
   15db8:	10000926 	beq	r2,zero,15de0 <__call_exitprocs+0xc4>
   15dbc:	a0800117 	ldw	r2,4(r20)
   15dc0:	1000301e 	bne	r2,zero,15e84 <__call_exitprocs+0x168>
   15dc4:	a0800017 	ldw	r2,0(r20)
   15dc8:	10003226 	beq	r2,zero,15e94 <__call_exitprocs+0x178>
   15dcc:	a009883a 	mov	r4,r20
   15dd0:	98800015 	stw	r2,0(r19)
   15dd4:	00000000 	call	0 <__alt_mem_MEMOIRE_ONCHIP-0x10000>
   15dd8:	9d000017 	ldw	r20,0(r19)
   15ddc:	a03fe41e 	bne	r20,zero,15d70 <_gp+0xffff6384>
   15de0:	dfc00a17 	ldw	ra,40(sp)
   15de4:	df000917 	ldw	fp,36(sp)
   15de8:	ddc00817 	ldw	r23,32(sp)
   15dec:	dd800717 	ldw	r22,28(sp)
   15df0:	dd400617 	ldw	r21,24(sp)
   15df4:	dd000517 	ldw	r20,20(sp)
   15df8:	dcc00417 	ldw	r19,16(sp)
   15dfc:	dc800317 	ldw	r18,12(sp)
   15e00:	dc400217 	ldw	r17,8(sp)
   15e04:	dc000117 	ldw	r16,4(sp)
   15e08:	dec00b04 	addi	sp,sp,44
   15e0c:	f800283a 	ret
   15e10:	a0800117 	ldw	r2,4(r20)
   15e14:	80c00017 	ldw	r3,0(r16)
   15e18:	10bfffc4 	addi	r2,r2,-1
   15e1c:	15c01426 	beq	r2,r23,15e70 <__call_exitprocs+0x154>
   15e20:	80000015 	stw	zero,0(r16)
   15e24:	183fde26 	beq	r3,zero,15da0 <_gp+0xffff63b4>
   15e28:	95c8983a 	sll	r4,r18,r23
   15e2c:	a0806217 	ldw	r2,392(r20)
   15e30:	a5800117 	ldw	r22,4(r20)
   15e34:	2084703a 	and	r2,r4,r2
   15e38:	10000b26 	beq	r2,zero,15e68 <__call_exitprocs+0x14c>
   15e3c:	a0806317 	ldw	r2,396(r20)
   15e40:	2088703a 	and	r4,r4,r2
   15e44:	20000c1e 	bne	r4,zero,15e78 <__call_exitprocs+0x15c>
   15e48:	89400017 	ldw	r5,0(r17)
   15e4c:	d9000017 	ldw	r4,0(sp)
   15e50:	183ee83a 	callr	r3
   15e54:	a0800117 	ldw	r2,4(r20)
   15e58:	15bfbf1e 	bne	r2,r22,15d58 <_gp+0xffff636c>
   15e5c:	98800017 	ldw	r2,0(r19)
   15e60:	153fcf26 	beq	r2,r20,15da0 <_gp+0xffff63b4>
   15e64:	003fbc06 	br	15d58 <_gp+0xffff636c>
   15e68:	183ee83a 	callr	r3
   15e6c:	003ff906 	br	15e54 <_gp+0xffff6468>
   15e70:	a5c00115 	stw	r23,4(r20)
   15e74:	003feb06 	br	15e24 <_gp+0xffff6438>
   15e78:	89000017 	ldw	r4,0(r17)
   15e7c:	183ee83a 	callr	r3
   15e80:	003ff406 	br	15e54 <_gp+0xffff6468>
   15e84:	a0800017 	ldw	r2,0(r20)
   15e88:	a027883a 	mov	r19,r20
   15e8c:	1029883a 	mov	r20,r2
   15e90:	003fb606 	br	15d6c <_gp+0xffff6380>
   15e94:	0005883a 	mov	r2,zero
   15e98:	003ffb06 	br	15e88 <_gp+0xffff649c>

00015e9c <_exit>:
 *
 * ALT_EXIT is mapped onto the _exit() system call in alt_syscall.h
 */

void ALT_EXIT (int exit_code)
{
   15e9c:	defffd04 	addi	sp,sp,-12
   15ea0:	df000215 	stw	fp,8(sp)
   15ea4:	df000204 	addi	fp,sp,8
   15ea8:	e13fff15 	stw	r4,-4(fp)
  ALT_LOG_PRINT_BOOT("[alt_exit.c] Entering _exit() function.\r\n");
  ALT_LOG_PRINT_BOOT("[alt_exit.c] Exit code from main was %d.\r\n",exit_code);
  /* Stop all other threads */

  ALT_LOG_PRINT_BOOT("[alt_exit.c] Calling ALT_OS_STOP().\r\n");
  ALT_OS_STOP();
   15eac:	0001883a 	nop
   15eb0:	e0bfff17 	ldw	r2,-4(fp)
   15eb4:	e0bffe15 	stw	r2,-8(fp)
/*
 * Routine called on exit.
 */
static ALT_INLINE ALT_ALWAYS_INLINE void alt_sim_halt(int exit_code)
{
  register int r2 asm ("r2") = exit_code;
   15eb8:	e0bffe17 	ldw	r2,-8(fp)
  __asm__ volatile ("\n0:\n\taddi %0,%0, -1\n\tbgt %0,zero,0b" : : "r" (ALT_CPU_FREQ/100) ); /* Delay for >30ms */

  __asm__ volatile ("break 2" : : "r"(r2), "r"(r3) ALT_GMON_DATA );

#else /* !DEBUG_STUB */
  if (r2) {
   15ebc:	10000226 	beq	r2,zero,15ec8 <_exit+0x2c>
    ALT_SIM_FAIL();
   15ec0:	002af070 	cmpltui	zero,zero,43969
   15ec4:	00000106 	br	15ecc <_exit+0x30>
  } else {
    ALT_SIM_PASS();
   15ec8:	002af0b0 	cmpltui	zero,zero,43970
  ALT_SIM_HALT(exit_code);

  /* spin forever, since there's no where to go back to */

  ALT_LOG_PRINT_BOOT("[alt_exit.c] Spinning forever.\r\n");
  while (1);
   15ecc:	003fff06 	br	15ecc <_gp+0xffff64e0>
