
alarm_clock_jukebox.elf:     file format elf32-littlenios2
alarm_clock_jukebox.elf
architecture: nios2:r1, flags 0x00000112:
EXEC_P, HAS_SYMS, D_PAGED
start address 0x00040244

Program Header:
    LOAD off    0x00001000 vaddr 0x00040000 paddr 0x00040000 align 2**12
         filesz 0x00000020 memsz 0x00000020 flags r-x
    LOAD off    0x00001020 vaddr 0x00040020 paddr 0x00040020 align 2**12
         filesz 0x00003774 memsz 0x00003774 flags r-x
    LOAD off    0x00004794 vaddr 0x00043794 paddr 0x00043a80 align 2**12
         filesz 0x000002ec memsz 0x000002ec flags rw-
    LOAD off    0x00004d6c vaddr 0x00043d6c paddr 0x00043d6c align 2**12
         filesz 0x00000000 memsz 0x00000134 flags rw-

Sections:
Idx Name          Size      VMA       LMA       File off  Algn
  0 .entry        00000020  00040000  00040000  00001000  2**5
                  CONTENTS, ALLOC, LOAD, READONLY, CODE
  1 .exceptions   00000224  00040020  00040020  00001020  2**2
                  CONTENTS, ALLOC, LOAD, READONLY, CODE
  2 .text         000032d4  00040244  00040244  00001244  2**2
                  CONTENTS, ALLOC, LOAD, READONLY, CODE
  3 .rodata       0000027c  00043518  00043518  00004518  2**2
                  CONTENTS, ALLOC, LOAD, READONLY, DATA
  4 .rwdata       000002ec  00043794  00043a80  00004794  2**2
                  CONTENTS, ALLOC, LOAD, DATA, SMALL_DATA
  5 .bss          00000134  00043d6c  00043d6c  00004d6c  2**2
                  ALLOC, SMALL_DATA
  6 .onchip_memory 00000000  00043ea0  00043ea0  00004a80  2**0
                  CONTENTS
  7 .comment      00000023  00000000  00000000  00004a80  2**0
                  CONTENTS, READONLY
  8 .debug_aranges 00000678  00000000  00000000  00004aa8  2**3
                  CONTENTS, READONLY, DEBUGGING
  9 .debug_info   000083f4  00000000  00000000  00005120  2**0
                  CONTENTS, READONLY, DEBUGGING
 10 .debug_abbrev 00002eab  00000000  00000000  0000d514  2**0
                  CONTENTS, READONLY, DEBUGGING
 11 .debug_line   00003588  00000000  00000000  000103bf  2**0
                  CONTENTS, READONLY, DEBUGGING
 12 .debug_frame  00000f28  00000000  00000000  00013948  2**2
                  CONTENTS, READONLY, DEBUGGING
 13 .debug_str    00001f4e  00000000  00000000  00014870  2**0
                  CONTENTS, READONLY, DEBUGGING
 14 .debug_loc    00001308  00000000  00000000  000167be  2**0
                  CONTENTS, READONLY, DEBUGGING
 15 .debug_alt_sim_info 00000020  00000000  00000000  00017ac8  2**2
                  CONTENTS, READONLY, DEBUGGING
 16 .debug_ranges 000002a0  00000000  00000000  00017ae8  2**3
                  CONTENTS, READONLY, DEBUGGING
 17 .thread_model 00000003  00000000  00000000  00019c4e  2**0
                  CONTENTS, READONLY
 18 .cpu          0000000a  00000000  00000000  00019c51  2**0
                  CONTENTS, READONLY
 19 .qsys         00000001  00000000  00000000  00019c5b  2**0
                  CONTENTS, READONLY
 20 .simulation_enabled 00000001  00000000  00000000  00019c5c  2**0
                  CONTENTS, READONLY
 21 .sysid_hash   00000004  00000000  00000000  00019c5d  2**0
                  CONTENTS, READONLY
 22 .sysid_base   00000004  00000000  00000000  00019c61  2**0
                  CONTENTS, READONLY
 23 .sysid_time   00000004  00000000  00000000  00019c65  2**0
                  CONTENTS, READONLY
 24 .stderr_dev   0000000b  00000000  00000000  00019c69  2**0
                  CONTENTS, READONLY
 25 .stdin_dev    0000000b  00000000  00000000  00019c74  2**0
                  CONTENTS, READONLY
 26 .stdout_dev   0000000b  00000000  00000000  00019c7f  2**0
                  CONTENTS, READONLY
 27 .sopc_system_name 0000000b  00000000  00000000  00019c8a  2**0
                  CONTENTS, READONLY
 28 .quartus_project_dir 00000061  00000000  00000000  00019c95  2**0
                  CONTENTS, READONLY
 29 .jdi          0000599a  00000000  00000000  00019cf6  2**0
                  CONTENTS, READONLY
 30 .sopcinfo     00086d2b  00000000  00000000  0001f690  2**0
                  CONTENTS, READONLY
SYMBOL TABLE:
00040000 l    d  .entry	00000000 .entry
00040020 l    d  .exceptions	00000000 .exceptions
00040244 l    d  .text	00000000 .text
00043518 l    d  .rodata	00000000 .rodata
00043794 l    d  .rwdata	00000000 .rwdata
00043d6c l    d  .bss	00000000 .bss
00043ea0 l    d  .onchip_memory	00000000 .onchip_memory
00000000 l    d  .comment	00000000 .comment
00000000 l    d  .debug_aranges	00000000 .debug_aranges
00000000 l    d  .debug_info	00000000 .debug_info
00000000 l    d  .debug_abbrev	00000000 .debug_abbrev
00000000 l    d  .debug_line	00000000 .debug_line
00000000 l    d  .debug_frame	00000000 .debug_frame
00000000 l    d  .debug_str	00000000 .debug_str
00000000 l    d  .debug_loc	00000000 .debug_loc
00000000 l    d  .debug_alt_sim_info	00000000 .debug_alt_sim_info
00000000 l    d  .debug_ranges	00000000 .debug_ranges
00000000 l    df *ABS*	00000000 ../alarm_clock_jukebox_bsp//obj/HAL/src/crt0.o
0004027c l       .text	00000000 alt_after_alt_main
00000000 l    df *ABS*	00000000 alt_irq_handler.c
00000000 l    df *ABS*	00000000 alt_instruction_exception_entry.c
00000000 l    df *ABS*	00000000 button.c
00000000 l    df *ABS*	00000000 display.c
00000000 l    df *ABS*	00000000 interrupt.c
00000000 l    df *ABS*	00000000 led.c
00000000 l    df *ABS*	00000000 main.c
00000000 l    df *ABS*	00000000 switches.c
00043d72 l     O .bss	00000006 mode.1651
00000000 l    df *ABS*	00000000 time_keeper.c
00000000 l    df *ABS*	00000000 lib2-divmod.c
00000000 l    df *ABS*	00000000 printf.c
00000000 l    df *ABS*	00000000 puts.c
00000000 l    df *ABS*	00000000 strlen.c
00000000 l    df *ABS*	00000000 vfprintf.c
00041798 l     F .text	0000006c print_repeat
00000000 l    df *ABS*	00000000 fvwrite_small_dev.c
00000000 l    df *ABS*	00000000 impure.c
00043794 l     O .rwdata	000000e0 impure_data
00000000 l    df *ABS*	00000000 writer.c
00000000 l    df *ABS*	00000000 int_errno.c
00000000 l    df *ABS*	00000000 alt_iic.c
00000000 l    df *ABS*	00000000 alt_iic_isr_register.c
00000000 l    df *ABS*	00000000 alt_irq_vars.c
00000000 l    df *ABS*	00000000 alt_load.c
000420f4 l     F .text	00000068 alt_load_section
00000000 l    df *ABS*	00000000 alt_main.c
00000000 l    df *ABS*	00000000 alt_write.c
0004224c l     F .text	0000003c alt_get_errno
00000000 l    df *ABS*	00000000 alt_sys_init.c
00042380 l     F .text	00000034 alt_dev_reg
00043874 l     O .rwdata	0000002c jtag_uart_0
00000000 l    df *ABS*	00000000 altera_avalon_jtag_uart_fd.c
00000000 l    df *ABS*	00000000 altera_avalon_jtag_uart_read.c
00000000 l    df *ABS*	00000000 altera_avalon_jtag_uart_write.c
00000000 l    df *ABS*	00000000 altera_avalon_timer_sc.c
0004267c l     F .text	00000078 alt_avalon_timer_sc_irq
00000000 l    df *ABS*	00000000 alt_close.c
00042770 l     F .text	0000003c alt_get_errno
00000000 l    df *ABS*	00000000 alt_dcache_flush_all.c
00000000 l    df *ABS*	00000000 alt_dev.c
0004289c l     F .text	0000002c alt_dev_null_write
00000000 l    df *ABS*	00000000 alt_dev_llist_insert.c
000428c8 l     F .text	0000003c alt_get_errno
00000000 l    df *ABS*	00000000 alt_errno.c
00000000 l    df *ABS*	00000000 alt_icache_flush_all.c
00000000 l    df *ABS*	00000000 alt_io_redirect.c
00042a78 l     F .text	000000c4 alt_open_fd
00000000 l    df *ABS*	00000000 alt_open.c
00042bb8 l     F .text	0000003c alt_get_errno
00042bf4 l     F .text	000000c4 alt_file_locked
00000000 l    df *ABS*	00000000 alt_release_fd.c
00000000 l    df *ABS*	00000000 alt_tick.c
00000000 l    df *ABS*	00000000 altera_nios2_gen2_irq.c
00000000 l    df *ABS*	00000000 alt_find_dev.c
00000000 l    df *ABS*	00000000 alt_find_file.c
00000000 l    df *ABS*	00000000 alt_get_fd.c
00000000 l    df *ABS*	00000000 alt_icache_flush.c
00000000 l    df *ABS*	00000000 exit.c
00000000 l    df *ABS*	00000000 memcmp.c
00000000 l    df *ABS*	00000000 __call_atexit.c
00000000 l    df *ABS*	00000000 alt_exit.c
00043d94 g     O .bss	00000004 alt_instruction_exception_handler
000421e0 g     F .text	0000006c alt_main
000416e8 g     F .text	00000080 _puts_r
00043da0 g     O .bss	00000100 alt_irq
00043a80 g       *ABS*	00000000 __flash_rwdata_start
0004169c g     F .text	0000004c printf
00040edc g     F .text	000000b0 upClockHour
00043014 g     F .text	00000024 altera_nios2_gen2_irq_init
00040000 g     F .entry	0000001c __reset
00040020 g       *ABS*	00000000 __flash_exceptions_start
00043d80 g     O .bss	00000004 errno
00043d8c g     O .bss	00000004 alt_argv
0004ba48 g       *ABS*	00000000 _gp
00043a51 g     O .rwdata	00000001 time_format
00040600 g     F .text	00000030 alarmLEDon
000438c8 g     O .rwdata	00000180 alt_fd_list
00043038 g     F .text	00000090 alt_find_dev
00042b3c g     F .text	0000007c alt_io_redirect
00041768 g     F .text	00000014 puts
000429dc g     F .text	0000009c alt_exception_cause_generated_bad_addr
000424fc g     F .text	000000ec altera_avalon_jtag_uart_read
00041660 g     F .text	0000003c _printf_r
000415a4 g     F .text	00000064 .hidden __udivsi3
00043274 g     F .text	00000090 alt_icache_flush
00040548 g     F .text	00000048 switchesRegisterISR
00043a70 g     O .rwdata	00000004 alt_max_fd
00043a48 g     O .rwdata	00000006 unused_switches
00041400 g     F .text	000000ac downAlarmHour
00041058 g     F .text	000000c8 downClockMinute
00043a54 g     O .rwdata	00000004 _global_impure_ptr
00043ea0 g       *ABS*	00000000 __bss_end
00042004 g     F .text	000000f0 alt_iic_isr_register
00042f0c g     F .text	00000108 alt_tick
00040878 g     F .text	0000013c switchesISR
00041fb8 g     F .text	0000004c alt_ic_irq_enabled
00043d78 g     O .bss	00000003 alarm
00042e70 g     F .text	0000009c alt_alarm_stop
00043d84 g     O .bss	00000004 alt_irq_active
000400fc g     F .exceptions	000000d4 alt_irq_handler
000438a0 g     O .rwdata	00000028 alt_dev_null
0004287c g     F .text	00000020 alt_dcache_flush_all
00040720 g     F .text	00000158 timerSecondISR
00043a80 g       *ABS*	00000000 __ram_rwdata_end
00041200 g     F .text	000000a8 upAlarmMinute
00040000 g       *ABS*	00000000 __alt_mem_onchip_memory
00043a68 g     O .rwdata	00000008 alt_dev_list
00042288 g     F .text	000000f8 write
00041120 g     F .text	000000ac downClockHour
00043794 g       *ABS*	00000000 __ram_rodata_end
00043518 g     O .rodata	0000000c COM_ANODE_SEG_TABLE
00040d48 g     F .text	000000cc upClockSecond
00041608 g     F .text	00000058 .hidden __umodsi3
000405d0 g     F .text	00000030 alarmLEDoff
00040630 g     F .text	0000004c alarmLEDtoggle
00043ea0 g       *ABS*	00000000 end
00043d6c g     O .bss	00000006 mode
000401d0 g     F .exceptions	00000074 alt_instruction_exception_entry
00041358 g     F .text	000000a8 downAlarmMinute
00068000 g       *ABS*	00000000 __alt_stack_pointer
000426f4 g     F .text	0000007c alt_avalon_timer_sc_init
000425e8 g     F .text	00000094 altera_avalon_jtag_uart_write
00041804 g     F .text	00000524 ___vfprintf_internal_r
00043354 g     F .text	00000190 __call_exitprocs
00040244 g     F .text	0000003c _start
00043d98 g     O .bss	00000004 _alt_tick_rate
00043d9c g     O .bss	00000004 _alt_nticks
000423ec g     F .text	00000050 alt_sys_init
00040c30 g     F .text	0000009c checkInvalidMode
00043794 g       *ABS*	00000000 __ram_rwdata_start
00043518 g       *ABS*	00000000 __ram_rodata_start
00043a4e g     O .rwdata	00000003 reset_clock_value
00040590 g     F .text	00000040 switchesEnableInterrupt
0004243c g     F .text	00000060 altera_avalon_jtag_uart_read_fd
000431d0 g     F .text	000000a4 alt_get_fd
00043324 g     F .text	00000030 memcmp
00043ea0 g       *ABS*	00000000 __alt_stack_base
00040ccc g     F .text	00000044 isPowerOfTwoOrZero
000430c8 g     F .text	00000108 alt_find_file
00042904 g     F .text	000000a4 alt_dev_llist_insert
00040d10 g     F .text	00000038 resetClockTime
00041d44 g     F .text	000000b8 __sfvwrite_small_dev
00043d6c g       *ABS*	00000000 __bss_start
0004067c g     F .text	000000a4 main
00043d90 g     O .bss	00000004 alt_envp
0004249c g     F .text	00000060 altera_avalon_jtag_uart_write_fd
00040280 g     F .text	00000080 resetDisplay
00043a74 g     O .rwdata	00000004 alt_errno
000414ac g     F .text	00000084 .hidden __divsi3
00040f8c g     F .text	000000cc downClockSecond
00043518 g       *ABS*	00000000 __flash_rodata_start
000423b4 g     F .text	00000038 alt_irq_init
00042e0c g     F .text	00000064 alt_release_fd
00041dfc g     F .text	00000058 _write_r
00040e14 g     F .text	000000c8 upClockMinute
00043a58 g     O .rwdata	00000004 _impure_ptr
00043d88 g     O .bss	00000004 alt_argc
00040020 g       .exceptions	00000000 alt_irq_entry
00040518 g     F .text	00000030 timerSecondEnableInterrupt
00043a60 g     O .rwdata	00000008 alt_fs_list
000409b4 g     F .text	0000027c determineMode
00040020 g       *ABS*	00000000 __ram_exceptions_start
00041e54 g     F .text	00000050 alt_ic_isr_register
00043a80 g       *ABS*	00000000 _edata
00043ea0 g       *ABS*	00000000 _end
00040244 g       *ABS*	00000000 __ram_exceptions_end
00041f2c g     F .text	0000008c alt_ic_irq_disable
00043304 g     F .text	00000020 exit
00041530 g     F .text	00000074 .hidden __modsi3
00068000 g       *ABS*	00000000 __alt_data_end
00040020 g     F .exceptions	00000000 alt_exception
000404d0 g     F .text	00000048 timerSecondRegisterISR
000412a8 g     F .text	000000b0 upAlarmHour
000434e4 g     F .text	00000034 _exit
0004177c g     F .text	0000001c strlen
00042cb8 g     F .text	00000154 open
00043d7b g     O .bss	00000003 clock
000436fa g     O .rodata	00000060 mode_lookup_table
000429a8 g     F .text	00000034 alt_icache_flush_all
00043a5c g     O .rwdata	00000004 alt_priority_mask
00041ea4 g     F .text	00000088 alt_ic_irq_enable
00041d28 g     F .text	0000001c __vfprintf_internal
00043a78 g     O .rwdata	00000008 alt_alarm_list
000427ac g     F .text	000000d0 close
000411cc g     F .text	00000034 resetAlarmTime
0004215c g     F .text	00000084 alt_load
00040300 g     F .text	000001d0 updateDisplay



Disassembly of section .entry:

00040000 <__reset>:
#if NIOS2_ICACHE_SIZE > 0 && defined(ALT_ALLOW_CODE_AT_RESET) && (!defined(ALT_SIM_OPTIMIZE) || defined(NIOS2_ECC_PRESENT))
    /* Assume the instruction cache size is always a power of two. */
#if NIOS2_ICACHE_SIZE > 0x8000
    movhi r2, %hi(NIOS2_ICACHE_SIZE)
#else
    movui r2, NIOS2_ICACHE_SIZE
   40000:	00820014 	movui	r2,2048
#endif

0:
    initi r2
   40004:	1001483a 	initi	r2
    addi r2, r2, -NIOS2_ICACHE_LINE_SIZE
   40008:	10bff804 	addi	r2,r2,-32
    bgt r2, zero, 0b
   4000c:	00bffd16 	blt	zero,r2,40004 <__alt_data_end+0xfffd8004>
 * Jump to the _start entry point in the .text section if reset code
 * is allowed or if optimizing for RTL simulation.
 */
#if defined(ALT_ALLOW_CODE_AT_RESET) || defined(ALT_SIM_OPTIMIZE)
    /* Jump to the _start entry point in the .text section. */
    movhi r1, %hi(_start)
   40010:	00400134 	movhi	at,4
    ori r1, r1, %lo(_start)
   40014:	08409114 	ori	at,at,580
    jmp r1
   40018:	0800683a 	jmp	at
   4001c:	00000000 	call	0 <__alt_mem_onchip_memory-0x40000>

Disassembly of section .exceptions:

00040020 <alt_exception>:

#else /* ALT_EXCEPTION_STACK disabled */
        /* 
         * Reserve space on normal stack for registers about to be pushed.
         */
        addi  sp, sp, -76
   40020:	deffed04 	addi	sp,sp,-76
         * documentation for details).
         *
         * Leave a gap in the stack frame at 4(sp) for the muldiv handler to
         * store zero into.
         */
        stw   ra,  0(sp)
   40024:	dfc00015 	stw	ra,0(sp)
        stw   r1,   8(sp)
   40028:	d8400215 	stw	at,8(sp)
        stw   r2,  12(sp)
   4002c:	d8800315 	stw	r2,12(sp)
        stw   r3,  16(sp)
   40030:	d8c00415 	stw	r3,16(sp)
        stw   r4,  20(sp)
   40034:	d9000515 	stw	r4,20(sp)
        stw   r5,  24(sp)
   40038:	d9400615 	stw	r5,24(sp)
        stw   r6,  28(sp)
   4003c:	d9800715 	stw	r6,28(sp)
        stw   r7,  32(sp)
   40040:	d9c00815 	stw	r7,32(sp)
        rdctl r5, estatus   /* Read early to avoid usage stall */
   40044:	000b307a 	rdctl	r5,estatus
        stw   r8,  36(sp)
   40048:	da000915 	stw	r8,36(sp)
        stw   r9,  40(sp)
   4004c:	da400a15 	stw	r9,40(sp)
        stw   r10, 44(sp)
   40050:	da800b15 	stw	r10,44(sp)
        stw   r11, 48(sp)
   40054:	dac00c15 	stw	r11,48(sp)
        stw   r12, 52(sp)
   40058:	db000d15 	stw	r12,52(sp)
        stw   r13, 56(sp)
   4005c:	db400e15 	stw	r13,56(sp)
        stw   r14, 60(sp)
   40060:	db800f15 	stw	r14,60(sp)
        stw   r15, 64(sp)
   40064:	dbc01015 	stw	r15,64(sp)
        /*
         * ea-4 contains the address of the instruction being executed
         * when the exception occured. For interrupt exceptions, we will
         * will be re-issue the isntruction. Store it in 72(sp)
         */
        stw   r5,  68(sp)  /* estatus */
   40068:	d9401115 	stw	r5,68(sp)
        addi  r15, ea, -4  /* instruction that caused exception */
   4006c:	ebffff04 	addi	r15,ea,-4
        stw   r15,  72(sp)
   40070:	dbc01215 	stw	r15,72(sp)
#else
        /*
         * Test to see if the exception was a software exception or caused 
         * by an external interrupt, and vector accordingly.
         */
        rdctl r4, ipending
   40074:	0009313a 	rdctl	r4,ipending
        andi  r2, r5, 1
   40078:	2880004c 	andi	r2,r5,1
        beq   r2, zero, .Lnot_irq
   4007c:	10000326 	beq	r2,zero,4008c <alt_exception+0x6c>
        beq   r4, zero, .Lnot_irq
   40080:	20000226 	beq	r4,zero,4008c <alt_exception+0x6c>
        /*
         * Now that all necessary registers have been preserved, call 
         * alt_irq_handler() to process the interrupts.
         */

        call alt_irq_handler
   40084:	00400fc0 	call	400fc <alt_irq_handler>

        .section .exceptions.irqreturn, "xa"

        br    .Lexception_exit
   40088:	00000706 	br	400a8 <alt_exception+0x88>
         * upon completion, so we write ea (address of instruction *after*
         * the one where the exception occured) into 72(sp). The actual
         * instruction that caused the exception is written in r2, which these
         * handlers will utilize.
         */
        stw ea, 72(sp) /* EA is PC+4 so will skip over instruction causing exception */
   4008c:	df401215 	stw	ea,72(sp)
.Lunknown_16bit:
        addi.n r4, r4, 2 /* Need PC+2 to skip over instruction causing exception */
        stw r4, 72(sp)

#else /* CDX is not Enabled and all instructions are 32bits */
        ldw r2, -4(ea) /* Instruction value that caused exception */
   40090:	e8bfff17 	ldw	r2,-4(ea)
         * debugger is present) or go into an infinite loop since the
         * handling behavior is undefined; in that case we will not return here.
         */

        /* Load exception-causing address as first argument (r4) */
        addi   r4, ea, -4
   40094:	e93fff04 	addi	r4,ea,-4

        /* Call the instruction-exception entry */
        call   alt_instruction_exception_entry
   40098:	00401d00 	call	401d0 <alt_instruction_exception_entry>
         * instruction
         *
         * Return code was 0: Skip. The instruction after the exception is
         * already stored in 72(sp).
         */
        bne   r2, r0, .Lexception_exit
   4009c:	1000021e 	bne	r2,zero,400a8 <alt_exception+0x88>

        /*
         * Otherwise, modify 72(sp) to re-issue the instruction that caused the
         * exception.
         */
        addi  r15, ea, -4  /* instruction that caused exception */
   400a0:	ebffff04 	addi	r15,ea,-4
        stw   r15,  72(sp)
   400a4:	dbc01215 	stw	r15,72(sp)
        /* 
         * Restore the saved registers, so that all general purpose registers 
         * have been restored to their state at the time the interrupt occured.
         */

        ldw   r5,  68(sp)
   400a8:	d9401117 	ldw	r5,68(sp)
        ldw   ea,  72(sp)  /* This becomes the PC once eret is executed */
   400ac:	df401217 	ldw	ea,72(sp)
        ldw   ra,   0(sp)
   400b0:	dfc00017 	ldw	ra,0(sp)

        wrctl estatus, r5
   400b4:	2801707a 	wrctl	estatus,r5

        ldw   r1,   8(sp)
   400b8:	d8400217 	ldw	at,8(sp)
        ldw   r2,  12(sp)
   400bc:	d8800317 	ldw	r2,12(sp)
        ldw   r3,  16(sp)
   400c0:	d8c00417 	ldw	r3,16(sp)
        ldw   r4,  20(sp)
   400c4:	d9000517 	ldw	r4,20(sp)
        ldw   r5,  24(sp)
   400c8:	d9400617 	ldw	r5,24(sp)
        ldw   r6,  28(sp)
   400cc:	d9800717 	ldw	r6,28(sp)
        ldw   r7,  32(sp)
   400d0:	d9c00817 	ldw	r7,32(sp)

#if defined(ALT_EXCEPTION_STACK) && defined(ALT_STACK_CHECK)
        ldw   et, %gprel(alt_exception_old_stack_limit)(gp)
#endif

        ldw   r8,  36(sp)
   400d4:	da000917 	ldw	r8,36(sp)
        ldw   r9,  40(sp)
   400d8:	da400a17 	ldw	r9,40(sp)
        ldw   r10, 44(sp)
   400dc:	da800b17 	ldw	r10,44(sp)
        ldw   r11, 48(sp)
   400e0:	dac00c17 	ldw	r11,48(sp)
        ldw   r12, 52(sp)
   400e4:	db000d17 	ldw	r12,52(sp)
        ldw   r13, 56(sp)
   400e8:	db400e17 	ldw	r13,56(sp)
        ldw   r14, 60(sp)
   400ec:	db800f17 	ldw	r14,60(sp)
        ldw   r15, 64(sp)
   400f0:	dbc01017 	ldw	r15,64(sp)
        stw   et, %gprel(alt_stack_limit_value)(gp)
        stw   zero, %gprel(alt_exception_old_stack_limit)(gp)
#endif /* ALT_STACK_CHECK */
        ldw   sp,  76(sp)
#else /* ALT_EXCEPTION_STACK disabled */
        addi  sp, sp, 76
   400f4:	dec01304 	addi	sp,sp,76

        /*
         * Return to the interrupted instruction.
         */

        eret
   400f8:	ef80083a 	eret

000400fc <alt_irq_handler>:
 * instruction is present if the macro ALT_CI_INTERRUPT_VECTOR defined.
 */

void alt_irq_handler (void) __attribute__ ((section (".exceptions")));
void alt_irq_handler (void)
{
   400fc:	defff904 	addi	sp,sp,-28
   40100:	dfc00615 	stw	ra,24(sp)
   40104:	df000515 	stw	fp,20(sp)
   40108:	df000504 	addi	fp,sp,20
  
  /*
   * Notify the operating system that we are at interrupt level.
   */ 
  
  ALT_OS_INT_ENTER();
   4010c:	0001883a 	nop
#ifndef NIOS2_EIC_PRESENT
static ALT_INLINE alt_u32 ALT_ALWAYS_INLINE alt_irq_pending (void)
{
  alt_u32 active;

  NIOS2_READ_IPENDING (active);
   40110:	0005313a 	rdctl	r2,ipending
   40114:	e0bffe15 	stw	r2,-8(fp)

  return active;
   40118:	e0bffe17 	ldw	r2,-8(fp)
   * Consider the case where the high priority interupt is asserted during
   * the interrupt entry sequence for a lower priority interrupt to see why
   * this is the case.
   */

  active = alt_irq_pending ();
   4011c:	e0bffb15 	stw	r2,-20(fp)

  do
  {
    i = 0;
   40120:	e03ffd15 	stw	zero,-12(fp)
    mask = 1;
   40124:	00800044 	movi	r2,1
   40128:	e0bffc15 	stw	r2,-16(fp)
     * called to clear the interrupt condition.
     */

    do
    {
      if (active & mask)
   4012c:	e0fffb17 	ldw	r3,-20(fp)
   40130:	e0bffc17 	ldw	r2,-16(fp)
   40134:	1884703a 	and	r2,r3,r2
   40138:	10001426 	beq	r2,zero,4018c <alt_irq_handler+0x90>
      { 
#ifdef ALT_ENHANCED_INTERRUPT_API_PRESENT
        alt_irq[i].handler(alt_irq[i].context); 
   4013c:	00800134 	movhi	r2,4
   40140:	108f6804 	addi	r2,r2,15776
   40144:	e0fffd17 	ldw	r3,-12(fp)
   40148:	180690fa 	slli	r3,r3,3
   4014c:	10c5883a 	add	r2,r2,r3
   40150:	10c00017 	ldw	r3,0(r2)
   40154:	00800134 	movhi	r2,4
   40158:	108f6804 	addi	r2,r2,15776
   4015c:	e13ffd17 	ldw	r4,-12(fp)
   40160:	200890fa 	slli	r4,r4,3
   40164:	1105883a 	add	r2,r2,r4
   40168:	10800104 	addi	r2,r2,4
   4016c:	10800017 	ldw	r2,0(r2)
   40170:	1009883a 	mov	r4,r2
   40174:	183ee83a 	callr	r3
#else
        alt_irq[i].handler(alt_irq[i].context, i); 
#endif
        break;
   40178:	0001883a 	nop
#ifndef NIOS2_EIC_PRESENT
static ALT_INLINE alt_u32 ALT_ALWAYS_INLINE alt_irq_pending (void)
{
  alt_u32 active;

  NIOS2_READ_IPENDING (active);
   4017c:	0005313a 	rdctl	r2,ipending
   40180:	e0bfff15 	stw	r2,-4(fp)

  return active;
   40184:	e0bfff17 	ldw	r2,-4(fp)
   40188:	00000706 	br	401a8 <alt_irq_handler+0xac>
      }
      mask <<= 1;
   4018c:	e0bffc17 	ldw	r2,-16(fp)
   40190:	1085883a 	add	r2,r2,r2
   40194:	e0bffc15 	stw	r2,-16(fp)
      i++;
   40198:	e0bffd17 	ldw	r2,-12(fp)
   4019c:	10800044 	addi	r2,r2,1
   401a0:	e0bffd15 	stw	r2,-12(fp)

    } while (1);
   401a4:	003fe106 	br	4012c <__alt_data_end+0xfffd812c>

    active = alt_irq_pending ();
   401a8:	e0bffb15 	stw	r2,-20(fp)
    
  } while (active);
   401ac:	e0bffb17 	ldw	r2,-20(fp)
   401b0:	103fdb1e 	bne	r2,zero,40120 <__alt_data_end+0xfffd8120>

  /*
   * Notify the operating system that interrupt processing is complete.
   */ 

  ALT_OS_INT_EXIT();
   401b4:	0001883a 	nop
}
   401b8:	0001883a 	nop
   401bc:	e037883a 	mov	sp,fp
   401c0:	dfc00117 	ldw	ra,4(sp)
   401c4:	df000017 	ldw	fp,0(sp)
   401c8:	dec00204 	addi	sp,sp,8
   401cc:	f800283a 	ret

000401d0 <alt_instruction_exception_entry>:
 * that handler if it has been registered. Absent a handler, it will
 * break break or hang as discussed below.
 */
int 
alt_instruction_exception_entry (alt_u32 exception_pc)
{
   401d0:	defffb04 	addi	sp,sp,-20
   401d4:	dfc00415 	stw	ra,16(sp)
   401d8:	df000315 	stw	fp,12(sp)
   401dc:	df000304 	addi	fp,sp,12
   401e0:	e13fff15 	stw	r4,-4(fp)
 * NIOS2_EXCEPTION_CAUSE_NOT_PRESENT. Your handling routine should
 * check the validity of the cause argument before proceeding.
 */
#ifdef NIOS2_HAS_EXTRA_EXCEPTION_INFO
  /* Get exception cause & "badaddr" */
  NIOS2_READ_EXCEPTION(cause);
   401e4:	000531fa 	rdctl	r2,exception
   401e8:	e0bffd15 	stw	r2,-12(fp)
  cause = ( (cause & NIOS2_EXCEPTION_REG_CAUSE_MASK) >>
   401ec:	e0bffd17 	ldw	r2,-12(fp)
   401f0:	10801f0c 	andi	r2,r2,124
   401f4:	1004d0ba 	srli	r2,r2,2
   401f8:	e0bffd15 	stw	r2,-12(fp)
              NIOS2_EXCEPTION_REG_CAUSE_OFST );

  NIOS2_READ_BADADDR(badaddr);
   401fc:	0005333a 	rdctl	r2,badaddr
   40200:	e0bffe15 	stw	r2,-8(fp)
#else
  cause = NIOS2_EXCEPTION_CAUSE_NOT_PRESENT;
  badaddr = 0;
#endif /* NIOS2_HAS_EXTRA_EXCEPTION_INFO */

  if(alt_instruction_exception_handler) {
   40204:	d0a0d317 	ldw	r2,-31924(gp)
   40208:	10000726 	beq	r2,zero,40228 <alt_instruction_exception_entry+0x58>
     * Call handler. Its return value indicates whether the exception-causing
     * instruction should be re-issued. The code that called us,
     * alt_eceptions_entry.S, will look at this value and adjust the ea
     * register as necessary
     */
    return alt_instruction_exception_handler(cause, exception_pc, badaddr);
   4020c:	d0a0d317 	ldw	r2,-31924(gp)
   40210:	e0fffd17 	ldw	r3,-12(fp)
   40214:	e1bffe17 	ldw	r6,-8(fp)
   40218:	e17fff17 	ldw	r5,-4(fp)
   4021c:	1809883a 	mov	r4,r3
   40220:	103ee83a 	callr	r2
   40224:	00000206 	br	40230 <alt_instruction_exception_entry+0x60>
   *    (a peripheral which negates its interrupt output before its
   *    interrupt handler has been executed will cause spurious interrupts)
   */
  else {
#ifdef NIOS2_HAS_DEBUG_STUB
    NIOS2_BREAK();
   40228:	003da03a 	break	0
      ;
#endif /* NIOS2_HAS_DEBUG_STUB */
  }

  /* We should not get here. Remove compiler warning. */
  return NIOS2_EXCEPTION_RETURN_REISSUE_INST;
   4022c:	0005883a 	mov	r2,zero
}
   40230:	e037883a 	mov	sp,fp
   40234:	dfc00117 	ldw	ra,4(sp)
   40238:	df000017 	ldw	fp,0(sp)
   4023c:	dec00204 	addi	sp,sp,8
   40240:	f800283a 	ret

Disassembly of section .text:

00040244 <_start>:

    /*
     * Now that the caches are initialized, set up the stack pointer and global pointer.
     * The values provided by the linker are assumed to be correctly aligned.
     */
    movhi sp, %hi(__alt_stack_pointer)
   40244:	06c001b4 	movhi	sp,6
    ori sp, sp, %lo(__alt_stack_pointer)
   40248:	dee00014 	ori	sp,sp,32768
    movhi gp, %hi(_gp)
   4024c:	06800134 	movhi	gp,4
    ori gp, gp, %lo(_gp)
   40250:	d6ae9214 	ori	gp,gp,47688
 */
#ifndef ALT_SIM_OPTIMIZE
    /* Log that the BSS is about to be cleared. */
    ALT_LOG_PUTS(alt_log_msg_bss)

    movhi r2, %hi(__bss_start)
   40254:	00800134 	movhi	r2,4
    ori r2, r2, %lo(__bss_start)
   40258:	108f5b14 	ori	r2,r2,15724

    movhi r3, %hi(__bss_end)
   4025c:	00c00134 	movhi	r3,4
    ori r3, r3, %lo(__bss_end)
   40260:	18cfa814 	ori	r3,r3,16032

    beq r2, r3, 1f
   40264:	10c00326 	beq	r2,r3,40274 <_start+0x30>

0:
    stw zero, (r2)
   40268:	10000015 	stw	zero,0(r2)
    addi r2, r2, 4
   4026c:	10800104 	addi	r2,r2,4
    bltu r2, r3, 0b
   40270:	10fffd36 	bltu	r2,r3,40268 <__alt_data_end+0xfffd8268>
     * section aren't defined until alt_load() has been called).
     */
    mov   et, zero
#endif

    call alt_load
   40274:	004215c0 	call	4215c <alt_load>

    /* Log that alt_main is about to be called. */
    ALT_LOG_PUTS(alt_log_msg_alt_main)

    /* Call the C entry point. It should never return. */
    call alt_main
   40278:	00421e00 	call	421e0 <alt_main>

0004027c <alt_after_alt_main>:

    /* Wait in infinite loop in case alt_main does return. */
alt_after_alt_main:
    br alt_after_alt_main
   4027c:	003fff06 	br	4027c <__alt_data_end+0xfffd827c>

00040280 <resetDisplay>:
#include "display.h"

void resetDisplay(void) {
   40280:	deffff04 	addi	sp,sp,-4
   40284:	df000015 	stw	fp,0(sp)
   40288:	d839883a 	mov	fp,sp
  IOWR_ALTERA_AVALON_PIO_DATA(HOUR1_BASE, RESET_DISPLAY_VALUE);
   4028c:	00c03004 	movi	r3,192
   40290:	00800234 	movhi	r2,8
   40294:	10841004 	addi	r2,r2,4160
   40298:	10c00035 	stwio	r3,0(r2)
  IOWR_ALTERA_AVALON_PIO_DATA(HOUR0_BASE, RESET_DISPLAY_VALUE);
   4029c:	00c03004 	movi	r3,192
   402a0:	00800234 	movhi	r2,8
   402a4:	10843404 	addi	r2,r2,4304
   402a8:	10c00035 	stwio	r3,0(r2)
  IOWR_ALTERA_AVALON_PIO_DATA(MINUTE1_BASE, RESET_DISPLAY_VALUE);
   402ac:	00c03004 	movi	r3,192
   402b0:	00800234 	movhi	r2,8
   402b4:	10841404 	addi	r2,r2,4176
   402b8:	10c00035 	stwio	r3,0(r2)
  IOWR_ALTERA_AVALON_PIO_DATA(MINUTE0_BASE, RESET_DISPLAY_VALUE);
   402bc:	00c03004 	movi	r3,192
   402c0:	00800234 	movhi	r2,8
   402c4:	10843004 	addi	r2,r2,4288
   402c8:	10c00035 	stwio	r3,0(r2)
  IOWR_ALTERA_AVALON_PIO_DATA(SECOND1_BASE, RESET_DISPLAY_VALUE);
   402cc:	00c03004 	movi	r3,192
   402d0:	00800234 	movhi	r2,8
   402d4:	10841804 	addi	r2,r2,4192
   402d8:	10c00035 	stwio	r3,0(r2)
  IOWR_ALTERA_AVALON_PIO_DATA(SECOND0_BASE, RESET_DISPLAY_VALUE);
   402dc:	00c03004 	movi	r3,192
   402e0:	00800234 	movhi	r2,8
   402e4:	10842c04 	addi	r2,r2,4272
   402e8:	10c00035 	stwio	r3,0(r2)
}
   402ec:	0001883a 	nop
   402f0:	e037883a 	mov	sp,fp
   402f4:	df000017 	ldw	fp,0(sp)
   402f8:	dec00104 	addi	sp,sp,4
   402fc:	f800283a 	ret

00040300 <updateDisplay>:
bcd[2] = 512/100 = 5
bcd[1] = (512-5*100)/10 = 12/10 = 1
bcd[0] = (512 - (5*100 + 1*10))/1 = 2
*/
// for the moment, this is hard coded without any for loops
void updateDisplay(struct time time) {
   40300:	defffa04 	addi	sp,sp,-24
   40304:	dfc00515 	stw	ra,20(sp)
   40308:	df000415 	stw	fp,16(sp)
   4030c:	df000404 	addi	fp,sp,16
   40310:	e13fff15 	stw	r4,-4(fp)
  uint8_t bcd[6];
  uint8_t ledseg[6];

  // determine BCD values for hours, minutes, seconds
  bcd[5] = time.hour/10;
   40314:	e0bfff03 	ldbu	r2,-4(fp)
   40318:	10803fcc 	andi	r2,r2,255
   4031c:	01400284 	movi	r5,10
   40320:	1009883a 	mov	r4,r2
   40324:	00415a40 	call	415a4 <__udivsi3>
   40328:	e0bffd45 	stb	r2,-11(fp)
  bcd[4] = time.hour - bcd[5]*10;
   4032c:	e0bfff03 	ldbu	r2,-4(fp)
   40330:	e0fffd43 	ldbu	r3,-11(fp)
   40334:	18fffda4 	muli	r3,r3,-10
   40338:	10c5883a 	add	r2,r2,r3
   4033c:	e0bffd05 	stb	r2,-12(fp)
  bcd[3] = time.minute/10;
   40340:	e0bfff43 	ldbu	r2,-3(fp)
   40344:	10803fcc 	andi	r2,r2,255
   40348:	01400284 	movi	r5,10
   4034c:	1009883a 	mov	r4,r2
   40350:	00415a40 	call	415a4 <__udivsi3>
   40354:	e0bffcc5 	stb	r2,-13(fp)
  bcd[2] = time.minute - bcd[3]*10;
   40358:	e0bfff43 	ldbu	r2,-3(fp)
   4035c:	e0fffcc3 	ldbu	r3,-13(fp)
   40360:	18fffda4 	muli	r3,r3,-10
   40364:	10c5883a 	add	r2,r2,r3
   40368:	e0bffc85 	stb	r2,-14(fp)
  bcd[1] = time.second/10;
   4036c:	e0bfff83 	ldbu	r2,-2(fp)
   40370:	10803fcc 	andi	r2,r2,255
   40374:	01400284 	movi	r5,10
   40378:	1009883a 	mov	r4,r2
   4037c:	00415a40 	call	415a4 <__udivsi3>
   40380:	e0bffc45 	stb	r2,-15(fp)
  bcd[0] = time.second - bcd[1]*10;
   40384:	e0bfff83 	ldbu	r2,-2(fp)
   40388:	e0fffc43 	ldbu	r3,-15(fp)
   4038c:	18fffda4 	muli	r3,r3,-10
   40390:	10c5883a 	add	r2,r2,r3
   40394:	e0bffc05 	stb	r2,-16(fp)

  // convert BCD values to LED segment values
  ledseg[5] = COM_ANODE_SEG_TABLE[(bcd[5])];
   40398:	e0bffd43 	ldbu	r2,-11(fp)
   4039c:	10c03fcc 	andi	r3,r2,255
   403a0:	00800134 	movhi	r2,4
   403a4:	108d4604 	addi	r2,r2,13592
   403a8:	10c5883a 	add	r2,r2,r3
   403ac:	10800003 	ldbu	r2,0(r2)
   403b0:	e0bffec5 	stb	r2,-5(fp)
  ledseg[4] = COM_ANODE_SEG_TABLE[(bcd[4])];
   403b4:	e0bffd03 	ldbu	r2,-12(fp)
   403b8:	10c03fcc 	andi	r3,r2,255
   403bc:	00800134 	movhi	r2,4
   403c0:	108d4604 	addi	r2,r2,13592
   403c4:	10c5883a 	add	r2,r2,r3
   403c8:	10800003 	ldbu	r2,0(r2)
   403cc:	e0bffe85 	stb	r2,-6(fp)
  ledseg[3] = COM_ANODE_SEG_TABLE[(bcd[3])];
   403d0:	e0bffcc3 	ldbu	r2,-13(fp)
   403d4:	10c03fcc 	andi	r3,r2,255
   403d8:	00800134 	movhi	r2,4
   403dc:	108d4604 	addi	r2,r2,13592
   403e0:	10c5883a 	add	r2,r2,r3
   403e4:	10800003 	ldbu	r2,0(r2)
   403e8:	e0bffe45 	stb	r2,-7(fp)
  ledseg[2] = COM_ANODE_SEG_TABLE[(bcd[2])];
   403ec:	e0bffc83 	ldbu	r2,-14(fp)
   403f0:	10c03fcc 	andi	r3,r2,255
   403f4:	00800134 	movhi	r2,4
   403f8:	108d4604 	addi	r2,r2,13592
   403fc:	10c5883a 	add	r2,r2,r3
   40400:	10800003 	ldbu	r2,0(r2)
   40404:	e0bffe05 	stb	r2,-8(fp)
  ledseg[1] = COM_ANODE_SEG_TABLE[(bcd[1])];
   40408:	e0bffc43 	ldbu	r2,-15(fp)
   4040c:	10c03fcc 	andi	r3,r2,255
   40410:	00800134 	movhi	r2,4
   40414:	108d4604 	addi	r2,r2,13592
   40418:	10c5883a 	add	r2,r2,r3
   4041c:	10800003 	ldbu	r2,0(r2)
   40420:	e0bffdc5 	stb	r2,-9(fp)
  ledseg[0] = COM_ANODE_SEG_TABLE[(bcd[0])];
   40424:	e0bffc03 	ldbu	r2,-16(fp)
   40428:	10c03fcc 	andi	r3,r2,255
   4042c:	00800134 	movhi	r2,4
   40430:	108d4604 	addi	r2,r2,13592
   40434:	10c5883a 	add	r2,r2,r3
   40438:	10800003 	ldbu	r2,0(r2)
   4043c:	e0bffd85 	stb	r2,-10(fp)

  // write to display port
  IOWR_ALTERA_AVALON_PIO_DATA(HOUR1_BASE, ledseg[5]);
   40440:	e0bffec3 	ldbu	r2,-5(fp)
   40444:	10c03fcc 	andi	r3,r2,255
   40448:	00800234 	movhi	r2,8
   4044c:	10841004 	addi	r2,r2,4160
   40450:	10c00035 	stwio	r3,0(r2)
  IOWR_ALTERA_AVALON_PIO_DATA(HOUR0_BASE, ledseg[4]);
   40454:	e0bffe83 	ldbu	r2,-6(fp)
   40458:	10c03fcc 	andi	r3,r2,255
   4045c:	00800234 	movhi	r2,8
   40460:	10843404 	addi	r2,r2,4304
   40464:	10c00035 	stwio	r3,0(r2)
  IOWR_ALTERA_AVALON_PIO_DATA(MINUTE1_BASE, ledseg[3]);
   40468:	e0bffe43 	ldbu	r2,-7(fp)
   4046c:	10c03fcc 	andi	r3,r2,255
   40470:	00800234 	movhi	r2,8
   40474:	10841404 	addi	r2,r2,4176
   40478:	10c00035 	stwio	r3,0(r2)
  IOWR_ALTERA_AVALON_PIO_DATA(MINUTE0_BASE, ledseg[2]);
   4047c:	e0bffe03 	ldbu	r2,-8(fp)
   40480:	10c03fcc 	andi	r3,r2,255
   40484:	00800234 	movhi	r2,8
   40488:	10843004 	addi	r2,r2,4288
   4048c:	10c00035 	stwio	r3,0(r2)
  IOWR_ALTERA_AVALON_PIO_DATA(SECOND1_BASE, ledseg[1]);
   40490:	e0bffdc3 	ldbu	r2,-9(fp)
   40494:	10c03fcc 	andi	r3,r2,255
   40498:	00800234 	movhi	r2,8
   4049c:	10841804 	addi	r2,r2,4192
   404a0:	10c00035 	stwio	r3,0(r2)
  IOWR_ALTERA_AVALON_PIO_DATA(SECOND0_BASE, ledseg[0]);
   404a4:	e0bffd83 	ldbu	r2,-10(fp)
   404a8:	10c03fcc 	andi	r3,r2,255
   404ac:	00800234 	movhi	r2,8
   404b0:	10842c04 	addi	r2,r2,4272
   404b4:	10c00035 	stwio	r3,0(r2)
   404b8:	0001883a 	nop
   404bc:	e037883a 	mov	sp,fp
   404c0:	dfc00117 	ldw	ra,4(sp)
   404c4:	df000017 	ldw	fp,0(sp)
   404c8:	dec00204 	addi	sp,sp,8
   404cc:	f800283a 	ret

000404d0 <timerSecondRegisterISR>:

/* this registration functions receives a pointer to an ISR function which takes
in a pointer to a data structure (isr_context) as a parameter, and does not
return any value (void). ISRFunction() will be called once the timerSecond
interrupt fires, and this ISR resides in main.c */
uint8_t timerSecondRegisterISR(void (*timerSecondISR)(void *isr_context)) {
   404d0:	defffb04 	addi	sp,sp,-20
   404d4:	dfc00415 	stw	ra,16(sp)
   404d8:	df000315 	stw	fp,12(sp)
   404dc:	df000304 	addi	fp,sp,12
   404e0:	e13fff15 	stw	r4,-4(fp)
  uint8_t isr_register_status;

  isr_register_status = alt_ic_isr_register(TIMER_SECOND_IRQ_INTERRUPT_CONTROLLER_ID,
   404e4:	d8000015 	stw	zero,0(sp)
   404e8:	000f883a 	mov	r7,zero
   404ec:	e1bfff17 	ldw	r6,-4(fp)
   404f0:	01400044 	movi	r5,1
   404f4:	0009883a 	mov	r4,zero
   404f8:	0041e540 	call	41e54 <alt_ic_isr_register>
   404fc:	e0bffe05 	stb	r2,-8(fp)
                                            TIMER_SECOND_IRQ,
                                            timerSecondISR,
                                            NULL,
                                            0x0);
  return isr_register_status;
   40500:	e0bffe03 	ldbu	r2,-8(fp)
}
   40504:	e037883a 	mov	sp,fp
   40508:	dfc00117 	ldw	ra,4(sp)
   4050c:	df000017 	ldw	fp,0(sp)
   40510:	dec00204 	addi	sp,sp,8
   40514:	f800283a 	ret

00040518 <timerSecondEnableInterrupt>:

void timerSecondEnableInterrupt(void) {
   40518:	deffff04 	addi	sp,sp,-4
   4051c:	df000015 	stw	fp,0(sp)
   40520:	d839883a 	mov	fp,sp
 IOWR_ALTERA_AVALON_TIMER_CONTROL(TIMER_SECOND_BASE,
   40524:	00c001c4 	movi	r3,7
   40528:	00800234 	movhi	r2,8
   4052c:	10840104 	addi	r2,r2,4100
   40530:	10c00035 	stwio	r3,0(r2)
                 ALTERA_AVALON_TIMER_CONTROL_CONT_MSK  
               | ALTERA_AVALON_TIMER_CONTROL_START_MSK
               | ALTERA_AVALON_TIMER_CONTROL_ITO_MSK);
}
   40534:	0001883a 	nop
   40538:	e037883a 	mov	sp,fp
   4053c:	df000017 	ldw	fp,0(sp)
   40540:	dec00104 	addi	sp,sp,4
   40544:	f800283a 	ret

00040548 <switchesRegisterISR>:

uint8_t switchesRegisterISR(void (*switchesISR)(void *isr_context)) {
   40548:	defffb04 	addi	sp,sp,-20
   4054c:	dfc00415 	stw	ra,16(sp)
   40550:	df000315 	stw	fp,12(sp)
   40554:	df000304 	addi	fp,sp,12
   40558:	e13fff15 	stw	r4,-4(fp)
  uint8_t isr_register_status;

  isr_register_status = alt_ic_isr_register(SWITCHES_IRQ_INTERRUPT_CONTROLLER_ID,
   4055c:	d8000015 	stw	zero,0(sp)
   40560:	000f883a 	mov	r7,zero
   40564:	e1bfff17 	ldw	r6,-4(fp)
   40568:	01400084 	movi	r5,2
   4056c:	0009883a 	mov	r4,zero
   40570:	0041e540 	call	41e54 <alt_ic_isr_register>
   40574:	e0bffe05 	stb	r2,-8(fp)
                                            SWITCHES_IRQ,
                                            switchesISR,
                                            NULL,
                                            0x0);
  return isr_register_status;
   40578:	e0bffe03 	ldbu	r2,-8(fp)
}
   4057c:	e037883a 	mov	sp,fp
   40580:	dfc00117 	ldw	ra,4(sp)
   40584:	df000017 	ldw	fp,0(sp)
   40588:	dec00204 	addi	sp,sp,8
   4058c:	f800283a 	ret

00040590 <switchesEnableInterrupt>:


void switchesEnableInterrupt(void) {
   40590:	deffff04 	addi	sp,sp,-4
   40594:	df000015 	stw	fp,0(sp)
   40598:	d839883a 	mov	fp,sp
  // enable all switches to fire interupts
  IOWR_ALTERA_AVALON_PIO_IRQ_MASK(SWITCHES_BASE, SWITCHES_INTERRUPT_MASK);
   4059c:	00ffffd4 	movui	r3,65535
   405a0:	00800234 	movhi	r2,8
   405a4:	10843e04 	addi	r2,r2,4344
   405a8:	10c00035 	stwio	r3,0(r2)
  
  // reset the edge capture register
  IOWR_ALTERA_AVALON_PIO_EDGE_CAP(SWITCHES_BASE, 0);
   405ac:	0007883a 	mov	r3,zero
   405b0:	00800234 	movhi	r2,8
   405b4:	10843f04 	addi	r2,r2,4348
   405b8:	10c00035 	stwio	r3,0(r2)
}
   405bc:	0001883a 	nop
   405c0:	e037883a 	mov	sp,fp
   405c4:	df000017 	ldw	fp,0(sp)
   405c8:	dec00104 	addi	sp,sp,4
   405cc:	f800283a 	ret

000405d0 <alarmLEDoff>:
#include "led.h"

void alarmLEDoff(void) {
   405d0:	deffff04 	addi	sp,sp,-4
   405d4:	df000015 	stw	fp,0(sp)
   405d8:	d839883a 	mov	fp,sp
  IOWR_ALTERA_AVALON_PIO_DATA(LED_ALARM_BASE, LED_OFF);
   405dc:	0007883a 	mov	r3,zero
   405e0:	00800234 	movhi	r2,8
   405e4:	10842404 	addi	r2,r2,4240
   405e8:	10c00035 	stwio	r3,0(r2)
}
   405ec:	0001883a 	nop
   405f0:	e037883a 	mov	sp,fp
   405f4:	df000017 	ldw	fp,0(sp)
   405f8:	dec00104 	addi	sp,sp,4
   405fc:	f800283a 	ret

00040600 <alarmLEDon>:

void alarmLEDon(void) {
   40600:	deffff04 	addi	sp,sp,-4
   40604:	df000015 	stw	fp,0(sp)
   40608:	d839883a 	mov	fp,sp
  IOWR_ALTERA_AVALON_PIO_DATA(LED_ALARM_BASE, LED_ON);
   4060c:	00c00044 	movi	r3,1
   40610:	00800234 	movhi	r2,8
   40614:	10842404 	addi	r2,r2,4240
   40618:	10c00035 	stwio	r3,0(r2)
}
   4061c:	0001883a 	nop
   40620:	e037883a 	mov	sp,fp
   40624:	df000017 	ldw	fp,0(sp)
   40628:	dec00104 	addi	sp,sp,4
   4062c:	f800283a 	ret

00040630 <alarmLEDtoggle>:

void alarmLEDtoggle(void) {
   40630:	defffe04 	addi	sp,sp,-8
   40634:	df000115 	stw	fp,4(sp)
   40638:	df000104 	addi	fp,sp,4
  volatile uint8_t led_state;
  led_state = IORD_ALTERA_AVALON_PIO_DATA(LED_ALARM_BASE);
   4063c:	00800234 	movhi	r2,8
   40640:	10842404 	addi	r2,r2,4240
   40644:	10800037 	ldwio	r2,0(r2)
   40648:	e0bfff05 	stb	r2,-4(fp)
  IOWR_ALTERA_AVALON_PIO_DATA(LED_ALARM_BASE, !led_state);
   4064c:	e0bfff03 	ldbu	r2,-4(fp)
   40650:	10803fcc 	andi	r2,r2,255
   40654:	1005003a 	cmpeq	r2,r2,zero
   40658:	10c03fcc 	andi	r3,r2,255
   4065c:	00800234 	movhi	r2,8
   40660:	10842404 	addi	r2,r2,4240
   40664:	10c00035 	stwio	r3,0(r2)
   40668:	0001883a 	nop
   4066c:	e037883a 	mov	sp,fp
   40670:	df000017 	ldw	fp,0(sp)
   40674:	dec00104 	addi	sp,sp,4
   40678:	f800283a 	ret

0004067c <main>:
/* the mode struct is global so that the callback functions 
in main.c can access it and determine the appropiate courses
of action */
struct mode mode;

int main(void) {
   4067c:	defffe04 	addi	sp,sp,-8
   40680:	dfc00115 	stw	ra,4(sp)
   40684:	df000015 	stw	fp,0(sp)
   40688:	d839883a 	mov	fp,sp

  // initialization to "CLOCK" mode
  mode.invalid = FALSE;
   4068c:	d020c905 	stb	zero,-31964(gp)
  mode.display = DISP_CLOCK;
   40690:	d020c945 	stb	zero,-31963(gp)
  mode.alarm = OFF;
   40694:	d020c985 	stb	zero,-31962(gp)
  mode.config.on = FALSE;
   40698:	d020c9c5 	stb	zero,-31961(gp)
  mode.config.hour = FALSE;
   4069c:	d020ca05 	stb	zero,-31960(gp)
  mode.config.minute = FALSE;
   406a0:	d020ca45 	stb	zero,-31959(gp)

  alarmLEDoff();
   406a4:	00405d00 	call	405d0 <alarmLEDoff>
  resetClockTime();
   406a8:	0040d100 	call	40d10 <resetClockTime>
  resetAlarmTime();
   406ac:	00411cc0 	call	411cc <resetAlarmTime>
  resetDisplay();
   406b0:	00402800 	call	40280 <resetDisplay>

  /* the callback ISR is passed in for the registration. When the timer peripheral
  fires its interrupt, timerSecondISR() will be called
  timerSecondISR can be preceded with or without & (both pass in the function address); 
  because a function’s name can also be used to get function's address */
  if (timerSecondRegisterISR(&timerSecondISR) == ISR_REGISTRATION_SUCCESS) {
   406b4:	01000134 	movhi	r4,4
   406b8:	2101c804 	addi	r4,r4,1824
   406bc:	00404d00 	call	404d0 <timerSecondRegisterISR>
   406c0:	10803fcc 	andi	r2,r2,255
   406c4:	1000051e 	bne	r2,zero,406dc <main+0x60>
    printf("timerSecondISR successively registered!\n");
   406c8:	01000134 	movhi	r4,4
   406cc:	210d4904 	addi	r4,r4,13604
   406d0:	00417680 	call	41768 <puts>
    timerSecondEnableInterrupt();
   406d4:	00405180 	call	40518 <timerSecondEnableInterrupt>
   406d8:	00000306 	br	406e8 <main+0x6c>
  }
  else {
   printf("ERROR: timerSecondISR unsuccessively registered!\n");
   406dc:	01000134 	movhi	r4,4
   406e0:	210d5304 	addi	r4,r4,13644
   406e4:	00417680 	call	41768 <puts>
  }

  if (switchesRegisterISR(&switchesISR) == ISR_REGISTRATION_SUCCESS) {
   406e8:	01000134 	movhi	r4,4
   406ec:	21021e04 	addi	r4,r4,2168
   406f0:	00405480 	call	40548 <switchesRegisterISR>
   406f4:	10803fcc 	andi	r2,r2,255
   406f8:	1000051e 	bne	r2,zero,40710 <main+0x94>
    printf("switchesISR successively registered!\n");
   406fc:	01000134 	movhi	r4,4
   40700:	210d6004 	addi	r4,r4,13696
   40704:	00417680 	call	41768 <puts>
    switchesEnableInterrupt();
   40708:	00405900 	call	40590 <switchesEnableInterrupt>
   4070c:	00000306 	br	4071c <main+0xa0>
  }
  else {
   printf("ERROR: switchesISR unsuccessively registered!\n");
   40710:	01000134 	movhi	r4,4
   40714:	210d6a04 	addi	r4,r4,13736
   40718:	00417680 	call	41768 <puts>





  while(1) {}  
   4071c:	003fff06 	br	4071c <__alt_data_end+0xfffd871c>

00040720 <timerSecondISR>:
}


// -------------- ISR callbacks -------------------

void timerSecondISR(void* isr_context) {
   40720:	defffc04 	addi	sp,sp,-16
   40724:	dfc00315 	stw	ra,12(sp)
   40728:	df000215 	stw	fp,8(sp)
   4072c:	df000204 	addi	fp,sp,8
   40730:	e13fff15 	stw	r4,-4(fp)

  /* The TO (timeout) bit is set to 1 when the internal counter reaches zero. Once set by a
  timeout event, the TO bit stays set until explicitly cleared by a master peripheral. 
  The TO bit is cleared by writing 0 to the status register. */
  IOWR_ALTERA_AVALON_TIMER_STATUS(TIMER_SECOND_BASE, 0);
   40734:	0007883a 	mov	r3,zero
   40738:	00800234 	movhi	r2,8
   4073c:	10840004 	addi	r2,r2,4096
   40740:	10c00035 	stwio	r3,0(r2)


  // for debugging purposes -> acknowledgement that interrupt has succesively fired
  //printf("timerSecond interrupt has fired!\n");
  alarmLEDtoggle();
   40744:	00406300 	call	40630 <alarmLEDtoggle>

 
  if (mode.display == DISP_CLOCK) {
   40748:	d0a0c943 	ldbu	r2,-31963(gp)
   4074c:	10803fcc 	andi	r2,r2,255
   40750:	1000411e 	bne	r2,zero,40858 <timerSecondISR+0x138>
    // temporary time struct for data transfer between modules
    struct time clock;

    if (mode.config.on == TRUE) {
   40754:	d0a0c9c3 	ldbu	r2,-31961(gp)
   40758:	10803fcc 	andi	r2,r2,255
   4075c:	10800058 	cmpnei	r2,r2,1
   40760:	10001a1e 	bne	r2,zero,407cc <timerSecondISR+0xac>

      // since we're in config, we don't want to carry the digits
      clock = upClockSecond(CARRY_OFF);
   40764:	0009883a 	mov	r4,zero
   40768:	0040d480 	call	40d48 <upClockSecond>
   4076c:	e0bffe05 	stb	r2,-8(fp)
   40770:	1006d23a 	srli	r3,r2,8
   40774:	1809883a 	mov	r4,r3
   40778:	00ffffc4 	movi	r3,-1
   4077c:	20c6703a 	and	r3,r4,r3
   40780:	e0fffe45 	stb	r3,-7(fp)
   40784:	1004d43a 	srli	r2,r2,16
   40788:	1007883a 	mov	r3,r2
   4078c:	00bfffc4 	movi	r2,-1
   40790:	1884703a 	and	r2,r3,r2
   40794:	e0bffe85 	stb	r2,-6(fp)
      printf("The clock time is currently: %d:%d:%d\n",clock.hour,clock.minute,clock.second);
   40798:	e0bffe03 	ldbu	r2,-8(fp)
   4079c:	10803fcc 	andi	r2,r2,255
   407a0:	e0fffe43 	ldbu	r3,-7(fp)
   407a4:	18c03fcc 	andi	r3,r3,255
   407a8:	e13ffe83 	ldbu	r4,-6(fp)
   407ac:	21003fcc 	andi	r4,r4,255
   407b0:	200f883a 	mov	r7,r4
   407b4:	180d883a 	mov	r6,r3
   407b8:	100b883a 	mov	r5,r2
   407bc:	01000134 	movhi	r4,4
   407c0:	210d7604 	addi	r4,r4,13784
   407c4:	004169c0 	call	4169c <printf>
   407c8:	00002006 	br	4084c <timerSecondISR+0x12c>
    }
    else if (mode.config.on == FALSE) {
   407cc:	d0a0c9c3 	ldbu	r2,-31961(gp)
   407d0:	10803fcc 	andi	r2,r2,255
   407d4:	10001a1e 	bne	r2,zero,40840 <timerSecondISR+0x120>

      // since we're not in config, the time should normally count and carry
      clock = upClockSecond(CARRY_ON);
   407d8:	01000044 	movi	r4,1
   407dc:	0040d480 	call	40d48 <upClockSecond>
   407e0:	e0bffe05 	stb	r2,-8(fp)
   407e4:	1006d23a 	srli	r3,r2,8
   407e8:	1809883a 	mov	r4,r3
   407ec:	00ffffc4 	movi	r3,-1
   407f0:	20c6703a 	and	r3,r4,r3
   407f4:	e0fffe45 	stb	r3,-7(fp)
   407f8:	1004d43a 	srli	r2,r2,16
   407fc:	1007883a 	mov	r3,r2
   40800:	00bfffc4 	movi	r2,-1
   40804:	1884703a 	and	r2,r3,r2
   40808:	e0bffe85 	stb	r2,-6(fp)
      printf("The clock time is currently: %d:%d:%d\n",clock.hour,clock.minute,clock.second);
   4080c:	e0bffe03 	ldbu	r2,-8(fp)
   40810:	10803fcc 	andi	r2,r2,255
   40814:	e0fffe43 	ldbu	r3,-7(fp)
   40818:	18c03fcc 	andi	r3,r3,255
   4081c:	e13ffe83 	ldbu	r4,-6(fp)
   40820:	21003fcc 	andi	r4,r4,255
   40824:	200f883a 	mov	r7,r4
   40828:	180d883a 	mov	r6,r3
   4082c:	100b883a 	mov	r5,r2
   40830:	01000134 	movhi	r4,4
   40834:	210d7604 	addi	r4,r4,13784
   40838:	004169c0 	call	4169c <printf>
   4083c:	00000306 	br	4084c <timerSecondISR+0x12c>
    }
    else {
      printf("ERROR: mode.config.on is invalid\n");
   40840:	01000134 	movhi	r4,4
   40844:	210d8004 	addi	r4,r4,13824
   40848:	00417680 	call	41768 <puts>
    }

    // since the time is being displayed, we'll have to update the display
    updateDisplay(clock);
   4084c:	e13ffe17 	ldw	r4,-8(fp)
   40850:	00403000 	call	40300 <updateDisplay>
  }
  else {
    // since the current time is not being displayed, we don't update the display
    upClockSecond(CARRY_ON);
  }
}
   40854:	00000206 	br	40860 <timerSecondISR+0x140>


  }
  else {
    // since the current time is not being displayed, we don't update the display
    upClockSecond(CARRY_ON);
   40858:	01000044 	movi	r4,1
   4085c:	0040d480 	call	40d48 <upClockSecond>
  }
}
   40860:	0001883a 	nop
   40864:	e037883a 	mov	sp,fp
   40868:	dfc00117 	ldw	ra,4(sp)
   4086c:	df000017 	ldw	fp,0(sp)
   40870:	dec00204 	addi	sp,sp,8
   40874:	f800283a 	ret

00040878 <switchesISR>:


void switchesISR(void* isr_context) {
   40878:	defffb04 	addi	sp,sp,-20
   4087c:	dfc00415 	stw	ra,16(sp)
   40880:	df000315 	stw	fp,12(sp)
   40884:	df000304 	addi	fp,sp,12
   40888:	e13fff15 	stw	r4,-4(fp)

  // for debugging purposes -> acknowledgement that interrupt has succesively fired
  printf("switches interrupt has fired!\n");
   4088c:	01000134 	movhi	r4,4
   40890:	210d8904 	addi	r4,r4,13860
   40894:	00417680 	call	41768 <puts>

  // reset edge capture register by writing to it 
  IOWR_ALTERA_AVALON_PIO_EDGE_CAP(SWITCHES_BASE, 0);
   40898:	0007883a 	mov	r3,zero
   4089c:	00800234 	movhi	r2,8
   408a0:	10843f04 	addi	r2,r2,4348
   408a4:	10c00035 	stwio	r3,0(r2)

  /* temporary mode struct for data transfer between modules and for testing
  the requested mode based on the switches state */
  struct mode mode_request;

  mode_request = determineMode();
   408a8:	00409b40 	call	409b4 <determineMode>
   408ac:	1009883a 	mov	r4,r2
   408b0:	180b883a 	mov	r5,r3
   408b4:	e13ffd05 	stb	r4,-12(fp)
   408b8:	2004d23a 	srli	r2,r4,8
   408bc:	1007883a 	mov	r3,r2
   408c0:	00bfffc4 	movi	r2,-1
   408c4:	1884703a 	and	r2,r3,r2
   408c8:	e0bffd45 	stb	r2,-11(fp)
   408cc:	2004d43a 	srli	r2,r4,16
   408d0:	1007883a 	mov	r3,r2
   408d4:	00bfffc4 	movi	r2,-1
   408d8:	1884703a 	and	r2,r3,r2
   408dc:	e0bffd85 	stb	r2,-10(fp)
   408e0:	2004d63a 	srli	r2,r4,24
   408e4:	e0bffdc5 	stb	r2,-9(fp)
   408e8:	e17ffe05 	stb	r5,-8(fp)
   408ec:	2804d23a 	srli	r2,r5,8
   408f0:	1007883a 	mov	r3,r2
   408f4:	00bfffc4 	movi	r2,-1
   408f8:	1884703a 	and	r2,r3,r2
   408fc:	e0bffe45 	stb	r2,-7(fp)

  printf("mode_request.invalid == %d\n", mode_request.invalid);
   40900:	e0bffd03 	ldbu	r2,-12(fp)
   40904:	10803fcc 	andi	r2,r2,255
   40908:	100b883a 	mov	r5,r2
   4090c:	01000134 	movhi	r4,4
   40910:	210d9104 	addi	r4,r4,13892
   40914:	004169c0 	call	4169c <printf>
  printf("mode_request.display == %d\n", mode_request.display);
   40918:	e0bffd43 	ldbu	r2,-11(fp)
   4091c:	10803fcc 	andi	r2,r2,255
   40920:	100b883a 	mov	r5,r2
   40924:	01000134 	movhi	r4,4
   40928:	210d9804 	addi	r4,r4,13920
   4092c:	004169c0 	call	4169c <printf>
  printf("mode_request.config.on == %d\n", mode_request.config.on);
   40930:	e0bffdc3 	ldbu	r2,-9(fp)
   40934:	10803fcc 	andi	r2,r2,255
   40938:	100b883a 	mov	r5,r2
   4093c:	01000134 	movhi	r4,4
   40940:	210d9f04 	addi	r4,r4,13948
   40944:	004169c0 	call	4169c <printf>
  printf("mode_request.config.hour == %d\n", mode_request.config.hour);
   40948:	e0bffe03 	ldbu	r2,-8(fp)
   4094c:	10803fcc 	andi	r2,r2,255
   40950:	100b883a 	mov	r5,r2
   40954:	01000134 	movhi	r4,4
   40958:	210da704 	addi	r4,r4,13980
   4095c:	004169c0 	call	4169c <printf>
  printf("mode_request.config.minute == %d\n", mode_request.config.minute);
   40960:	e0bffe43 	ldbu	r2,-7(fp)
   40964:	10803fcc 	andi	r2,r2,255
   40968:	100b883a 	mov	r5,r2
   4096c:	01000134 	movhi	r4,4
   40970:	210daf04 	addi	r4,r4,14012
   40974:	004169c0 	call	4169c <printf>
  printf("mode_request.alarm == %d\n", mode_request.alarm);
   40978:	e0bffd83 	ldbu	r2,-10(fp)
   4097c:	10803fcc 	andi	r2,r2,255
   40980:	100b883a 	mov	r5,r2
   40984:	01000134 	movhi	r4,4
   40988:	210db804 	addi	r4,r4,14048
   4098c:	004169c0 	call	4169c <printf>

  /* Read the PIO to delay ISR exit. This is done to prevent a
  spurious interrupt in systems with high processor -> pio
  latency and fast interrupts. */
  IORD_ALTERA_AVALON_PIO_EDGE_CAP(SWITCHES_BASE); 
   40990:	00800234 	movhi	r2,8
   40994:	10843f04 	addi	r2,r2,4348
   40998:	10800037 	ldwio	r2,0(r2)
}
   4099c:	0001883a 	nop
   409a0:	e037883a 	mov	sp,fp
   409a4:	dfc00117 	ldw	ra,4(sp)
   409a8:	df000017 	ldw	fp,0(sp)
   409ac:	dec00204 	addi	sp,sp,8
   409b0:	f800283a 	ret

000409b4 <determineMode>:
#include "switches.h" 

struct mode determineMode(void) {
   409b4:	defff904 	addi	sp,sp,-28
   409b8:	dfc00615 	stw	ra,24(sp)
   409bc:	df000515 	stw	fp,20(sp)
   409c0:	dc400415 	stw	r17,16(sp)
   409c4:	dc000315 	stw	r16,12(sp)
   409c8:	df000504 	addi	fp,sp,20
  ISR, the current mode is known allowing us to determine if an 
  invalid mode was requested */
  static struct mode mode;

  // this variable lets us test whether or not an invalid mode was requested
  volatile uint16_t switches_state_request = IORD_ALTERA_AVALON_PIO_DATA(SWITCHES_BASE);
   409cc:	00800234 	movhi	r2,8
   409d0:	10843c04 	addi	r2,r2,4336
   409d4:	10800037 	ldwio	r2,0(r2)
   409d8:	e0bffd0d 	sth	r2,-12(fp)

  // check if the request is invalid
  if (checkInvalidMode(switches_state_request) == INVALID) {
   409dc:	e0bffd0b 	ldhu	r2,-12(fp)
   409e0:	10bfffcc 	andi	r2,r2,65535
   409e4:	1009883a 	mov	r4,r2
   409e8:	0040c300 	call	40c30 <checkInvalidMode>
   409ec:	10803fcc 	andi	r2,r2,255
   409f0:	10800058 	cmpnei	r2,r2,1
   409f4:	10000f1e 	bne	r2,zero,40a34 <determineMode+0x80>
    mode.invalid = TRUE;
   409f8:	00800044 	movi	r2,1
   409fc:	d0a0ca85 	stb	r2,-31958(gp)
    return mode;
   40a00:	d0a0ca83 	ldbu	r2,-31958(gp)
   40a04:	e0bffb45 	stb	r2,-19(fp)
   40a08:	d0a0cac3 	ldbu	r2,-31957(gp)
   40a0c:	e0bffb85 	stb	r2,-18(fp)
   40a10:	d0a0cb03 	ldbu	r2,-31956(gp)
   40a14:	e0bffbc5 	stb	r2,-17(fp)
   40a18:	d0a0cb43 	ldbu	r2,-31955(gp)
   40a1c:	e0bffc05 	stb	r2,-16(fp)
   40a20:	d0a0cb83 	ldbu	r2,-31954(gp)
   40a24:	e0bffc45 	stb	r2,-15(fp)
   40a28:	d0a0cbc3 	ldbu	r2,-31953(gp)
   40a2c:	e0bffc85 	stb	r2,-14(fp)
   40a30:	00004906 	br	40b58 <determineMode+0x1a4>
  }

  else {
    // now that we know the mode request is valid, let's determine what it is
    mode.invalid = FALSE;
   40a34:	d020ca85 	stb	zero,-31958(gp)

    uint8_t i = 0;
   40a38:	e03ffb05 	stb	zero,-20(fp)

    // check for the valid mode request in lookup table
    while (switches_state_request != mode_lookup_table[i][0]) {
   40a3c:	00000606 	br	40a58 <determineMode+0xa4>
      i++;
   40a40:	e0bffb03 	ldbu	r2,-20(fp)
   40a44:	10800044 	addi	r2,r2,1
   40a48:	e0bffb05 	stb	r2,-20(fp)
      // catch error in case the bounds of the lookup table are exceeded
      if (i == NUM_VALID_MODES) {
   40a4c:	e0bffb03 	ldbu	r2,-20(fp)
   40a50:	10800218 	cmpnei	r2,r2,8
   40a54:	10000b26 	beq	r2,zero,40a84 <determineMode+0xd0>
    mode.invalid = FALSE;

    uint8_t i = 0;

    // check for the valid mode request in lookup table
    while (switches_state_request != mode_lookup_table[i][0]) {
   40a58:	e0fffb03 	ldbu	r3,-20(fp)
   40a5c:	00800134 	movhi	r2,4
   40a60:	108dbe84 	addi	r2,r2,14074
   40a64:	18c00324 	muli	r3,r3,12
   40a68:	10c5883a 	add	r2,r2,r3
   40a6c:	10c0000b 	ldhu	r3,0(r2)
   40a70:	e0bffd0b 	ldhu	r2,-12(fp)
   40a74:	18ffffcc 	andi	r3,r3,65535
   40a78:	10bfffcc 	andi	r2,r2,65535
   40a7c:	18bff01e 	bne	r3,r2,40a40 <__alt_data_end+0xfffd8a40>
   40a80:	00000106 	br	40a88 <determineMode+0xd4>
      i++;
      // catch error in case the bounds of the lookup table are exceeded
      if (i == NUM_VALID_MODES) {
        break;
   40a84:	0001883a 	nop
    }

    // once the valid mode request is find, the while loop ends and we have found
    // the correct mode; its location is determined by the index i
    // at this point, we can update the members of the mode struct
    mode.display = mode_lookup_table[i][1];
   40a88:	e0fffb03 	ldbu	r3,-20(fp)
   40a8c:	00800134 	movhi	r2,4
   40a90:	108dbe84 	addi	r2,r2,14074
   40a94:	18c00324 	muli	r3,r3,12
   40a98:	10c5883a 	add	r2,r2,r3
   40a9c:	10800084 	addi	r2,r2,2
   40aa0:	1080000b 	ldhu	r2,0(r2)
   40aa4:	d0a0cac5 	stb	r2,-31957(gp)
    mode.config.on = mode_lookup_table[i][2];
   40aa8:	e0fffb03 	ldbu	r3,-20(fp)
   40aac:	00800134 	movhi	r2,4
   40ab0:	108dbe84 	addi	r2,r2,14074
   40ab4:	18c00324 	muli	r3,r3,12
   40ab8:	10c5883a 	add	r2,r2,r3
   40abc:	10800104 	addi	r2,r2,4
   40ac0:	1080000b 	ldhu	r2,0(r2)
   40ac4:	d0a0cb45 	stb	r2,-31955(gp)
    mode.config.hour = mode_lookup_table[i][3];
   40ac8:	e0fffb03 	ldbu	r3,-20(fp)
   40acc:	00800134 	movhi	r2,4
   40ad0:	108dbe84 	addi	r2,r2,14074
   40ad4:	18c00324 	muli	r3,r3,12
   40ad8:	10c5883a 	add	r2,r2,r3
   40adc:	10800184 	addi	r2,r2,6
   40ae0:	1080000b 	ldhu	r2,0(r2)
   40ae4:	d0a0cb85 	stb	r2,-31954(gp)
    mode.config.minute = mode_lookup_table[i][4];
   40ae8:	e0fffb03 	ldbu	r3,-20(fp)
   40aec:	00800134 	movhi	r2,4
   40af0:	108dbe84 	addi	r2,r2,14074
   40af4:	18c00324 	muli	r3,r3,12
   40af8:	10c5883a 	add	r2,r2,r3
   40afc:	10800204 	addi	r2,r2,8
   40b00:	1080000b 	ldhu	r2,0(r2)
   40b04:	d0a0cbc5 	stb	r2,-31953(gp)
    mode.alarm = mode_lookup_table[i][5];
   40b08:	e0fffb03 	ldbu	r3,-20(fp)
   40b0c:	00800134 	movhi	r2,4
   40b10:	108dbe84 	addi	r2,r2,14074
   40b14:	18c00324 	muli	r3,r3,12
   40b18:	10c5883a 	add	r2,r2,r3
   40b1c:	10800284 	addi	r2,r2,10
   40b20:	1080000b 	ldhu	r2,0(r2)
   40b24:	d0a0cb05 	stb	r2,-31956(gp)

    return mode;
   40b28:	d0a0ca83 	ldbu	r2,-31958(gp)
   40b2c:	e0bffb45 	stb	r2,-19(fp)
   40b30:	d0a0cac3 	ldbu	r2,-31957(gp)
   40b34:	e0bffb85 	stb	r2,-18(fp)
   40b38:	d0a0cb03 	ldbu	r2,-31956(gp)
   40b3c:	e0bffbc5 	stb	r2,-17(fp)
   40b40:	d0a0cb43 	ldbu	r2,-31955(gp)
   40b44:	e0bffc05 	stb	r2,-16(fp)
   40b48:	d0a0cb83 	ldbu	r2,-31954(gp)
   40b4c:	e0bffc45 	stb	r2,-15(fp)
   40b50:	d0a0cbc3 	ldbu	r2,-31953(gp)
   40b54:	e0bffc85 	stb	r2,-14(fp)
   40b58:	0005883a 	mov	r2,zero
   40b5c:	e0fffb43 	ldbu	r3,-19(fp)
   40b60:	18c03fcc 	andi	r3,r3,255
   40b64:	013fc004 	movi	r4,-256
   40b68:	1104703a 	and	r2,r2,r4
   40b6c:	10c4b03a 	or	r2,r2,r3
   40b70:	e0fffb83 	ldbu	r3,-18(fp)
   40b74:	18c03fcc 	andi	r3,r3,255
   40b78:	1808923a 	slli	r4,r3,8
   40b7c:	00fffff4 	movhi	r3,65535
   40b80:	18c03fc4 	addi	r3,r3,255
   40b84:	10c4703a 	and	r2,r2,r3
   40b88:	1104b03a 	or	r2,r2,r4
   40b8c:	e0fffbc3 	ldbu	r3,-17(fp)
   40b90:	18c03fcc 	andi	r3,r3,255
   40b94:	1808943a 	slli	r4,r3,16
   40b98:	00ffc074 	movhi	r3,65281
   40b9c:	18ffffc4 	addi	r3,r3,-1
   40ba0:	10c4703a 	and	r2,r2,r3
   40ba4:	1104b03a 	or	r2,r2,r4
   40ba8:	e0fffc03 	ldbu	r3,-16(fp)
   40bac:	1808963a 	slli	r4,r3,24
   40bb0:	00c04034 	movhi	r3,256
   40bb4:	18ffffc4 	addi	r3,r3,-1
   40bb8:	10c4703a 	and	r2,r2,r3
   40bbc:	1104b03a 	or	r2,r2,r4
   40bc0:	0009883a 	mov	r4,zero
   40bc4:	e0fffc43 	ldbu	r3,-15(fp)
   40bc8:	18c03fcc 	andi	r3,r3,255
   40bcc:	017fc004 	movi	r5,-256
   40bd0:	2148703a 	and	r4,r4,r5
   40bd4:	20c6b03a 	or	r3,r4,r3
   40bd8:	1809883a 	mov	r4,r3
   40bdc:	e0fffc83 	ldbu	r3,-14(fp)
   40be0:	18c03fcc 	andi	r3,r3,255
   40be4:	180a923a 	slli	r5,r3,8
   40be8:	00fffff4 	movhi	r3,65535
   40bec:	18c03fc4 	addi	r3,r3,255
   40bf0:	20c6703a 	and	r3,r4,r3
   40bf4:	1946b03a 	or	r3,r3,r5
   40bf8:	1809883a 	mov	r4,r3
   40bfc:	1021883a 	mov	r16,r2
   40c00:	2023883a 	mov	r17,r4
   40c04:	8007883a 	mov	r3,r16
   40c08:	8809883a 	mov	r4,r17
  }

}
   40c0c:	1805883a 	mov	r2,r3
   40c10:	2007883a 	mov	r3,r4
   40c14:	e6fffe04 	addi	sp,fp,-8
   40c18:	dfc00317 	ldw	ra,12(sp)
   40c1c:	df000217 	ldw	fp,8(sp)
   40c20:	dc400117 	ldw	r17,4(sp)
   40c24:	dc000017 	ldw	r16,0(sp)
   40c28:	dec00404 	addi	sp,sp,16
   40c2c:	f800283a 	ret

00040c30 <checkInvalidMode>:

uint8_t checkInvalidMode(uint16_t switches_state_request) {
   40c30:	defffc04 	addi	sp,sp,-16
   40c34:	dfc00315 	stw	ra,12(sp)
   40c38:	df000215 	stw	fp,8(sp)
   40c3c:	df000204 	addi	fp,sp,8
   40c40:	2005883a 	mov	r2,r4
   40c44:	e0bfff0d 	sth	r2,-4(fp)
  // check if an unused switch was turned on
  uint8_t i = 0;
   40c48:	e03ffe05 	stb	zero,-8(fp)

  do {
    // if the entire array of unused_switches was searched but an
    // unused switch was not activated, then exit while loop
    if (i == NUM_UNUSED_SWITCHES) {
   40c4c:	e0bffe03 	ldbu	r2,-8(fp)
   40c50:	108000d8 	cmpnei	r2,r2,3
   40c54:	10000e26 	beq	r2,zero,40c90 <checkInvalidMode+0x60>
      break;
    }
    // if an unused switch was activated, exit function and indicate that
    // an invalid mode was selected
    else if (switches_state_request == unused_switches[i]) {
   40c58:	e0bffe03 	ldbu	r2,-8(fp)
   40c5c:	1087883a 	add	r3,r2,r2
   40c60:	d0a00004 	addi	r2,gp,-32768
   40c64:	1885883a 	add	r2,r3,r2
   40c68:	1080000b 	ldhu	r2,0(r2)
   40c6c:	10ffffcc 	andi	r3,r2,65535
   40c70:	e0bfff0b 	ldhu	r2,-4(fp)
   40c74:	1880021e 	bne	r3,r2,40c80 <checkInvalidMode+0x50>
      return INVALID;
   40c78:	00800044 	movi	r2,1
   40c7c:	00000e06 	br	40cb8 <checkInvalidMode+0x88>
    }

    // increment index of unused_switches array
    i++;
   40c80:	e0bffe03 	ldbu	r2,-8(fp)
   40c84:	10800044 	addi	r2,r2,1
   40c88:	e0bffe05 	stb	r2,-8(fp)

  } while(1);
   40c8c:	003fef06 	br	40c4c <__alt_data_end+0xfffd8c4c>

  do {
    // if the entire array of unused_switches was searched but an
    // unused switch was not activated, then exit while loop
    if (i == NUM_UNUSED_SWITCHES) {
      break;
   40c90:	0001883a 	nop

  } while(1);

  // now that we know an unused switch is not activated, we need to verify that 
  // the used switches are in a valid configuration
  if ( isPowerOfTwoOrZero(switches_state_request) == TRUE ) {
   40c94:	e0bfff0b 	ldhu	r2,-4(fp)
   40c98:	1009883a 	mov	r4,r2
   40c9c:	0040ccc0 	call	40ccc <isPowerOfTwoOrZero>
   40ca0:	10803fcc 	andi	r2,r2,255
   40ca4:	10800058 	cmpnei	r2,r2,1
   40ca8:	1000021e 	bne	r2,zero,40cb4 <checkInvalidMode+0x84>
    return VALID;
   40cac:	0005883a 	mov	r2,zero
   40cb0:	00000106 	br	40cb8 <checkInvalidMode+0x88>
  }

  else {
    return INVALID;
   40cb4:	00800044 	movi	r2,1
  }
}
   40cb8:	e037883a 	mov	sp,fp
   40cbc:	dfc00117 	ldw	ra,4(sp)
   40cc0:	df000017 	ldw	fp,0(sp)
   40cc4:	dec00204 	addi	sp,sp,8
   40cc8:	f800283a 	ret

00040ccc <isPowerOfTwoOrZero>:
6 & 5  != 0 -> invalid!
7 & 6  != 0 -> invalid!
---------------------------------------------
*/ 

uint8_t isPowerOfTwoOrZero(uint16_t value) {
   40ccc:	defffe04 	addi	sp,sp,-8
   40cd0:	df000115 	stw	fp,4(sp)
   40cd4:	df000104 	addi	fp,sp,4
   40cd8:	2005883a 	mov	r2,r4
   40cdc:	e0bfff0d 	sth	r2,-4(fp)
  if ((value & (value-1)) == 0) {
   40ce0:	e0ffff0b 	ldhu	r3,-4(fp)
   40ce4:	e0bfff0b 	ldhu	r2,-4(fp)
   40ce8:	10bfffc4 	addi	r2,r2,-1
   40cec:	1884703a 	and	r2,r3,r2
   40cf0:	1000021e 	bne	r2,zero,40cfc <isPowerOfTwoOrZero+0x30>
    return TRUE;
   40cf4:	00800044 	movi	r2,1
   40cf8:	00000106 	br	40d00 <isPowerOfTwoOrZero+0x34>
  }
  else {
    return FALSE;
   40cfc:	0005883a 	mov	r2,zero
  }
   40d00:	e037883a 	mov	sp,fp
   40d04:	df000017 	ldw	fp,0(sp)
   40d08:	dec00104 	addi	sp,sp,4
   40d0c:	f800283a 	ret

00040d10 <resetClockTime>:


/* ------------------------ CLOCK functions ---------------------- */

// initialize clock time to default time (see display.h)
void resetClockTime(void) {
   40d10:	deffff04 	addi	sp,sp,-4
   40d14:	df000015 	stw	fp,0(sp)
   40d18:	d839883a 	mov	fp,sp
  clock.hour = reset_clock_value[0];
   40d1c:	008005c4 	movi	r2,23
   40d20:	d0a0ccc5 	stb	r2,-31949(gp)
  clock.minute = reset_clock_value[1];
   40d24:	00800ec4 	movi	r2,59
   40d28:	d0a0cd05 	stb	r2,-31948(gp)
  clock.second = reset_clock_value[2];
   40d2c:	0005883a 	mov	r2,zero
   40d30:	d0a0cd45 	stb	r2,-31947(gp)
}
   40d34:	0001883a 	nop
   40d38:	e037883a 	mov	sp,fp
   40d3c:	df000017 	ldw	fp,0(sp)
   40d40:	dec00104 	addi	sp,sp,4
   40d44:	f800283a 	ret

00040d48 <upClockSecond>:

/*--------- up operations -------*/

// SECONDS
struct time upClockSecond(uint8_t carry_setting) {
   40d48:	defffc04 	addi	sp,sp,-16
   40d4c:	dfc00315 	stw	ra,12(sp)
   40d50:	df000215 	stw	fp,8(sp)
   40d54:	df000204 	addi	fp,sp,8
   40d58:	2005883a 	mov	r2,r4
   40d5c:	e0bfff05 	stb	r2,-4(fp)
  if (clock.second == (ONE_MINUTE-1)) {
   40d60:	d0a0cd43 	ldbu	r2,-31947(gp)
   40d64:	10803fcc 	andi	r2,r2,255
   40d68:	10800ed8 	cmpnei	r2,r2,59
   40d6c:	1000071e 	bne	r2,zero,40d8c <upClockSecond+0x44>
    clock.second = 0;
   40d70:	d020cd45 	stb	zero,-31947(gp)
    
    if (carry_setting == CARRY_ON) {
   40d74:	e0bfff03 	ldbu	r2,-4(fp)
   40d78:	10800058 	cmpnei	r2,r2,1
   40d7c:	1000061e 	bne	r2,zero,40d98 <upClockSecond+0x50>
      upClockMinute(CARRY_ON);
   40d80:	01000044 	movi	r4,1
   40d84:	0040e140 	call	40e14 <upClockMinute>
   40d88:	00000306 	br	40d98 <upClockSecond+0x50>
    }
  }
  else {
    clock.second++;
   40d8c:	d0a0cd43 	ldbu	r2,-31947(gp)
   40d90:	10800044 	addi	r2,r2,1
   40d94:	d0a0cd45 	stb	r2,-31947(gp)
  }
  return clock;
   40d98:	d0a0ccc3 	ldbu	r2,-31949(gp)
   40d9c:	e0bffe05 	stb	r2,-8(fp)
   40da0:	d0a0cd03 	ldbu	r2,-31948(gp)
   40da4:	e0bffe45 	stb	r2,-7(fp)
   40da8:	d0a0cd43 	ldbu	r2,-31947(gp)
   40dac:	e0bffe85 	stb	r2,-6(fp)
   40db0:	0005883a 	mov	r2,zero
   40db4:	e0fffe03 	ldbu	r3,-8(fp)
   40db8:	18c03fcc 	andi	r3,r3,255
   40dbc:	013fc004 	movi	r4,-256
   40dc0:	1104703a 	and	r2,r2,r4
   40dc4:	10c4b03a 	or	r2,r2,r3
   40dc8:	e0fffe43 	ldbu	r3,-7(fp)
   40dcc:	18c03fcc 	andi	r3,r3,255
   40dd0:	1808923a 	slli	r4,r3,8
   40dd4:	00fffff4 	movhi	r3,65535
   40dd8:	18c03fc4 	addi	r3,r3,255
   40ddc:	10c4703a 	and	r2,r2,r3
   40de0:	1104b03a 	or	r2,r2,r4
   40de4:	e0fffe83 	ldbu	r3,-6(fp)
   40de8:	18c03fcc 	andi	r3,r3,255
   40dec:	1808943a 	slli	r4,r3,16
   40df0:	00ffc074 	movhi	r3,65281
   40df4:	18ffffc4 	addi	r3,r3,-1
   40df8:	10c4703a 	and	r2,r2,r3
   40dfc:	1104b03a 	or	r2,r2,r4
}
   40e00:	e037883a 	mov	sp,fp
   40e04:	dfc00117 	ldw	ra,4(sp)
   40e08:	df000017 	ldw	fp,0(sp)
   40e0c:	dec00204 	addi	sp,sp,8
   40e10:	f800283a 	ret

00040e14 <upClockMinute>:

// MINUTES
struct time upClockMinute(uint8_t carry_setting) {
   40e14:	defffc04 	addi	sp,sp,-16
   40e18:	dfc00315 	stw	ra,12(sp)
   40e1c:	df000215 	stw	fp,8(sp)
   40e20:	df000204 	addi	fp,sp,8
   40e24:	2005883a 	mov	r2,r4
   40e28:	e0bfff05 	stb	r2,-4(fp)
  if (clock.minute == (ONE_HOUR-1)) {
   40e2c:	d0a0cd03 	ldbu	r2,-31948(gp)
   40e30:	10803fcc 	andi	r2,r2,255
   40e34:	10800ed8 	cmpnei	r2,r2,59
   40e38:	1000061e 	bne	r2,zero,40e54 <upClockMinute+0x40>
    clock.minute = 0;
   40e3c:	d020cd05 	stb	zero,-31948(gp)
    
    if (carry_setting == CARRY_ON) {
   40e40:	e0bfff03 	ldbu	r2,-4(fp)
   40e44:	10800058 	cmpnei	r2,r2,1
   40e48:	1000051e 	bne	r2,zero,40e60 <upClockMinute+0x4c>
      upClockHour();
   40e4c:	0040edc0 	call	40edc <upClockHour>
   40e50:	00000306 	br	40e60 <upClockMinute+0x4c>
    }
  }
  else {
    clock.minute++;
   40e54:	d0a0cd03 	ldbu	r2,-31948(gp)
   40e58:	10800044 	addi	r2,r2,1
   40e5c:	d0a0cd05 	stb	r2,-31948(gp)
  }
  return clock;
   40e60:	d0a0ccc3 	ldbu	r2,-31949(gp)
   40e64:	e0bffe05 	stb	r2,-8(fp)
   40e68:	d0a0cd03 	ldbu	r2,-31948(gp)
   40e6c:	e0bffe45 	stb	r2,-7(fp)
   40e70:	d0a0cd43 	ldbu	r2,-31947(gp)
   40e74:	e0bffe85 	stb	r2,-6(fp)
   40e78:	0005883a 	mov	r2,zero
   40e7c:	e0fffe03 	ldbu	r3,-8(fp)
   40e80:	18c03fcc 	andi	r3,r3,255
   40e84:	013fc004 	movi	r4,-256
   40e88:	1104703a 	and	r2,r2,r4
   40e8c:	10c4b03a 	or	r2,r2,r3
   40e90:	e0fffe43 	ldbu	r3,-7(fp)
   40e94:	18c03fcc 	andi	r3,r3,255
   40e98:	1808923a 	slli	r4,r3,8
   40e9c:	00fffff4 	movhi	r3,65535
   40ea0:	18c03fc4 	addi	r3,r3,255
   40ea4:	10c4703a 	and	r2,r2,r3
   40ea8:	1104b03a 	or	r2,r2,r4
   40eac:	e0fffe83 	ldbu	r3,-6(fp)
   40eb0:	18c03fcc 	andi	r3,r3,255
   40eb4:	1808943a 	slli	r4,r3,16
   40eb8:	00ffc074 	movhi	r3,65281
   40ebc:	18ffffc4 	addi	r3,r3,-1
   40ec0:	10c4703a 	and	r2,r2,r3
   40ec4:	1104b03a 	or	r2,r2,r4
}
   40ec8:	e037883a 	mov	sp,fp
   40ecc:	dfc00117 	ldw	ra,4(sp)
   40ed0:	df000017 	ldw	fp,0(sp)
   40ed4:	dec00204 	addi	sp,sp,8
   40ed8:	f800283a 	ret

00040edc <upClockHour>:

// HOURS
struct time upClockHour(void) {
   40edc:	defffe04 	addi	sp,sp,-8
   40ee0:	df000115 	stw	fp,4(sp)
   40ee4:	df000104 	addi	fp,sp,4
  if (clock.hour == (time_format-1)) {
   40ee8:	d0a0ccc3 	ldbu	r2,-31949(gp)
   40eec:	10c03fcc 	andi	r3,r2,255
   40ef0:	d0a00243 	ldbu	r2,-32759(gp)
   40ef4:	10803fcc 	andi	r2,r2,255
   40ef8:	10bfffc4 	addi	r2,r2,-1
   40efc:	1880021e 	bne	r3,r2,40f08 <upClockHour+0x2c>
    clock.hour = 0;
   40f00:	d020ccc5 	stb	zero,-31949(gp)
   40f04:	00000306 	br	40f14 <upClockHour+0x38>
  }
  else {
    clock.hour++;
   40f08:	d0a0ccc3 	ldbu	r2,-31949(gp)
   40f0c:	10800044 	addi	r2,r2,1
   40f10:	d0a0ccc5 	stb	r2,-31949(gp)
  }
  return clock;
   40f14:	d0a0ccc3 	ldbu	r2,-31949(gp)
   40f18:	e0bfff05 	stb	r2,-4(fp)
   40f1c:	d0a0cd03 	ldbu	r2,-31948(gp)
   40f20:	e0bfff45 	stb	r2,-3(fp)
   40f24:	d0a0cd43 	ldbu	r2,-31947(gp)
   40f28:	e0bfff85 	stb	r2,-2(fp)
   40f2c:	0005883a 	mov	r2,zero
   40f30:	e0ffff03 	ldbu	r3,-4(fp)
   40f34:	18c03fcc 	andi	r3,r3,255
   40f38:	013fc004 	movi	r4,-256
   40f3c:	1104703a 	and	r2,r2,r4
   40f40:	10c4b03a 	or	r2,r2,r3
   40f44:	e0ffff43 	ldbu	r3,-3(fp)
   40f48:	18c03fcc 	andi	r3,r3,255
   40f4c:	1808923a 	slli	r4,r3,8
   40f50:	00fffff4 	movhi	r3,65535
   40f54:	18c03fc4 	addi	r3,r3,255
   40f58:	10c4703a 	and	r2,r2,r3
   40f5c:	1104b03a 	or	r2,r2,r4
   40f60:	e0ffff83 	ldbu	r3,-2(fp)
   40f64:	18c03fcc 	andi	r3,r3,255
   40f68:	1808943a 	slli	r4,r3,16
   40f6c:	00ffc074 	movhi	r3,65281
   40f70:	18ffffc4 	addi	r3,r3,-1
   40f74:	10c4703a 	and	r2,r2,r3
   40f78:	1104b03a 	or	r2,r2,r4
}
   40f7c:	e037883a 	mov	sp,fp
   40f80:	df000017 	ldw	fp,0(sp)
   40f84:	dec00104 	addi	sp,sp,4
   40f88:	f800283a 	ret

00040f8c <downClockSecond>:

/*--------- down operations -------*/

// SECONDS
struct time downClockSecond(uint8_t carry_setting) {
   40f8c:	defffc04 	addi	sp,sp,-16
   40f90:	dfc00315 	stw	ra,12(sp)
   40f94:	df000215 	stw	fp,8(sp)
   40f98:	df000204 	addi	fp,sp,8
   40f9c:	2005883a 	mov	r2,r4
   40fa0:	e0bfff05 	stb	r2,-4(fp)
  if (clock.second == 0) {
   40fa4:	d0a0cd43 	ldbu	r2,-31947(gp)
   40fa8:	10803fcc 	andi	r2,r2,255
   40fac:	1000081e 	bne	r2,zero,40fd0 <downClockSecond+0x44>
    clock.second = (ONE_MINUTE-1);
   40fb0:	00800ec4 	movi	r2,59
   40fb4:	d0a0cd45 	stb	r2,-31947(gp)
    
    if (carry_setting == CARRY_ON) {
   40fb8:	e0bfff03 	ldbu	r2,-4(fp)
   40fbc:	10800058 	cmpnei	r2,r2,1
   40fc0:	1000061e 	bne	r2,zero,40fdc <downClockSecond+0x50>
      downClockMinute(CARRY_ON);
   40fc4:	01000044 	movi	r4,1
   40fc8:	00410580 	call	41058 <downClockMinute>
   40fcc:	00000306 	br	40fdc <downClockSecond+0x50>
    }
  }
  else {
    clock.second--;
   40fd0:	d0a0cd43 	ldbu	r2,-31947(gp)
   40fd4:	10bfffc4 	addi	r2,r2,-1
   40fd8:	d0a0cd45 	stb	r2,-31947(gp)
  }
  return clock;
   40fdc:	d0a0ccc3 	ldbu	r2,-31949(gp)
   40fe0:	e0bffe05 	stb	r2,-8(fp)
   40fe4:	d0a0cd03 	ldbu	r2,-31948(gp)
   40fe8:	e0bffe45 	stb	r2,-7(fp)
   40fec:	d0a0cd43 	ldbu	r2,-31947(gp)
   40ff0:	e0bffe85 	stb	r2,-6(fp)
   40ff4:	0005883a 	mov	r2,zero
   40ff8:	e0fffe03 	ldbu	r3,-8(fp)
   40ffc:	18c03fcc 	andi	r3,r3,255
   41000:	013fc004 	movi	r4,-256
   41004:	1104703a 	and	r2,r2,r4
   41008:	10c4b03a 	or	r2,r2,r3
   4100c:	e0fffe43 	ldbu	r3,-7(fp)
   41010:	18c03fcc 	andi	r3,r3,255
   41014:	1808923a 	slli	r4,r3,8
   41018:	00fffff4 	movhi	r3,65535
   4101c:	18c03fc4 	addi	r3,r3,255
   41020:	10c4703a 	and	r2,r2,r3
   41024:	1104b03a 	or	r2,r2,r4
   41028:	e0fffe83 	ldbu	r3,-6(fp)
   4102c:	18c03fcc 	andi	r3,r3,255
   41030:	1808943a 	slli	r4,r3,16
   41034:	00ffc074 	movhi	r3,65281
   41038:	18ffffc4 	addi	r3,r3,-1
   4103c:	10c4703a 	and	r2,r2,r3
   41040:	1104b03a 	or	r2,r2,r4
}
   41044:	e037883a 	mov	sp,fp
   41048:	dfc00117 	ldw	ra,4(sp)
   4104c:	df000017 	ldw	fp,0(sp)
   41050:	dec00204 	addi	sp,sp,8
   41054:	f800283a 	ret

00041058 <downClockMinute>:

// MINUTES
struct time downClockMinute(uint8_t carry_setting) {
   41058:	defffc04 	addi	sp,sp,-16
   4105c:	dfc00315 	stw	ra,12(sp)
   41060:	df000215 	stw	fp,8(sp)
   41064:	df000204 	addi	fp,sp,8
   41068:	2005883a 	mov	r2,r4
   4106c:	e0bfff05 	stb	r2,-4(fp)
  if (clock.minute == 0) {
   41070:	d0a0cd03 	ldbu	r2,-31948(gp)
   41074:	10803fcc 	andi	r2,r2,255
   41078:	1000071e 	bne	r2,zero,41098 <downClockMinute+0x40>
    clock.minute = (ONE_HOUR-1);
   4107c:	00800ec4 	movi	r2,59
   41080:	d0a0cd05 	stb	r2,-31948(gp)
    
    if (carry_setting == CARRY_ON) {
   41084:	e0bfff03 	ldbu	r2,-4(fp)
   41088:	10800058 	cmpnei	r2,r2,1
   4108c:	1000051e 	bne	r2,zero,410a4 <downClockMinute+0x4c>
      downClockHour();
   41090:	00411200 	call	41120 <downClockHour>
   41094:	00000306 	br	410a4 <downClockMinute+0x4c>
    }
  }
  else {
    clock.minute--;
   41098:	d0a0cd03 	ldbu	r2,-31948(gp)
   4109c:	10bfffc4 	addi	r2,r2,-1
   410a0:	d0a0cd05 	stb	r2,-31948(gp)
  }
  return clock;
   410a4:	d0a0ccc3 	ldbu	r2,-31949(gp)
   410a8:	e0bffe05 	stb	r2,-8(fp)
   410ac:	d0a0cd03 	ldbu	r2,-31948(gp)
   410b0:	e0bffe45 	stb	r2,-7(fp)
   410b4:	d0a0cd43 	ldbu	r2,-31947(gp)
   410b8:	e0bffe85 	stb	r2,-6(fp)
   410bc:	0005883a 	mov	r2,zero
   410c0:	e0fffe03 	ldbu	r3,-8(fp)
   410c4:	18c03fcc 	andi	r3,r3,255
   410c8:	013fc004 	movi	r4,-256
   410cc:	1104703a 	and	r2,r2,r4
   410d0:	10c4b03a 	or	r2,r2,r3
   410d4:	e0fffe43 	ldbu	r3,-7(fp)
   410d8:	18c03fcc 	andi	r3,r3,255
   410dc:	1808923a 	slli	r4,r3,8
   410e0:	00fffff4 	movhi	r3,65535
   410e4:	18c03fc4 	addi	r3,r3,255
   410e8:	10c4703a 	and	r2,r2,r3
   410ec:	1104b03a 	or	r2,r2,r4
   410f0:	e0fffe83 	ldbu	r3,-6(fp)
   410f4:	18c03fcc 	andi	r3,r3,255
   410f8:	1808943a 	slli	r4,r3,16
   410fc:	00ffc074 	movhi	r3,65281
   41100:	18ffffc4 	addi	r3,r3,-1
   41104:	10c4703a 	and	r2,r2,r3
   41108:	1104b03a 	or	r2,r2,r4
}
   4110c:	e037883a 	mov	sp,fp
   41110:	dfc00117 	ldw	ra,4(sp)
   41114:	df000017 	ldw	fp,0(sp)
   41118:	dec00204 	addi	sp,sp,8
   4111c:	f800283a 	ret

00041120 <downClockHour>:

// HOURS
struct time downClockHour(void) {
   41120:	defffe04 	addi	sp,sp,-8
   41124:	df000115 	stw	fp,4(sp)
   41128:	df000104 	addi	fp,sp,4
  if (clock.hour == 0) {
   4112c:	d0a0ccc3 	ldbu	r2,-31949(gp)
   41130:	10803fcc 	andi	r2,r2,255
   41134:	1000041e 	bne	r2,zero,41148 <downClockHour+0x28>
    clock.hour = (time_format-1);
   41138:	d0a00243 	ldbu	r2,-32759(gp)
   4113c:	10bfffc4 	addi	r2,r2,-1
   41140:	d0a0ccc5 	stb	r2,-31949(gp)
   41144:	00000306 	br	41154 <downClockHour+0x34>
  }
  else {
    clock.hour--;
   41148:	d0a0ccc3 	ldbu	r2,-31949(gp)
   4114c:	10bfffc4 	addi	r2,r2,-1
   41150:	d0a0ccc5 	stb	r2,-31949(gp)
  }
  return clock;
   41154:	d0a0ccc3 	ldbu	r2,-31949(gp)
   41158:	e0bfff05 	stb	r2,-4(fp)
   4115c:	d0a0cd03 	ldbu	r2,-31948(gp)
   41160:	e0bfff45 	stb	r2,-3(fp)
   41164:	d0a0cd43 	ldbu	r2,-31947(gp)
   41168:	e0bfff85 	stb	r2,-2(fp)
   4116c:	0005883a 	mov	r2,zero
   41170:	e0ffff03 	ldbu	r3,-4(fp)
   41174:	18c03fcc 	andi	r3,r3,255
   41178:	013fc004 	movi	r4,-256
   4117c:	1104703a 	and	r2,r2,r4
   41180:	10c4b03a 	or	r2,r2,r3
   41184:	e0ffff43 	ldbu	r3,-3(fp)
   41188:	18c03fcc 	andi	r3,r3,255
   4118c:	1808923a 	slli	r4,r3,8
   41190:	00fffff4 	movhi	r3,65535
   41194:	18c03fc4 	addi	r3,r3,255
   41198:	10c4703a 	and	r2,r2,r3
   4119c:	1104b03a 	or	r2,r2,r4
   411a0:	e0ffff83 	ldbu	r3,-2(fp)
   411a4:	18c03fcc 	andi	r3,r3,255
   411a8:	1808943a 	slli	r4,r3,16
   411ac:	00ffc074 	movhi	r3,65281
   411b0:	18ffffc4 	addi	r3,r3,-1
   411b4:	10c4703a 	and	r2,r2,r3
   411b8:	1104b03a 	or	r2,r2,r4
}
   411bc:	e037883a 	mov	sp,fp
   411c0:	df000017 	ldw	fp,0(sp)
   411c4:	dec00104 	addi	sp,sp,4
   411c8:	f800283a 	ret

000411cc <resetAlarmTime>:


/* ------------------------ ALARM functions ---------------------- */

// initialize alarm time to 00:00 (seconds are turned off)
void resetAlarmTime(void) {
   411cc:	deffff04 	addi	sp,sp,-4
   411d0:	df000015 	stw	fp,0(sp)
   411d4:	d839883a 	mov	fp,sp
  // necessary to cast to a time struct, otherwise the 
  // value assignment won't work
  alarm =  (struct time){0};
   411d8:	d020cc05 	stb	zero,-31952(gp)
   411dc:	d020cc45 	stb	zero,-31951(gp)
   411e0:	d020cc85 	stb	zero,-31950(gp)

  // we explicitly turn the second digits off
  alarm.second = DIGITS_OFF;
   411e4:	00801b84 	movi	r2,110
   411e8:	d0a0cc85 	stb	r2,-31950(gp)
}
   411ec:	0001883a 	nop
   411f0:	e037883a 	mov	sp,fp
   411f4:	df000017 	ldw	fp,0(sp)
   411f8:	dec00104 	addi	sp,sp,4
   411fc:	f800283a 	ret

00041200 <upAlarmMinute>:

/*--------- up operations -------*/

// MINUTES
struct time upAlarmMinute() {
   41200:	defffe04 	addi	sp,sp,-8
   41204:	df000115 	stw	fp,4(sp)
   41208:	df000104 	addi	fp,sp,4
  if (alarm.minute == (ONE_HOUR-1)) {
   4120c:	d0a0cc43 	ldbu	r2,-31951(gp)
   41210:	10803fcc 	andi	r2,r2,255
   41214:	10800ed8 	cmpnei	r2,r2,59
   41218:	1000021e 	bne	r2,zero,41224 <upAlarmMinute+0x24>
    alarm.minute = 0;
   4121c:	d020cc45 	stb	zero,-31951(gp)
   41220:	00000306 	br	41230 <upAlarmMinute+0x30>
  }
  else {
    alarm.minute++;
   41224:	d0a0cc43 	ldbu	r2,-31951(gp)
   41228:	10800044 	addi	r2,r2,1
   4122c:	d0a0cc45 	stb	r2,-31951(gp)
  }
  return alarm;
   41230:	d0a0cc03 	ldbu	r2,-31952(gp)
   41234:	e0bfff05 	stb	r2,-4(fp)
   41238:	d0a0cc43 	ldbu	r2,-31951(gp)
   4123c:	e0bfff45 	stb	r2,-3(fp)
   41240:	d0a0cc83 	ldbu	r2,-31950(gp)
   41244:	e0bfff85 	stb	r2,-2(fp)
   41248:	0005883a 	mov	r2,zero
   4124c:	e0ffff03 	ldbu	r3,-4(fp)
   41250:	18c03fcc 	andi	r3,r3,255
   41254:	013fc004 	movi	r4,-256
   41258:	1104703a 	and	r2,r2,r4
   4125c:	10c4b03a 	or	r2,r2,r3
   41260:	e0ffff43 	ldbu	r3,-3(fp)
   41264:	18c03fcc 	andi	r3,r3,255
   41268:	1808923a 	slli	r4,r3,8
   4126c:	00fffff4 	movhi	r3,65535
   41270:	18c03fc4 	addi	r3,r3,255
   41274:	10c4703a 	and	r2,r2,r3
   41278:	1104b03a 	or	r2,r2,r4
   4127c:	e0ffff83 	ldbu	r3,-2(fp)
   41280:	18c03fcc 	andi	r3,r3,255
   41284:	1808943a 	slli	r4,r3,16
   41288:	00ffc074 	movhi	r3,65281
   4128c:	18ffffc4 	addi	r3,r3,-1
   41290:	10c4703a 	and	r2,r2,r3
   41294:	1104b03a 	or	r2,r2,r4
}
   41298:	e037883a 	mov	sp,fp
   4129c:	df000017 	ldw	fp,0(sp)
   412a0:	dec00104 	addi	sp,sp,4
   412a4:	f800283a 	ret

000412a8 <upAlarmHour>:

// HOURS
struct time upAlarmHour(void) {
   412a8:	defffe04 	addi	sp,sp,-8
   412ac:	df000115 	stw	fp,4(sp)
   412b0:	df000104 	addi	fp,sp,4
  if (alarm.hour == (time_format-1)) {
   412b4:	d0a0cc03 	ldbu	r2,-31952(gp)
   412b8:	10c03fcc 	andi	r3,r2,255
   412bc:	d0a00243 	ldbu	r2,-32759(gp)
   412c0:	10803fcc 	andi	r2,r2,255
   412c4:	10bfffc4 	addi	r2,r2,-1
   412c8:	1880021e 	bne	r3,r2,412d4 <upAlarmHour+0x2c>
    alarm.hour = 0;
   412cc:	d020cc05 	stb	zero,-31952(gp)
   412d0:	00000306 	br	412e0 <upAlarmHour+0x38>
  }
  else {
    alarm.hour++;
   412d4:	d0a0cc03 	ldbu	r2,-31952(gp)
   412d8:	10800044 	addi	r2,r2,1
   412dc:	d0a0cc05 	stb	r2,-31952(gp)
  }
  return alarm;
   412e0:	d0a0cc03 	ldbu	r2,-31952(gp)
   412e4:	e0bfff05 	stb	r2,-4(fp)
   412e8:	d0a0cc43 	ldbu	r2,-31951(gp)
   412ec:	e0bfff45 	stb	r2,-3(fp)
   412f0:	d0a0cc83 	ldbu	r2,-31950(gp)
   412f4:	e0bfff85 	stb	r2,-2(fp)
   412f8:	0005883a 	mov	r2,zero
   412fc:	e0ffff03 	ldbu	r3,-4(fp)
   41300:	18c03fcc 	andi	r3,r3,255
   41304:	013fc004 	movi	r4,-256
   41308:	1104703a 	and	r2,r2,r4
   4130c:	10c4b03a 	or	r2,r2,r3
   41310:	e0ffff43 	ldbu	r3,-3(fp)
   41314:	18c03fcc 	andi	r3,r3,255
   41318:	1808923a 	slli	r4,r3,8
   4131c:	00fffff4 	movhi	r3,65535
   41320:	18c03fc4 	addi	r3,r3,255
   41324:	10c4703a 	and	r2,r2,r3
   41328:	1104b03a 	or	r2,r2,r4
   4132c:	e0ffff83 	ldbu	r3,-2(fp)
   41330:	18c03fcc 	andi	r3,r3,255
   41334:	1808943a 	slli	r4,r3,16
   41338:	00ffc074 	movhi	r3,65281
   4133c:	18ffffc4 	addi	r3,r3,-1
   41340:	10c4703a 	and	r2,r2,r3
   41344:	1104b03a 	or	r2,r2,r4
}
   41348:	e037883a 	mov	sp,fp
   4134c:	df000017 	ldw	fp,0(sp)
   41350:	dec00104 	addi	sp,sp,4
   41354:	f800283a 	ret

00041358 <downAlarmMinute>:

/*--------- down operations -------*/

// MINUTES
struct time downAlarmMinute() {
   41358:	defffe04 	addi	sp,sp,-8
   4135c:	df000115 	stw	fp,4(sp)
   41360:	df000104 	addi	fp,sp,4
  if (alarm.minute == 0) {
   41364:	d0a0cc43 	ldbu	r2,-31951(gp)
   41368:	10803fcc 	andi	r2,r2,255
   4136c:	1000031e 	bne	r2,zero,4137c <downAlarmMinute+0x24>
    alarm.minute = (ONE_HOUR-1);
   41370:	00800ec4 	movi	r2,59
   41374:	d0a0cc45 	stb	r2,-31951(gp)
   41378:	00000306 	br	41388 <downAlarmMinute+0x30>
  }
  else {
    alarm.minute--;
   4137c:	d0a0cc43 	ldbu	r2,-31951(gp)
   41380:	10bfffc4 	addi	r2,r2,-1
   41384:	d0a0cc45 	stb	r2,-31951(gp)
  }
  return alarm;
   41388:	d0a0cc03 	ldbu	r2,-31952(gp)
   4138c:	e0bfff05 	stb	r2,-4(fp)
   41390:	d0a0cc43 	ldbu	r2,-31951(gp)
   41394:	e0bfff45 	stb	r2,-3(fp)
   41398:	d0a0cc83 	ldbu	r2,-31950(gp)
   4139c:	e0bfff85 	stb	r2,-2(fp)
   413a0:	0005883a 	mov	r2,zero
   413a4:	e0ffff03 	ldbu	r3,-4(fp)
   413a8:	18c03fcc 	andi	r3,r3,255
   413ac:	013fc004 	movi	r4,-256
   413b0:	1104703a 	and	r2,r2,r4
   413b4:	10c4b03a 	or	r2,r2,r3
   413b8:	e0ffff43 	ldbu	r3,-3(fp)
   413bc:	18c03fcc 	andi	r3,r3,255
   413c0:	1808923a 	slli	r4,r3,8
   413c4:	00fffff4 	movhi	r3,65535
   413c8:	18c03fc4 	addi	r3,r3,255
   413cc:	10c4703a 	and	r2,r2,r3
   413d0:	1104b03a 	or	r2,r2,r4
   413d4:	e0ffff83 	ldbu	r3,-2(fp)
   413d8:	18c03fcc 	andi	r3,r3,255
   413dc:	1808943a 	slli	r4,r3,16
   413e0:	00ffc074 	movhi	r3,65281
   413e4:	18ffffc4 	addi	r3,r3,-1
   413e8:	10c4703a 	and	r2,r2,r3
   413ec:	1104b03a 	or	r2,r2,r4
}
   413f0:	e037883a 	mov	sp,fp
   413f4:	df000017 	ldw	fp,0(sp)
   413f8:	dec00104 	addi	sp,sp,4
   413fc:	f800283a 	ret

00041400 <downAlarmHour>:

// HOURS
struct time downAlarmHour(void) {
   41400:	defffe04 	addi	sp,sp,-8
   41404:	df000115 	stw	fp,4(sp)
   41408:	df000104 	addi	fp,sp,4
  if (alarm.hour == 0) {
   4140c:	d0a0cc03 	ldbu	r2,-31952(gp)
   41410:	10803fcc 	andi	r2,r2,255
   41414:	1000041e 	bne	r2,zero,41428 <downAlarmHour+0x28>
    alarm.hour = (time_format-1);
   41418:	d0a00243 	ldbu	r2,-32759(gp)
   4141c:	10bfffc4 	addi	r2,r2,-1
   41420:	d0a0cc05 	stb	r2,-31952(gp)
   41424:	00000306 	br	41434 <downAlarmHour+0x34>
  }
  else {
    alarm.hour--;
   41428:	d0a0cc03 	ldbu	r2,-31952(gp)
   4142c:	10bfffc4 	addi	r2,r2,-1
   41430:	d0a0cc05 	stb	r2,-31952(gp)
  }
  return alarm;
   41434:	d0a0cc03 	ldbu	r2,-31952(gp)
   41438:	e0bfff05 	stb	r2,-4(fp)
   4143c:	d0a0cc43 	ldbu	r2,-31951(gp)
   41440:	e0bfff45 	stb	r2,-3(fp)
   41444:	d0a0cc83 	ldbu	r2,-31950(gp)
   41448:	e0bfff85 	stb	r2,-2(fp)
   4144c:	0005883a 	mov	r2,zero
   41450:	e0ffff03 	ldbu	r3,-4(fp)
   41454:	18c03fcc 	andi	r3,r3,255
   41458:	013fc004 	movi	r4,-256
   4145c:	1104703a 	and	r2,r2,r4
   41460:	10c4b03a 	or	r2,r2,r3
   41464:	e0ffff43 	ldbu	r3,-3(fp)
   41468:	18c03fcc 	andi	r3,r3,255
   4146c:	1808923a 	slli	r4,r3,8
   41470:	00fffff4 	movhi	r3,65535
   41474:	18c03fc4 	addi	r3,r3,255
   41478:	10c4703a 	and	r2,r2,r3
   4147c:	1104b03a 	or	r2,r2,r4
   41480:	e0ffff83 	ldbu	r3,-2(fp)
   41484:	18c03fcc 	andi	r3,r3,255
   41488:	1808943a 	slli	r4,r3,16
   4148c:	00ffc074 	movhi	r3,65281
   41490:	18ffffc4 	addi	r3,r3,-1
   41494:	10c4703a 	and	r2,r2,r3
   41498:	1104b03a 	or	r2,r2,r4
}
   4149c:	e037883a 	mov	sp,fp
   414a0:	df000017 	ldw	fp,0(sp)
   414a4:	dec00104 	addi	sp,sp,4
   414a8:	f800283a 	ret

000414ac <__divsi3>:
   414ac:	20001b16 	blt	r4,zero,4151c <__divsi3+0x70>
   414b0:	000f883a 	mov	r7,zero
   414b4:	28001616 	blt	r5,zero,41510 <__divsi3+0x64>
   414b8:	200d883a 	mov	r6,r4
   414bc:	29001a2e 	bgeu	r5,r4,41528 <__divsi3+0x7c>
   414c0:	00800804 	movi	r2,32
   414c4:	00c00044 	movi	r3,1
   414c8:	00000106 	br	414d0 <__divsi3+0x24>
   414cc:	10000d26 	beq	r2,zero,41504 <__divsi3+0x58>
   414d0:	294b883a 	add	r5,r5,r5
   414d4:	10bfffc4 	addi	r2,r2,-1
   414d8:	18c7883a 	add	r3,r3,r3
   414dc:	293ffb36 	bltu	r5,r4,414cc <__alt_data_end+0xfffd94cc>
   414e0:	0005883a 	mov	r2,zero
   414e4:	18000726 	beq	r3,zero,41504 <__divsi3+0x58>
   414e8:	0005883a 	mov	r2,zero
   414ec:	31400236 	bltu	r6,r5,414f8 <__divsi3+0x4c>
   414f0:	314dc83a 	sub	r6,r6,r5
   414f4:	10c4b03a 	or	r2,r2,r3
   414f8:	1806d07a 	srli	r3,r3,1
   414fc:	280ad07a 	srli	r5,r5,1
   41500:	183ffa1e 	bne	r3,zero,414ec <__alt_data_end+0xfffd94ec>
   41504:	38000126 	beq	r7,zero,4150c <__divsi3+0x60>
   41508:	0085c83a 	sub	r2,zero,r2
   4150c:	f800283a 	ret
   41510:	014bc83a 	sub	r5,zero,r5
   41514:	39c0005c 	xori	r7,r7,1
   41518:	003fe706 	br	414b8 <__alt_data_end+0xfffd94b8>
   4151c:	0109c83a 	sub	r4,zero,r4
   41520:	01c00044 	movi	r7,1
   41524:	003fe306 	br	414b4 <__alt_data_end+0xfffd94b4>
   41528:	00c00044 	movi	r3,1
   4152c:	003fee06 	br	414e8 <__alt_data_end+0xfffd94e8>

00041530 <__modsi3>:
   41530:	20001716 	blt	r4,zero,41590 <__modsi3+0x60>
   41534:	000f883a 	mov	r7,zero
   41538:	2005883a 	mov	r2,r4
   4153c:	28001216 	blt	r5,zero,41588 <__modsi3+0x58>
   41540:	2900162e 	bgeu	r5,r4,4159c <__modsi3+0x6c>
   41544:	01800804 	movi	r6,32
   41548:	00c00044 	movi	r3,1
   4154c:	00000106 	br	41554 <__modsi3+0x24>
   41550:	30000a26 	beq	r6,zero,4157c <__modsi3+0x4c>
   41554:	294b883a 	add	r5,r5,r5
   41558:	31bfffc4 	addi	r6,r6,-1
   4155c:	18c7883a 	add	r3,r3,r3
   41560:	293ffb36 	bltu	r5,r4,41550 <__alt_data_end+0xfffd9550>
   41564:	18000526 	beq	r3,zero,4157c <__modsi3+0x4c>
   41568:	1806d07a 	srli	r3,r3,1
   4156c:	11400136 	bltu	r2,r5,41574 <__modsi3+0x44>
   41570:	1145c83a 	sub	r2,r2,r5
   41574:	280ad07a 	srli	r5,r5,1
   41578:	183ffb1e 	bne	r3,zero,41568 <__alt_data_end+0xfffd9568>
   4157c:	38000126 	beq	r7,zero,41584 <__modsi3+0x54>
   41580:	0085c83a 	sub	r2,zero,r2
   41584:	f800283a 	ret
   41588:	014bc83a 	sub	r5,zero,r5
   4158c:	003fec06 	br	41540 <__alt_data_end+0xfffd9540>
   41590:	0109c83a 	sub	r4,zero,r4
   41594:	01c00044 	movi	r7,1
   41598:	003fe706 	br	41538 <__alt_data_end+0xfffd9538>
   4159c:	00c00044 	movi	r3,1
   415a0:	003ff106 	br	41568 <__alt_data_end+0xfffd9568>

000415a4 <__udivsi3>:
   415a4:	200d883a 	mov	r6,r4
   415a8:	2900152e 	bgeu	r5,r4,41600 <__udivsi3+0x5c>
   415ac:	28001416 	blt	r5,zero,41600 <__udivsi3+0x5c>
   415b0:	00800804 	movi	r2,32
   415b4:	00c00044 	movi	r3,1
   415b8:	00000206 	br	415c4 <__udivsi3+0x20>
   415bc:	10000e26 	beq	r2,zero,415f8 <__udivsi3+0x54>
   415c0:	28000516 	blt	r5,zero,415d8 <__udivsi3+0x34>
   415c4:	294b883a 	add	r5,r5,r5
   415c8:	10bfffc4 	addi	r2,r2,-1
   415cc:	18c7883a 	add	r3,r3,r3
   415d0:	293ffa36 	bltu	r5,r4,415bc <__alt_data_end+0xfffd95bc>
   415d4:	18000826 	beq	r3,zero,415f8 <__udivsi3+0x54>
   415d8:	0005883a 	mov	r2,zero
   415dc:	31400236 	bltu	r6,r5,415e8 <__udivsi3+0x44>
   415e0:	314dc83a 	sub	r6,r6,r5
   415e4:	10c4b03a 	or	r2,r2,r3
   415e8:	1806d07a 	srli	r3,r3,1
   415ec:	280ad07a 	srli	r5,r5,1
   415f0:	183ffa1e 	bne	r3,zero,415dc <__alt_data_end+0xfffd95dc>
   415f4:	f800283a 	ret
   415f8:	0005883a 	mov	r2,zero
   415fc:	f800283a 	ret
   41600:	00c00044 	movi	r3,1
   41604:	003ff406 	br	415d8 <__alt_data_end+0xfffd95d8>

00041608 <__umodsi3>:
   41608:	2005883a 	mov	r2,r4
   4160c:	2900122e 	bgeu	r5,r4,41658 <__umodsi3+0x50>
   41610:	28001116 	blt	r5,zero,41658 <__umodsi3+0x50>
   41614:	01800804 	movi	r6,32
   41618:	00c00044 	movi	r3,1
   4161c:	00000206 	br	41628 <__umodsi3+0x20>
   41620:	30000c26 	beq	r6,zero,41654 <__umodsi3+0x4c>
   41624:	28000516 	blt	r5,zero,4163c <__umodsi3+0x34>
   41628:	294b883a 	add	r5,r5,r5
   4162c:	31bfffc4 	addi	r6,r6,-1
   41630:	18c7883a 	add	r3,r3,r3
   41634:	293ffa36 	bltu	r5,r4,41620 <__alt_data_end+0xfffd9620>
   41638:	18000626 	beq	r3,zero,41654 <__umodsi3+0x4c>
   4163c:	1806d07a 	srli	r3,r3,1
   41640:	11400136 	bltu	r2,r5,41648 <__umodsi3+0x40>
   41644:	1145c83a 	sub	r2,r2,r5
   41648:	280ad07a 	srli	r5,r5,1
   4164c:	183ffb1e 	bne	r3,zero,4163c <__alt_data_end+0xfffd963c>
   41650:	f800283a 	ret
   41654:	f800283a 	ret
   41658:	00c00044 	movi	r3,1
   4165c:	003ff706 	br	4163c <__alt_data_end+0xfffd963c>

00041660 <_printf_r>:
   41660:	defffd04 	addi	sp,sp,-12
   41664:	dfc00015 	stw	ra,0(sp)
   41668:	d9800115 	stw	r6,4(sp)
   4166c:	d9c00215 	stw	r7,8(sp)
   41670:	20c00217 	ldw	r3,8(r4)
   41674:	01800134 	movhi	r6,4
   41678:	31875104 	addi	r6,r6,7492
   4167c:	19800115 	stw	r6,4(r3)
   41680:	280d883a 	mov	r6,r5
   41684:	21400217 	ldw	r5,8(r4)
   41688:	d9c00104 	addi	r7,sp,4
   4168c:	00418040 	call	41804 <___vfprintf_internal_r>
   41690:	dfc00017 	ldw	ra,0(sp)
   41694:	dec00304 	addi	sp,sp,12
   41698:	f800283a 	ret

0004169c <printf>:
   4169c:	defffc04 	addi	sp,sp,-16
   416a0:	dfc00015 	stw	ra,0(sp)
   416a4:	d9400115 	stw	r5,4(sp)
   416a8:	d9800215 	stw	r6,8(sp)
   416ac:	d9c00315 	stw	r7,12(sp)
   416b0:	00800134 	movhi	r2,4
   416b4:	108e9604 	addi	r2,r2,14936
   416b8:	10800017 	ldw	r2,0(r2)
   416bc:	01400134 	movhi	r5,4
   416c0:	29475104 	addi	r5,r5,7492
   416c4:	10c00217 	ldw	r3,8(r2)
   416c8:	d9800104 	addi	r6,sp,4
   416cc:	19400115 	stw	r5,4(r3)
   416d0:	200b883a 	mov	r5,r4
   416d4:	11000217 	ldw	r4,8(r2)
   416d8:	0041d280 	call	41d28 <__vfprintf_internal>
   416dc:	dfc00017 	ldw	ra,0(sp)
   416e0:	dec00404 	addi	sp,sp,16
   416e4:	f800283a 	ret

000416e8 <_puts_r>:
   416e8:	defffd04 	addi	sp,sp,-12
   416ec:	dc000015 	stw	r16,0(sp)
   416f0:	2021883a 	mov	r16,r4
   416f4:	2809883a 	mov	r4,r5
   416f8:	dfc00215 	stw	ra,8(sp)
   416fc:	dc400115 	stw	r17,4(sp)
   41700:	2823883a 	mov	r17,r5
   41704:	004177c0 	call	4177c <strlen>
   41708:	81400217 	ldw	r5,8(r16)
   4170c:	01000134 	movhi	r4,4
   41710:	21075104 	addi	r4,r4,7492
   41714:	29000115 	stw	r4,4(r5)
   41718:	100f883a 	mov	r7,r2
   4171c:	880d883a 	mov	r6,r17
   41720:	8009883a 	mov	r4,r16
   41724:	0041d440 	call	41d44 <__sfvwrite_small_dev>
   41728:	00ffffc4 	movi	r3,-1
   4172c:	10c00926 	beq	r2,r3,41754 <_puts_r+0x6c>
   41730:	81400217 	ldw	r5,8(r16)
   41734:	01800134 	movhi	r6,4
   41738:	01c00044 	movi	r7,1
   4173c:	28800117 	ldw	r2,4(r5)
   41740:	318dd704 	addi	r6,r6,14172
   41744:	8009883a 	mov	r4,r16
   41748:	103ee83a 	callr	r2
   4174c:	10bfffe0 	cmpeqi	r2,r2,-1
   41750:	0085c83a 	sub	r2,zero,r2
   41754:	dfc00217 	ldw	ra,8(sp)
   41758:	dc400117 	ldw	r17,4(sp)
   4175c:	dc000017 	ldw	r16,0(sp)
   41760:	dec00304 	addi	sp,sp,12
   41764:	f800283a 	ret

00041768 <puts>:
   41768:	00800134 	movhi	r2,4
   4176c:	108e9604 	addi	r2,r2,14936
   41770:	200b883a 	mov	r5,r4
   41774:	11000017 	ldw	r4,0(r2)
   41778:	00416e81 	jmpi	416e8 <_puts_r>

0004177c <strlen>:
   4177c:	2005883a 	mov	r2,r4
   41780:	10c00007 	ldb	r3,0(r2)
   41784:	18000226 	beq	r3,zero,41790 <strlen+0x14>
   41788:	10800044 	addi	r2,r2,1
   4178c:	003ffc06 	br	41780 <__alt_data_end+0xfffd9780>
   41790:	1105c83a 	sub	r2,r2,r4
   41794:	f800283a 	ret

00041798 <print_repeat>:
   41798:	defffb04 	addi	sp,sp,-20
   4179c:	dc800315 	stw	r18,12(sp)
   417a0:	dc400215 	stw	r17,8(sp)
   417a4:	dc000115 	stw	r16,4(sp)
   417a8:	dfc00415 	stw	ra,16(sp)
   417ac:	2025883a 	mov	r18,r4
   417b0:	2823883a 	mov	r17,r5
   417b4:	d9800005 	stb	r6,0(sp)
   417b8:	3821883a 	mov	r16,r7
   417bc:	04000a0e 	bge	zero,r16,417e8 <print_repeat+0x50>
   417c0:	88800117 	ldw	r2,4(r17)
   417c4:	01c00044 	movi	r7,1
   417c8:	d80d883a 	mov	r6,sp
   417cc:	880b883a 	mov	r5,r17
   417d0:	9009883a 	mov	r4,r18
   417d4:	103ee83a 	callr	r2
   417d8:	843fffc4 	addi	r16,r16,-1
   417dc:	103ff726 	beq	r2,zero,417bc <__alt_data_end+0xfffd97bc>
   417e0:	00bfffc4 	movi	r2,-1
   417e4:	00000106 	br	417ec <print_repeat+0x54>
   417e8:	0005883a 	mov	r2,zero
   417ec:	dfc00417 	ldw	ra,16(sp)
   417f0:	dc800317 	ldw	r18,12(sp)
   417f4:	dc400217 	ldw	r17,8(sp)
   417f8:	dc000117 	ldw	r16,4(sp)
   417fc:	dec00504 	addi	sp,sp,20
   41800:	f800283a 	ret

00041804 <___vfprintf_internal_r>:
   41804:	deffe504 	addi	sp,sp,-108
   41808:	d8c00804 	addi	r3,sp,32
   4180c:	df001915 	stw	fp,100(sp)
   41810:	ddc01815 	stw	r23,96(sp)
   41814:	dd801715 	stw	r22,92(sp)
   41818:	dd401615 	stw	r21,88(sp)
   4181c:	dd001515 	stw	r20,84(sp)
   41820:	dcc01415 	stw	r19,80(sp)
   41824:	dc801315 	stw	r18,76(sp)
   41828:	dc401215 	stw	r17,72(sp)
   4182c:	dc001115 	stw	r16,68(sp)
   41830:	dfc01a15 	stw	ra,104(sp)
   41834:	2027883a 	mov	r19,r4
   41838:	2839883a 	mov	fp,r5
   4183c:	382d883a 	mov	r22,r7
   41840:	d9800f15 	stw	r6,60(sp)
   41844:	0021883a 	mov	r16,zero
   41848:	d8000e15 	stw	zero,56(sp)
   4184c:	002f883a 	mov	r23,zero
   41850:	002b883a 	mov	r21,zero
   41854:	0025883a 	mov	r18,zero
   41858:	0023883a 	mov	r17,zero
   4185c:	d8000c15 	stw	zero,48(sp)
   41860:	d8000b15 	stw	zero,44(sp)
   41864:	0029883a 	mov	r20,zero
   41868:	d8c00915 	stw	r3,36(sp)
   4186c:	d8c00f17 	ldw	r3,60(sp)
   41870:	19000003 	ldbu	r4,0(r3)
   41874:	20803fcc 	andi	r2,r4,255
   41878:	1080201c 	xori	r2,r2,128
   4187c:	10bfe004 	addi	r2,r2,-128
   41880:	10011c26 	beq	r2,zero,41cf4 <___vfprintf_internal_r+0x4f0>
   41884:	00c00044 	movi	r3,1
   41888:	a0c01426 	beq	r20,r3,418dc <___vfprintf_internal_r+0xd8>
   4188c:	1d000216 	blt	r3,r20,41898 <___vfprintf_internal_r+0x94>
   41890:	a0000626 	beq	r20,zero,418ac <___vfprintf_internal_r+0xa8>
   41894:	00011306 	br	41ce4 <___vfprintf_internal_r+0x4e0>
   41898:	01400084 	movi	r5,2
   4189c:	a1401d26 	beq	r20,r5,41914 <___vfprintf_internal_r+0x110>
   418a0:	014000c4 	movi	r5,3
   418a4:	a1402926 	beq	r20,r5,4194c <___vfprintf_internal_r+0x148>
   418a8:	00010e06 	br	41ce4 <___vfprintf_internal_r+0x4e0>
   418ac:	01400944 	movi	r5,37
   418b0:	1140fb26 	beq	r2,r5,41ca0 <___vfprintf_internal_r+0x49c>
   418b4:	e0800117 	ldw	r2,4(fp)
   418b8:	d9000005 	stb	r4,0(sp)
   418bc:	01c00044 	movi	r7,1
   418c0:	d80d883a 	mov	r6,sp
   418c4:	e00b883a 	mov	r5,fp
   418c8:	9809883a 	mov	r4,r19
   418cc:	103ee83a 	callr	r2
   418d0:	1000d61e 	bne	r2,zero,41c2c <___vfprintf_internal_r+0x428>
   418d4:	84000044 	addi	r16,r16,1
   418d8:	00010206 	br	41ce4 <___vfprintf_internal_r+0x4e0>
   418dc:	01400c04 	movi	r5,48
   418e0:	1140f826 	beq	r2,r5,41cc4 <___vfprintf_internal_r+0x4c0>
   418e4:	01400944 	movi	r5,37
   418e8:	11400a1e 	bne	r2,r5,41914 <___vfprintf_internal_r+0x110>
   418ec:	d8800005 	stb	r2,0(sp)
   418f0:	e0800117 	ldw	r2,4(fp)
   418f4:	a00f883a 	mov	r7,r20
   418f8:	d80d883a 	mov	r6,sp
   418fc:	e00b883a 	mov	r5,fp
   41900:	9809883a 	mov	r4,r19
   41904:	103ee83a 	callr	r2
   41908:	1000c81e 	bne	r2,zero,41c2c <___vfprintf_internal_r+0x428>
   4190c:	84000044 	addi	r16,r16,1
   41910:	0000f306 	br	41ce0 <___vfprintf_internal_r+0x4dc>
   41914:	217ff404 	addi	r5,r4,-48
   41918:	29403fcc 	andi	r5,r5,255
   4191c:	00c00244 	movi	r3,9
   41920:	19400736 	bltu	r3,r5,41940 <___vfprintf_internal_r+0x13c>
   41924:	00bfffc4 	movi	r2,-1
   41928:	88800226 	beq	r17,r2,41934 <___vfprintf_internal_r+0x130>
   4192c:	8c4002a4 	muli	r17,r17,10
   41930:	00000106 	br	41938 <___vfprintf_internal_r+0x134>
   41934:	0023883a 	mov	r17,zero
   41938:	2c63883a 	add	r17,r5,r17
   4193c:	0000e206 	br	41cc8 <___vfprintf_internal_r+0x4c4>
   41940:	01400b84 	movi	r5,46
   41944:	1140e426 	beq	r2,r5,41cd8 <___vfprintf_internal_r+0x4d4>
   41948:	05000084 	movi	r20,2
   4194c:	213ff404 	addi	r4,r4,-48
   41950:	21003fcc 	andi	r4,r4,255
   41954:	00c00244 	movi	r3,9
   41958:	19000736 	bltu	r3,r4,41978 <___vfprintf_internal_r+0x174>
   4195c:	00bfffc4 	movi	r2,-1
   41960:	90800226 	beq	r18,r2,4196c <___vfprintf_internal_r+0x168>
   41964:	948002a4 	muli	r18,r18,10
   41968:	00000106 	br	41970 <___vfprintf_internal_r+0x16c>
   4196c:	0025883a 	mov	r18,zero
   41970:	24a5883a 	add	r18,r4,r18
   41974:	0000db06 	br	41ce4 <___vfprintf_internal_r+0x4e0>
   41978:	00c01b04 	movi	r3,108
   4197c:	10c0d426 	beq	r2,r3,41cd0 <___vfprintf_internal_r+0x4cc>
   41980:	013fffc4 	movi	r4,-1
   41984:	91000226 	beq	r18,r4,41990 <___vfprintf_internal_r+0x18c>
   41988:	d8000b15 	stw	zero,44(sp)
   4198c:	00000106 	br	41994 <___vfprintf_internal_r+0x190>
   41990:	04800044 	movi	r18,1
   41994:	01001a44 	movi	r4,105
   41998:	11001626 	beq	r2,r4,419f4 <___vfprintf_internal_r+0x1f0>
   4199c:	20800916 	blt	r4,r2,419c4 <___vfprintf_internal_r+0x1c0>
   419a0:	010018c4 	movi	r4,99
   419a4:	11008a26 	beq	r2,r4,41bd0 <___vfprintf_internal_r+0x3cc>
   419a8:	01001904 	movi	r4,100
   419ac:	11001126 	beq	r2,r4,419f4 <___vfprintf_internal_r+0x1f0>
   419b0:	01001604 	movi	r4,88
   419b4:	1100ca1e 	bne	r2,r4,41ce0 <___vfprintf_internal_r+0x4dc>
   419b8:	00c00044 	movi	r3,1
   419bc:	d8c00e15 	stw	r3,56(sp)
   419c0:	00001406 	br	41a14 <___vfprintf_internal_r+0x210>
   419c4:	01001cc4 	movi	r4,115
   419c8:	11009a26 	beq	r2,r4,41c34 <___vfprintf_internal_r+0x430>
   419cc:	20800416 	blt	r4,r2,419e0 <___vfprintf_internal_r+0x1dc>
   419d0:	01001bc4 	movi	r4,111
   419d4:	1100c21e 	bne	r2,r4,41ce0 <___vfprintf_internal_r+0x4dc>
   419d8:	05400204 	movi	r21,8
   419dc:	00000e06 	br	41a18 <___vfprintf_internal_r+0x214>
   419e0:	01001d44 	movi	r4,117
   419e4:	11000c26 	beq	r2,r4,41a18 <___vfprintf_internal_r+0x214>
   419e8:	01001e04 	movi	r4,120
   419ec:	11000926 	beq	r2,r4,41a14 <___vfprintf_internal_r+0x210>
   419f0:	0000bb06 	br	41ce0 <___vfprintf_internal_r+0x4dc>
   419f4:	b5000104 	addi	r20,r22,4
   419f8:	b8000726 	beq	r23,zero,41a18 <___vfprintf_internal_r+0x214>
   419fc:	dd000d15 	stw	r20,52(sp)
   41a00:	b5800017 	ldw	r22,0(r22)
   41a04:	b000080e 	bge	r22,zero,41a28 <___vfprintf_internal_r+0x224>
   41a08:	05adc83a 	sub	r22,zero,r22
   41a0c:	02800044 	movi	r10,1
   41a10:	00000606 	br	41a2c <___vfprintf_internal_r+0x228>
   41a14:	05400404 	movi	r21,16
   41a18:	b0c00104 	addi	r3,r22,4
   41a1c:	d8c00d15 	stw	r3,52(sp)
   41a20:	b5800017 	ldw	r22,0(r22)
   41a24:	002f883a 	mov	r23,zero
   41a28:	0015883a 	mov	r10,zero
   41a2c:	d829883a 	mov	r20,sp
   41a30:	b0001426 	beq	r22,zero,41a84 <___vfprintf_internal_r+0x280>
   41a34:	b009883a 	mov	r4,r22
   41a38:	a80b883a 	mov	r5,r21
   41a3c:	da801015 	stw	r10,64(sp)
   41a40:	00415a40 	call	415a4 <__udivsi3>
   41a44:	1549383a 	mul	r4,r2,r21
   41a48:	00c00244 	movi	r3,9
   41a4c:	da801017 	ldw	r10,64(sp)
   41a50:	b12dc83a 	sub	r22,r22,r4
   41a54:	1d800216 	blt	r3,r22,41a60 <___vfprintf_internal_r+0x25c>
   41a58:	b5800c04 	addi	r22,r22,48
   41a5c:	00000506 	br	41a74 <___vfprintf_internal_r+0x270>
   41a60:	d8c00e17 	ldw	r3,56(sp)
   41a64:	18000226 	beq	r3,zero,41a70 <___vfprintf_internal_r+0x26c>
   41a68:	b5800dc4 	addi	r22,r22,55
   41a6c:	00000106 	br	41a74 <___vfprintf_internal_r+0x270>
   41a70:	b58015c4 	addi	r22,r22,87
   41a74:	a5800005 	stb	r22,0(r20)
   41a78:	a5000044 	addi	r20,r20,1
   41a7c:	102d883a 	mov	r22,r2
   41a80:	003feb06 	br	41a30 <__alt_data_end+0xfffd9a30>
   41a84:	a6c7c83a 	sub	r3,r20,sp
   41a88:	d8c00a15 	stw	r3,40(sp)
   41a8c:	90c5c83a 	sub	r2,r18,r3
   41a90:	00800a0e 	bge	zero,r2,41abc <___vfprintf_internal_r+0x2b8>
   41a94:	a085883a 	add	r2,r20,r2
   41a98:	01400c04 	movi	r5,48
   41a9c:	d8c00917 	ldw	r3,36(sp)
   41aa0:	a009883a 	mov	r4,r20
   41aa4:	a0c0032e 	bgeu	r20,r3,41ab4 <___vfprintf_internal_r+0x2b0>
   41aa8:	a5000044 	addi	r20,r20,1
   41aac:	21400005 	stb	r5,0(r4)
   41ab0:	a0bffa1e 	bne	r20,r2,41a9c <__alt_data_end+0xfffd9a9c>
   41ab4:	a6c7c83a 	sub	r3,r20,sp
   41ab8:	d8c00a15 	stw	r3,40(sp)
   41abc:	d8c00a17 	ldw	r3,40(sp)
   41ac0:	50d3883a 	add	r9,r10,r3
   41ac4:	d8c00b17 	ldw	r3,44(sp)
   41ac8:	8a6dc83a 	sub	r22,r17,r9
   41acc:	18001726 	beq	r3,zero,41b2c <___vfprintf_internal_r+0x328>
   41ad0:	50000a26 	beq	r10,zero,41afc <___vfprintf_internal_r+0x2f8>
   41ad4:	00800b44 	movi	r2,45
   41ad8:	d8800805 	stb	r2,32(sp)
   41adc:	e0800117 	ldw	r2,4(fp)
   41ae0:	01c00044 	movi	r7,1
   41ae4:	d9800804 	addi	r6,sp,32
   41ae8:	e00b883a 	mov	r5,fp
   41aec:	9809883a 	mov	r4,r19
   41af0:	103ee83a 	callr	r2
   41af4:	10004d1e 	bne	r2,zero,41c2c <___vfprintf_internal_r+0x428>
   41af8:	84000044 	addi	r16,r16,1
   41afc:	0580070e 	bge	zero,r22,41b1c <___vfprintf_internal_r+0x318>
   41b00:	b00f883a 	mov	r7,r22
   41b04:	01800c04 	movi	r6,48
   41b08:	e00b883a 	mov	r5,fp
   41b0c:	9809883a 	mov	r4,r19
   41b10:	00417980 	call	41798 <print_repeat>
   41b14:	1000451e 	bne	r2,zero,41c2c <___vfprintf_internal_r+0x428>
   41b18:	85a1883a 	add	r16,r16,r22
   41b1c:	d8c00a17 	ldw	r3,40(sp)
   41b20:	a013883a 	mov	r9,r20
   41b24:	1d2dc83a 	sub	r22,r3,r20
   41b28:	00002206 	br	41bb4 <___vfprintf_internal_r+0x3b0>
   41b2c:	0580090e 	bge	zero,r22,41b54 <___vfprintf_internal_r+0x350>
   41b30:	b00f883a 	mov	r7,r22
   41b34:	01800804 	movi	r6,32
   41b38:	e00b883a 	mov	r5,fp
   41b3c:	9809883a 	mov	r4,r19
   41b40:	da801015 	stw	r10,64(sp)
   41b44:	00417980 	call	41798 <print_repeat>
   41b48:	da801017 	ldw	r10,64(sp)
   41b4c:	1000371e 	bne	r2,zero,41c2c <___vfprintf_internal_r+0x428>
   41b50:	85a1883a 	add	r16,r16,r22
   41b54:	503ff126 	beq	r10,zero,41b1c <__alt_data_end+0xfffd9b1c>
   41b58:	00800b44 	movi	r2,45
   41b5c:	d8800805 	stb	r2,32(sp)
   41b60:	e0800117 	ldw	r2,4(fp)
   41b64:	01c00044 	movi	r7,1
   41b68:	d9800804 	addi	r6,sp,32
   41b6c:	e00b883a 	mov	r5,fp
   41b70:	9809883a 	mov	r4,r19
   41b74:	103ee83a 	callr	r2
   41b78:	10002c1e 	bne	r2,zero,41c2c <___vfprintf_internal_r+0x428>
   41b7c:	84000044 	addi	r16,r16,1
   41b80:	003fe606 	br	41b1c <__alt_data_end+0xfffd9b1c>
   41b84:	4a7fffc4 	addi	r9,r9,-1
   41b88:	48800003 	ldbu	r2,0(r9)
   41b8c:	01c00044 	movi	r7,1
   41b90:	d9800804 	addi	r6,sp,32
   41b94:	d8800805 	stb	r2,32(sp)
   41b98:	e0800117 	ldw	r2,4(fp)
   41b9c:	e00b883a 	mov	r5,fp
   41ba0:	da401015 	stw	r9,64(sp)
   41ba4:	9809883a 	mov	r4,r19
   41ba8:	103ee83a 	callr	r2
   41bac:	da401017 	ldw	r9,64(sp)
   41bb0:	10001e1e 	bne	r2,zero,41c2c <___vfprintf_internal_r+0x428>
   41bb4:	8245c83a 	sub	r2,r16,r9
   41bb8:	4d89883a 	add	r4,r9,r22
   41bbc:	a085883a 	add	r2,r20,r2
   41bc0:	013ff016 	blt	zero,r4,41b84 <__alt_data_end+0xfffd9b84>
   41bc4:	1021883a 	mov	r16,r2
   41bc8:	dd800d17 	ldw	r22,52(sp)
   41bcc:	00004406 	br	41ce0 <___vfprintf_internal_r+0x4dc>
   41bd0:	00800044 	movi	r2,1
   41bd4:	1440080e 	bge	r2,r17,41bf8 <___vfprintf_internal_r+0x3f4>
   41bd8:	8d3fffc4 	addi	r20,r17,-1
   41bdc:	a00f883a 	mov	r7,r20
   41be0:	01800804 	movi	r6,32
   41be4:	e00b883a 	mov	r5,fp
   41be8:	9809883a 	mov	r4,r19
   41bec:	00417980 	call	41798 <print_repeat>
   41bf0:	10000e1e 	bne	r2,zero,41c2c <___vfprintf_internal_r+0x428>
   41bf4:	8521883a 	add	r16,r16,r20
   41bf8:	b0800017 	ldw	r2,0(r22)
   41bfc:	01c00044 	movi	r7,1
   41c00:	d80d883a 	mov	r6,sp
   41c04:	d8800005 	stb	r2,0(sp)
   41c08:	e0800117 	ldw	r2,4(fp)
   41c0c:	e00b883a 	mov	r5,fp
   41c10:	9809883a 	mov	r4,r19
   41c14:	b5000104 	addi	r20,r22,4
   41c18:	103ee83a 	callr	r2
   41c1c:	1000031e 	bne	r2,zero,41c2c <___vfprintf_internal_r+0x428>
   41c20:	84000044 	addi	r16,r16,1
   41c24:	a02d883a 	mov	r22,r20
   41c28:	00002d06 	br	41ce0 <___vfprintf_internal_r+0x4dc>
   41c2c:	00bfffc4 	movi	r2,-1
   41c30:	00003106 	br	41cf8 <___vfprintf_internal_r+0x4f4>
   41c34:	b5000017 	ldw	r20,0(r22)
   41c38:	b0c00104 	addi	r3,r22,4
   41c3c:	d8c00a15 	stw	r3,40(sp)
   41c40:	a009883a 	mov	r4,r20
   41c44:	004177c0 	call	4177c <strlen>
   41c48:	8893c83a 	sub	r9,r17,r2
   41c4c:	102d883a 	mov	r22,r2
   41c50:	0240090e 	bge	zero,r9,41c78 <___vfprintf_internal_r+0x474>
   41c54:	480f883a 	mov	r7,r9
   41c58:	01800804 	movi	r6,32
   41c5c:	e00b883a 	mov	r5,fp
   41c60:	9809883a 	mov	r4,r19
   41c64:	da401015 	stw	r9,64(sp)
   41c68:	00417980 	call	41798 <print_repeat>
   41c6c:	da401017 	ldw	r9,64(sp)
   41c70:	103fee1e 	bne	r2,zero,41c2c <__alt_data_end+0xfffd9c2c>
   41c74:	8261883a 	add	r16,r16,r9
   41c78:	e0800117 	ldw	r2,4(fp)
   41c7c:	b00f883a 	mov	r7,r22
   41c80:	a00d883a 	mov	r6,r20
   41c84:	e00b883a 	mov	r5,fp
   41c88:	9809883a 	mov	r4,r19
   41c8c:	103ee83a 	callr	r2
   41c90:	103fe61e 	bne	r2,zero,41c2c <__alt_data_end+0xfffd9c2c>
   41c94:	85a1883a 	add	r16,r16,r22
   41c98:	dd800a17 	ldw	r22,40(sp)
   41c9c:	00001006 	br	41ce0 <___vfprintf_internal_r+0x4dc>
   41ca0:	05c00044 	movi	r23,1
   41ca4:	04bfffc4 	movi	r18,-1
   41ca8:	d8000e15 	stw	zero,56(sp)
   41cac:	05400284 	movi	r21,10
   41cb0:	9023883a 	mov	r17,r18
   41cb4:	d8000c15 	stw	zero,48(sp)
   41cb8:	d8000b15 	stw	zero,44(sp)
   41cbc:	b829883a 	mov	r20,r23
   41cc0:	00000806 	br	41ce4 <___vfprintf_internal_r+0x4e0>
   41cc4:	dd000b15 	stw	r20,44(sp)
   41cc8:	05000084 	movi	r20,2
   41ccc:	00000506 	br	41ce4 <___vfprintf_internal_r+0x4e0>
   41cd0:	00c00044 	movi	r3,1
   41cd4:	d8c00c15 	stw	r3,48(sp)
   41cd8:	050000c4 	movi	r20,3
   41cdc:	00000106 	br	41ce4 <___vfprintf_internal_r+0x4e0>
   41ce0:	0029883a 	mov	r20,zero
   41ce4:	d8c00f17 	ldw	r3,60(sp)
   41ce8:	18c00044 	addi	r3,r3,1
   41cec:	d8c00f15 	stw	r3,60(sp)
   41cf0:	003ede06 	br	4186c <__alt_data_end+0xfffd986c>
   41cf4:	8005883a 	mov	r2,r16
   41cf8:	dfc01a17 	ldw	ra,104(sp)
   41cfc:	df001917 	ldw	fp,100(sp)
   41d00:	ddc01817 	ldw	r23,96(sp)
   41d04:	dd801717 	ldw	r22,92(sp)
   41d08:	dd401617 	ldw	r21,88(sp)
   41d0c:	dd001517 	ldw	r20,84(sp)
   41d10:	dcc01417 	ldw	r19,80(sp)
   41d14:	dc801317 	ldw	r18,76(sp)
   41d18:	dc401217 	ldw	r17,72(sp)
   41d1c:	dc001117 	ldw	r16,68(sp)
   41d20:	dec01b04 	addi	sp,sp,108
   41d24:	f800283a 	ret

00041d28 <__vfprintf_internal>:
   41d28:	00800134 	movhi	r2,4
   41d2c:	108e9604 	addi	r2,r2,14936
   41d30:	300f883a 	mov	r7,r6
   41d34:	280d883a 	mov	r6,r5
   41d38:	200b883a 	mov	r5,r4
   41d3c:	11000017 	ldw	r4,0(r2)
   41d40:	00418041 	jmpi	41804 <___vfprintf_internal_r>

00041d44 <__sfvwrite_small_dev>:
   41d44:	2880000b 	ldhu	r2,0(r5)
   41d48:	1080020c 	andi	r2,r2,8
   41d4c:	10002126 	beq	r2,zero,41dd4 <__sfvwrite_small_dev+0x90>
   41d50:	2880008f 	ldh	r2,2(r5)
   41d54:	defffa04 	addi	sp,sp,-24
   41d58:	dc000015 	stw	r16,0(sp)
   41d5c:	dfc00515 	stw	ra,20(sp)
   41d60:	dd000415 	stw	r20,16(sp)
   41d64:	dcc00315 	stw	r19,12(sp)
   41d68:	dc800215 	stw	r18,8(sp)
   41d6c:	dc400115 	stw	r17,4(sp)
   41d70:	2821883a 	mov	r16,r5
   41d74:	10001216 	blt	r2,zero,41dc0 <__sfvwrite_small_dev+0x7c>
   41d78:	2027883a 	mov	r19,r4
   41d7c:	3025883a 	mov	r18,r6
   41d80:	3823883a 	mov	r17,r7
   41d84:	05010004 	movi	r20,1024
   41d88:	04400b0e 	bge	zero,r17,41db8 <__sfvwrite_small_dev+0x74>
   41d8c:	880f883a 	mov	r7,r17
   41d90:	a440010e 	bge	r20,r17,41d98 <__sfvwrite_small_dev+0x54>
   41d94:	01c10004 	movi	r7,1024
   41d98:	8140008f 	ldh	r5,2(r16)
   41d9c:	900d883a 	mov	r6,r18
   41da0:	9809883a 	mov	r4,r19
   41da4:	0041dfc0 	call	41dfc <_write_r>
   41da8:	0080050e 	bge	zero,r2,41dc0 <__sfvwrite_small_dev+0x7c>
   41dac:	88a3c83a 	sub	r17,r17,r2
   41db0:	90a5883a 	add	r18,r18,r2
   41db4:	003ff406 	br	41d88 <__alt_data_end+0xfffd9d88>
   41db8:	0005883a 	mov	r2,zero
   41dbc:	00000706 	br	41ddc <__sfvwrite_small_dev+0x98>
   41dc0:	8080000b 	ldhu	r2,0(r16)
   41dc4:	10801014 	ori	r2,r2,64
   41dc8:	8080000d 	sth	r2,0(r16)
   41dcc:	00bfffc4 	movi	r2,-1
   41dd0:	00000206 	br	41ddc <__sfvwrite_small_dev+0x98>
   41dd4:	00bfffc4 	movi	r2,-1
   41dd8:	f800283a 	ret
   41ddc:	dfc00517 	ldw	ra,20(sp)
   41de0:	dd000417 	ldw	r20,16(sp)
   41de4:	dcc00317 	ldw	r19,12(sp)
   41de8:	dc800217 	ldw	r18,8(sp)
   41dec:	dc400117 	ldw	r17,4(sp)
   41df0:	dc000017 	ldw	r16,0(sp)
   41df4:	dec00604 	addi	sp,sp,24
   41df8:	f800283a 	ret

00041dfc <_write_r>:
   41dfc:	defffd04 	addi	sp,sp,-12
   41e00:	dc000015 	stw	r16,0(sp)
   41e04:	04000134 	movhi	r16,4
   41e08:	dc400115 	stw	r17,4(sp)
   41e0c:	840f6004 	addi	r16,r16,15744
   41e10:	2023883a 	mov	r17,r4
   41e14:	2809883a 	mov	r4,r5
   41e18:	300b883a 	mov	r5,r6
   41e1c:	380d883a 	mov	r6,r7
   41e20:	dfc00215 	stw	ra,8(sp)
   41e24:	80000015 	stw	zero,0(r16)
   41e28:	00422880 	call	42288 <write>
   41e2c:	00ffffc4 	movi	r3,-1
   41e30:	10c0031e 	bne	r2,r3,41e40 <_write_r+0x44>
   41e34:	80c00017 	ldw	r3,0(r16)
   41e38:	18000126 	beq	r3,zero,41e40 <_write_r+0x44>
   41e3c:	88c00015 	stw	r3,0(r17)
   41e40:	dfc00217 	ldw	ra,8(sp)
   41e44:	dc400117 	ldw	r17,4(sp)
   41e48:	dc000017 	ldw	r16,0(sp)
   41e4c:	dec00304 	addi	sp,sp,12
   41e50:	f800283a 	ret

00041e54 <alt_ic_isr_register>:
  * @param irq              IRQ number
  * @return                 0 if successful, else error (-1)
  */
int alt_ic_isr_register(alt_u32 ic_id, alt_u32 irq, alt_isr_func isr, 
  void *isr_context, void *flags)
{
   41e54:	defff904 	addi	sp,sp,-28
   41e58:	dfc00615 	stw	ra,24(sp)
   41e5c:	df000515 	stw	fp,20(sp)
   41e60:	df000504 	addi	fp,sp,20
   41e64:	e13ffc15 	stw	r4,-16(fp)
   41e68:	e17ffd15 	stw	r5,-12(fp)
   41e6c:	e1bffe15 	stw	r6,-8(fp)
   41e70:	e1ffff15 	stw	r7,-4(fp)
    return alt_iic_isr_register(ic_id, irq, isr, isr_context, flags);
   41e74:	e0800217 	ldw	r2,8(fp)
   41e78:	d8800015 	stw	r2,0(sp)
   41e7c:	e1ffff17 	ldw	r7,-4(fp)
   41e80:	e1bffe17 	ldw	r6,-8(fp)
   41e84:	e17ffd17 	ldw	r5,-12(fp)
   41e88:	e13ffc17 	ldw	r4,-16(fp)
   41e8c:	00420040 	call	42004 <alt_iic_isr_register>
}  
   41e90:	e037883a 	mov	sp,fp
   41e94:	dfc00117 	ldw	ra,4(sp)
   41e98:	df000017 	ldw	fp,0(sp)
   41e9c:	dec00204 	addi	sp,sp,8
   41ea0:	f800283a 	ret

00041ea4 <alt_ic_irq_enable>:
  * @param ic_id            Ignored.
  * @param irq              IRQ number
  * @return                 0 if successful, else error (-1)
  */
int alt_ic_irq_enable (alt_u32 ic_id, alt_u32 irq)
{
   41ea4:	defff904 	addi	sp,sp,-28
   41ea8:	df000615 	stw	fp,24(sp)
   41eac:	df000604 	addi	fp,sp,24
   41eb0:	e13ffe15 	stw	r4,-8(fp)
   41eb4:	e17fff15 	stw	r5,-4(fp)
   41eb8:	e0bfff17 	ldw	r2,-4(fp)
   41ebc:	e0bffa15 	stw	r2,-24(fp)
static ALT_INLINE alt_irq_context ALT_ALWAYS_INLINE 
       alt_irq_disable_all (void)
{
  alt_irq_context context;

  NIOS2_READ_STATUS (context);
   41ec0:	0005303a 	rdctl	r2,status
   41ec4:	e0bffb15 	stw	r2,-20(fp)

  NIOS2_WRITE_STATUS (context & ~NIOS2_STATUS_PIE_MSK);
   41ec8:	e0fffb17 	ldw	r3,-20(fp)
   41ecc:	00bfff84 	movi	r2,-2
   41ed0:	1884703a 	and	r2,r3,r2
   41ed4:	1001703a 	wrctl	status,r2
  
  return context;
   41ed8:	e0bffb17 	ldw	r2,-20(fp)
static ALT_INLINE int ALT_ALWAYS_INLINE alt_irq_enable (alt_u32 id)
{
  alt_irq_context  status;
  extern volatile alt_u32 alt_irq_active;

  status = alt_irq_disable_all ();
   41edc:	e0bffc15 	stw	r2,-16(fp)

  alt_irq_active |= (1 << id);
   41ee0:	00c00044 	movi	r3,1
   41ee4:	e0bffa17 	ldw	r2,-24(fp)
   41ee8:	1884983a 	sll	r2,r3,r2
   41eec:	1007883a 	mov	r3,r2
   41ef0:	d0a0cf17 	ldw	r2,-31940(gp)
   41ef4:	1884b03a 	or	r2,r3,r2
   41ef8:	d0a0cf15 	stw	r2,-31940(gp)
  NIOS2_WRITE_IENABLE (alt_irq_active);
   41efc:	d0a0cf17 	ldw	r2,-31940(gp)
   41f00:	100170fa 	wrctl	ienable,r2
   41f04:	e0bffc17 	ldw	r2,-16(fp)
   41f08:	e0bffd15 	stw	r2,-12(fp)
  status &= ~NIOS2_STATUS_PIE_MSK;
  status |= (context & NIOS2_STATUS_PIE_MSK);
  
  NIOS2_WRITE_STATUS (status);
#else
  NIOS2_WRITE_STATUS (context);
   41f0c:	e0bffd17 	ldw	r2,-12(fp)
   41f10:	1001703a 	wrctl	status,r2

  alt_irq_enable_all(status);

  return 0;
   41f14:	0005883a 	mov	r2,zero
    return alt_irq_enable(irq);
   41f18:	0001883a 	nop
}
   41f1c:	e037883a 	mov	sp,fp
   41f20:	df000017 	ldw	fp,0(sp)
   41f24:	dec00104 	addi	sp,sp,4
   41f28:	f800283a 	ret

00041f2c <alt_ic_irq_disable>:
  * @param ic_id            Ignored.
  * @param irq              IRQ number
  * @return                 0 if successful, else error (-1)
  */
int alt_ic_irq_disable(alt_u32 ic_id, alt_u32 irq)
{
   41f2c:	defff904 	addi	sp,sp,-28
   41f30:	df000615 	stw	fp,24(sp)
   41f34:	df000604 	addi	fp,sp,24
   41f38:	e13ffe15 	stw	r4,-8(fp)
   41f3c:	e17fff15 	stw	r5,-4(fp)
   41f40:	e0bfff17 	ldw	r2,-4(fp)
   41f44:	e0bffa15 	stw	r2,-24(fp)
static ALT_INLINE alt_irq_context ALT_ALWAYS_INLINE 
       alt_irq_disable_all (void)
{
  alt_irq_context context;

  NIOS2_READ_STATUS (context);
   41f48:	0005303a 	rdctl	r2,status
   41f4c:	e0bffb15 	stw	r2,-20(fp)

  NIOS2_WRITE_STATUS (context & ~NIOS2_STATUS_PIE_MSK);
   41f50:	e0fffb17 	ldw	r3,-20(fp)
   41f54:	00bfff84 	movi	r2,-2
   41f58:	1884703a 	and	r2,r3,r2
   41f5c:	1001703a 	wrctl	status,r2
  
  return context;
   41f60:	e0bffb17 	ldw	r2,-20(fp)
static ALT_INLINE int ALT_ALWAYS_INLINE alt_irq_disable (alt_u32 id)
{
  alt_irq_context  status;
  extern volatile alt_u32 alt_irq_active;

  status = alt_irq_disable_all ();
   41f64:	e0bffc15 	stw	r2,-16(fp)

  alt_irq_active &= ~(1 << id);
   41f68:	00c00044 	movi	r3,1
   41f6c:	e0bffa17 	ldw	r2,-24(fp)
   41f70:	1884983a 	sll	r2,r3,r2
   41f74:	0084303a 	nor	r2,zero,r2
   41f78:	1007883a 	mov	r3,r2
   41f7c:	d0a0cf17 	ldw	r2,-31940(gp)
   41f80:	1884703a 	and	r2,r3,r2
   41f84:	d0a0cf15 	stw	r2,-31940(gp)
  NIOS2_WRITE_IENABLE (alt_irq_active);
   41f88:	d0a0cf17 	ldw	r2,-31940(gp)
   41f8c:	100170fa 	wrctl	ienable,r2
   41f90:	e0bffc17 	ldw	r2,-16(fp)
   41f94:	e0bffd15 	stw	r2,-12(fp)
  status &= ~NIOS2_STATUS_PIE_MSK;
  status |= (context & NIOS2_STATUS_PIE_MSK);
  
  NIOS2_WRITE_STATUS (status);
#else
  NIOS2_WRITE_STATUS (context);
   41f98:	e0bffd17 	ldw	r2,-12(fp)
   41f9c:	1001703a 	wrctl	status,r2

  alt_irq_enable_all(status);

  return 0;
   41fa0:	0005883a 	mov	r2,zero
    return alt_irq_disable(irq);
   41fa4:	0001883a 	nop
}
   41fa8:	e037883a 	mov	sp,fp
   41fac:	df000017 	ldw	fp,0(sp)
   41fb0:	dec00104 	addi	sp,sp,4
   41fb4:	f800283a 	ret

00041fb8 <alt_ic_irq_enabled>:
  * @param irq              IRQ number
  * @return                 Zero if corresponding interrupt is disabled and
  *                         non-zero otherwise.
  */
alt_u32 alt_ic_irq_enabled(alt_u32 ic_id, alt_u32 irq)
{
   41fb8:	defffc04 	addi	sp,sp,-16
   41fbc:	df000315 	stw	fp,12(sp)
   41fc0:	df000304 	addi	fp,sp,12
   41fc4:	e13ffe15 	stw	r4,-8(fp)
   41fc8:	e17fff15 	stw	r5,-4(fp)
    alt_u32 irq_enabled;

    NIOS2_READ_IENABLE(irq_enabled);
   41fcc:	000530fa 	rdctl	r2,ienable
   41fd0:	e0bffd15 	stw	r2,-12(fp)

    return (irq_enabled & (1 << irq)) ? 1: 0;
   41fd4:	00c00044 	movi	r3,1
   41fd8:	e0bfff17 	ldw	r2,-4(fp)
   41fdc:	1884983a 	sll	r2,r3,r2
   41fe0:	1007883a 	mov	r3,r2
   41fe4:	e0bffd17 	ldw	r2,-12(fp)
   41fe8:	1884703a 	and	r2,r3,r2
   41fec:	1004c03a 	cmpne	r2,r2,zero
   41ff0:	10803fcc 	andi	r2,r2,255
}
   41ff4:	e037883a 	mov	sp,fp
   41ff8:	df000017 	ldw	fp,0(sp)
   41ffc:	dec00104 	addi	sp,sp,4
   42000:	f800283a 	ret

00042004 <alt_iic_isr_register>:
  * @param flags            
  * @return                 0 if successful, else error (-1)
  */
int alt_iic_isr_register(alt_u32 ic_id, alt_u32 irq, alt_isr_func isr, 
  void *isr_context, void *flags)
{
   42004:	defff504 	addi	sp,sp,-44
   42008:	dfc00a15 	stw	ra,40(sp)
   4200c:	df000915 	stw	fp,36(sp)
   42010:	df000904 	addi	fp,sp,36
   42014:	e13ffc15 	stw	r4,-16(fp)
   42018:	e17ffd15 	stw	r5,-12(fp)
   4201c:	e1bffe15 	stw	r6,-8(fp)
   42020:	e1ffff15 	stw	r7,-4(fp)
  int rc = -EINVAL;  
   42024:	00bffa84 	movi	r2,-22
   42028:	e0bff715 	stw	r2,-36(fp)
  int id = irq;             /* IRQ interpreted as the interrupt ID. */
   4202c:	e0bffd17 	ldw	r2,-12(fp)
   42030:	e0bff815 	stw	r2,-32(fp)
  alt_irq_context status;

  if (id < ALT_NIRQ)
   42034:	e0bff817 	ldw	r2,-32(fp)
   42038:	10800808 	cmpgei	r2,r2,32
   4203c:	1000271e 	bne	r2,zero,420dc <alt_iic_isr_register+0xd8>
static ALT_INLINE alt_irq_context ALT_ALWAYS_INLINE 
       alt_irq_disable_all (void)
{
  alt_irq_context context;

  NIOS2_READ_STATUS (context);
   42040:	0005303a 	rdctl	r2,status
   42044:	e0bffb15 	stw	r2,-20(fp)

  NIOS2_WRITE_STATUS (context & ~NIOS2_STATUS_PIE_MSK);
   42048:	e0fffb17 	ldw	r3,-20(fp)
   4204c:	00bfff84 	movi	r2,-2
   42050:	1884703a 	and	r2,r3,r2
   42054:	1001703a 	wrctl	status,r2
  
  return context;
   42058:	e0bffb17 	ldw	r2,-20(fp)
     * interrupts are disabled while the handler tables are updated to ensure
     * that an interrupt doesn't occur while the tables are in an inconsistant
     * state.
     */

    status = alt_irq_disable_all();
   4205c:	e0bffa15 	stw	r2,-24(fp)

    alt_irq[id].handler = isr;
   42060:	00800134 	movhi	r2,4
   42064:	108f6804 	addi	r2,r2,15776
   42068:	e0fff817 	ldw	r3,-32(fp)
   4206c:	180690fa 	slli	r3,r3,3
   42070:	10c5883a 	add	r2,r2,r3
   42074:	e0fffe17 	ldw	r3,-8(fp)
   42078:	10c00015 	stw	r3,0(r2)
    alt_irq[id].context = isr_context;
   4207c:	00800134 	movhi	r2,4
   42080:	108f6804 	addi	r2,r2,15776
   42084:	e0fff817 	ldw	r3,-32(fp)
   42088:	180690fa 	slli	r3,r3,3
   4208c:	10c5883a 	add	r2,r2,r3
   42090:	10800104 	addi	r2,r2,4
   42094:	e0ffff17 	ldw	r3,-4(fp)
   42098:	10c00015 	stw	r3,0(r2)

    rc = (isr) ? alt_ic_irq_enable(ic_id, id) : alt_ic_irq_disable(ic_id, id);
   4209c:	e0bffe17 	ldw	r2,-8(fp)
   420a0:	10000526 	beq	r2,zero,420b8 <alt_iic_isr_register+0xb4>
   420a4:	e0bff817 	ldw	r2,-32(fp)
   420a8:	100b883a 	mov	r5,r2
   420ac:	e13ffc17 	ldw	r4,-16(fp)
   420b0:	0041ea40 	call	41ea4 <alt_ic_irq_enable>
   420b4:	00000406 	br	420c8 <alt_iic_isr_register+0xc4>
   420b8:	e0bff817 	ldw	r2,-32(fp)
   420bc:	100b883a 	mov	r5,r2
   420c0:	e13ffc17 	ldw	r4,-16(fp)
   420c4:	0041f2c0 	call	41f2c <alt_ic_irq_disable>
   420c8:	e0bff715 	stw	r2,-36(fp)
   420cc:	e0bffa17 	ldw	r2,-24(fp)
   420d0:	e0bff915 	stw	r2,-28(fp)
  status &= ~NIOS2_STATUS_PIE_MSK;
  status |= (context & NIOS2_STATUS_PIE_MSK);
  
  NIOS2_WRITE_STATUS (status);
#else
  NIOS2_WRITE_STATUS (context);
   420d4:	e0bff917 	ldw	r2,-28(fp)
   420d8:	1001703a 	wrctl	status,r2

    alt_irq_enable_all(status);
  }

  return rc; 
   420dc:	e0bff717 	ldw	r2,-36(fp)
}
   420e0:	e037883a 	mov	sp,fp
   420e4:	dfc00117 	ldw	ra,4(sp)
   420e8:	df000017 	ldw	fp,0(sp)
   420ec:	dec00204 	addi	sp,sp,8
   420f0:	f800283a 	ret

000420f4 <alt_load_section>:
 */

static void ALT_INLINE alt_load_section (alt_u32* from, 
                                         alt_u32* to, 
                                         alt_u32* end)
{
   420f4:	defffc04 	addi	sp,sp,-16
   420f8:	df000315 	stw	fp,12(sp)
   420fc:	df000304 	addi	fp,sp,12
   42100:	e13ffd15 	stw	r4,-12(fp)
   42104:	e17ffe15 	stw	r5,-8(fp)
   42108:	e1bfff15 	stw	r6,-4(fp)
  if (to != from)
   4210c:	e0fffe17 	ldw	r3,-8(fp)
   42110:	e0bffd17 	ldw	r2,-12(fp)
   42114:	18800c26 	beq	r3,r2,42148 <alt_load_section+0x54>
  {
    while( to != end )
   42118:	00000806 	br	4213c <alt_load_section+0x48>
    {
      *to++ = *from++;
   4211c:	e0bffe17 	ldw	r2,-8(fp)
   42120:	10c00104 	addi	r3,r2,4
   42124:	e0fffe15 	stw	r3,-8(fp)
   42128:	e0fffd17 	ldw	r3,-12(fp)
   4212c:	19000104 	addi	r4,r3,4
   42130:	e13ffd15 	stw	r4,-12(fp)
   42134:	18c00017 	ldw	r3,0(r3)
   42138:	10c00015 	stw	r3,0(r2)
                                         alt_u32* to, 
                                         alt_u32* end)
{
  if (to != from)
  {
    while( to != end )
   4213c:	e0fffe17 	ldw	r3,-8(fp)
   42140:	e0bfff17 	ldw	r2,-4(fp)
   42144:	18bff51e 	bne	r3,r2,4211c <__alt_data_end+0xfffda11c>
    {
      *to++ = *from++;
    }
  }
}
   42148:	0001883a 	nop
   4214c:	e037883a 	mov	sp,fp
   42150:	df000017 	ldw	fp,0(sp)
   42154:	dec00104 	addi	sp,sp,4
   42158:	f800283a 	ret

0004215c <alt_load>:
 * there is no bootloader, so this application is responsible for loading to
 * RAM any sections that are required.
 */  

void alt_load (void)
{
   4215c:	defffe04 	addi	sp,sp,-8
   42160:	dfc00115 	stw	ra,4(sp)
   42164:	df000015 	stw	fp,0(sp)
   42168:	d839883a 	mov	fp,sp
  /* 
   * Copy the .rwdata section. 
   */

  alt_load_section (&__flash_rwdata_start, 
   4216c:	01800134 	movhi	r6,4
   42170:	318ea004 	addi	r6,r6,14976
   42174:	01400134 	movhi	r5,4
   42178:	294de504 	addi	r5,r5,14228
   4217c:	01000134 	movhi	r4,4
   42180:	210ea004 	addi	r4,r4,14976
   42184:	00420f40 	call	420f4 <alt_load_section>

  /*
   * Copy the exception handler.
   */

  alt_load_section (&__flash_exceptions_start, 
   42188:	01800134 	movhi	r6,4
   4218c:	31809104 	addi	r6,r6,580
   42190:	01400134 	movhi	r5,4
   42194:	29400804 	addi	r5,r5,32
   42198:	01000134 	movhi	r4,4
   4219c:	21000804 	addi	r4,r4,32
   421a0:	00420f40 	call	420f4 <alt_load_section>

  /*
   * Copy the .rodata section.
   */

  alt_load_section (&__flash_rodata_start, 
   421a4:	01800134 	movhi	r6,4
   421a8:	318de504 	addi	r6,r6,14228
   421ac:	01400134 	movhi	r5,4
   421b0:	294d4604 	addi	r5,r5,13592
   421b4:	01000134 	movhi	r4,4
   421b8:	210d4604 	addi	r4,r4,13592
   421bc:	00420f40 	call	420f4 <alt_load_section>
  
  /*
   * Now ensure that the caches are in synch.
   */
  
  alt_dcache_flush_all();
   421c0:	004287c0 	call	4287c <alt_dcache_flush_all>
  alt_icache_flush_all();
   421c4:	00429a80 	call	429a8 <alt_icache_flush_all>
}
   421c8:	0001883a 	nop
   421cc:	e037883a 	mov	sp,fp
   421d0:	dfc00117 	ldw	ra,4(sp)
   421d4:	df000017 	ldw	fp,0(sp)
   421d8:	dec00204 	addi	sp,sp,8
   421dc:	f800283a 	ret

000421e0 <alt_main>:
 * devices/filesystems/components in the system; and call the entry point for
 * the users application, i.e. main().
 */

void alt_main (void)
{
   421e0:	defffd04 	addi	sp,sp,-12
   421e4:	dfc00215 	stw	ra,8(sp)
   421e8:	df000115 	stw	fp,4(sp)
   421ec:	df000104 	addi	fp,sp,4
#endif

  /* ALT LOG - please see HAL/sys/alt_log_printf.h for details */
  ALT_LOG_PRINT_BOOT("[alt_main.c] Entering alt_main, calling alt_irq_init.\r\n");
  /* Initialize the interrupt controller. */
  alt_irq_init (NULL);
   421f0:	0009883a 	mov	r4,zero
   421f4:	00423b40 	call	423b4 <alt_irq_init>

  /* Initialize the operating system */
  ALT_LOG_PRINT_BOOT("[alt_main.c] Done alt_irq_init, calling alt_os_init.\r\n");
  ALT_OS_INIT();
   421f8:	0001883a 	nop
  ALT_LOG_PRINT_BOOT("[alt_main.c] Done OS Init, calling alt_sem_create.\r\n");
  ALT_SEM_CREATE (&alt_fd_list_lock, 1);

  /* Initialize the device drivers/software components. */
  ALT_LOG_PRINT_BOOT("[alt_main.c] Calling alt_sys_init.\r\n");
  alt_sys_init();
   421fc:	00423ec0 	call	423ec <alt_sys_init>
   * devices be present (not equal to /dev/null) and if direct drivers
   * aren't being used.
   */

    ALT_LOG_PRINT_BOOT("[alt_main.c] Redirecting IO.\r\n");
    alt_io_redirect(ALT_STDOUT, ALT_STDIN, ALT_STDERR);
   42200:	01800134 	movhi	r6,4
   42204:	318dd804 	addi	r6,r6,14176
   42208:	01400134 	movhi	r5,4
   4220c:	294dd804 	addi	r5,r5,14176
   42210:	01000134 	movhi	r4,4
   42214:	210dd804 	addi	r4,r4,14176
   42218:	0042b3c0 	call	42b3c <alt_io_redirect>
  ALT_LOG_PRINT_BOOT("[alt_main.c] Calling main.\r\n");

#ifdef ALT_NO_EXIT
  main (alt_argc, alt_argv, alt_envp);
#else
  result = main (alt_argc, alt_argv, alt_envp);
   4221c:	d0a0d017 	ldw	r2,-31936(gp)
   42220:	d0e0d117 	ldw	r3,-31932(gp)
   42224:	d120d217 	ldw	r4,-31928(gp)
   42228:	200d883a 	mov	r6,r4
   4222c:	180b883a 	mov	r5,r3
   42230:	1009883a 	mov	r4,r2
   42234:	004067c0 	call	4067c <main>
   42238:	e0bfff15 	stw	r2,-4(fp)
  close(STDOUT_FILENO);
   4223c:	01000044 	movi	r4,1
   42240:	00427ac0 	call	427ac <close>
  exit (result);
   42244:	e13fff17 	ldw	r4,-4(fp)
   42248:	00433040 	call	43304 <exit>

0004224c <alt_get_errno>:
#undef errno

extern int errno;

static ALT_INLINE int* alt_get_errno(void)
{
   4224c:	defffe04 	addi	sp,sp,-8
   42250:	dfc00115 	stw	ra,4(sp)
   42254:	df000015 	stw	fp,0(sp)
   42258:	d839883a 	mov	fp,sp
  return ((alt_errno) ? alt_errno() : &errno);
   4225c:	d0a00b17 	ldw	r2,-32724(gp)
   42260:	10000326 	beq	r2,zero,42270 <alt_get_errno+0x24>
   42264:	d0a00b17 	ldw	r2,-32724(gp)
   42268:	103ee83a 	callr	r2
   4226c:	00000106 	br	42274 <alt_get_errno+0x28>
   42270:	d0a0ce04 	addi	r2,gp,-31944
}
   42274:	e037883a 	mov	sp,fp
   42278:	dfc00117 	ldw	ra,4(sp)
   4227c:	df000017 	ldw	fp,0(sp)
   42280:	dec00204 	addi	sp,sp,8
   42284:	f800283a 	ret

00042288 <write>:
}

#else /* !ALT_USE_DIRECT_DRIVERS */

int ALT_WRITE (int file, const void *ptr, size_t len)
{
   42288:	defff904 	addi	sp,sp,-28
   4228c:	dfc00615 	stw	ra,24(sp)
   42290:	df000515 	stw	fp,20(sp)
   42294:	df000504 	addi	fp,sp,20
   42298:	e13ffd15 	stw	r4,-12(fp)
   4229c:	e17ffe15 	stw	r5,-8(fp)
   422a0:	e1bfff15 	stw	r6,-4(fp)
   * A common error case is that when the file descriptor was created, the call
   * to open() failed resulting in a negative file descriptor. This is trapped
   * below so that we don't try and process an invalid file descriptor.
   */

  fd = (file < 0) ? NULL : &alt_fd_list[file];
   422a4:	e0bffd17 	ldw	r2,-12(fp)
   422a8:	10000616 	blt	r2,zero,422c4 <write+0x3c>
   422ac:	e0bffd17 	ldw	r2,-12(fp)
   422b0:	10c00324 	muli	r3,r2,12
   422b4:	00800134 	movhi	r2,4
   422b8:	108e3204 	addi	r2,r2,14536
   422bc:	1885883a 	add	r2,r3,r2
   422c0:	00000106 	br	422c8 <write+0x40>
   422c4:	0005883a 	mov	r2,zero
   422c8:	e0bffb15 	stw	r2,-20(fp)
  
  if (fd)
   422cc:	e0bffb17 	ldw	r2,-20(fp)
   422d0:	10002126 	beq	r2,zero,42358 <write+0xd0>
     * If the file has not been opened with write access, or if the driver does
     * not provide an implementation of write(), generate an error. Otherwise
     * call the drivers write() function to process the request.
     */

    if (((fd->fd_flags & O_ACCMODE) != O_RDONLY) && fd->dev->write)
   422d4:	e0bffb17 	ldw	r2,-20(fp)
   422d8:	10800217 	ldw	r2,8(r2)
   422dc:	108000cc 	andi	r2,r2,3
   422e0:	10001826 	beq	r2,zero,42344 <write+0xbc>
   422e4:	e0bffb17 	ldw	r2,-20(fp)
   422e8:	10800017 	ldw	r2,0(r2)
   422ec:	10800617 	ldw	r2,24(r2)
   422f0:	10001426 	beq	r2,zero,42344 <write+0xbc>
    {
      
      /* ALT_LOG - see altera_hal/HAL/inc/sys/alt_log_printf.h */
      ALT_LOG_WRITE_FUNCTION(ptr,len);

      if ((rval = fd->dev->write(fd, ptr, len)) < 0)
   422f4:	e0bffb17 	ldw	r2,-20(fp)
   422f8:	10800017 	ldw	r2,0(r2)
   422fc:	10800617 	ldw	r2,24(r2)
   42300:	e0ffff17 	ldw	r3,-4(fp)
   42304:	180d883a 	mov	r6,r3
   42308:	e17ffe17 	ldw	r5,-8(fp)
   4230c:	e13ffb17 	ldw	r4,-20(fp)
   42310:	103ee83a 	callr	r2
   42314:	e0bffc15 	stw	r2,-16(fp)
   42318:	e0bffc17 	ldw	r2,-16(fp)
   4231c:	1000070e 	bge	r2,zero,4233c <write+0xb4>
      {
        ALT_ERRNO = -rval;
   42320:	004224c0 	call	4224c <alt_get_errno>
   42324:	1007883a 	mov	r3,r2
   42328:	e0bffc17 	ldw	r2,-16(fp)
   4232c:	0085c83a 	sub	r2,zero,r2
   42330:	18800015 	stw	r2,0(r3)
        return -1;
   42334:	00bfffc4 	movi	r2,-1
   42338:	00000c06 	br	4236c <write+0xe4>
      }
      return rval;
   4233c:	e0bffc17 	ldw	r2,-16(fp)
   42340:	00000a06 	br	4236c <write+0xe4>
    }
    else
    {
      ALT_ERRNO = EACCES;
   42344:	004224c0 	call	4224c <alt_get_errno>
   42348:	1007883a 	mov	r3,r2
   4234c:	00800344 	movi	r2,13
   42350:	18800015 	stw	r2,0(r3)
   42354:	00000406 	br	42368 <write+0xe0>
    }
  }
  else  
  {
    ALT_ERRNO = EBADFD;
   42358:	004224c0 	call	4224c <alt_get_errno>
   4235c:	1007883a 	mov	r3,r2
   42360:	00801444 	movi	r2,81
   42364:	18800015 	stw	r2,0(r3)
  }
  return -1;
   42368:	00bfffc4 	movi	r2,-1
}
   4236c:	e037883a 	mov	sp,fp
   42370:	dfc00117 	ldw	ra,4(sp)
   42374:	df000017 	ldw	fp,0(sp)
   42378:	dec00204 	addi	sp,sp,8
   4237c:	f800283a 	ret

00042380 <alt_dev_reg>:
 */

extern int alt_fs_reg  (alt_dev* dev); 

static ALT_INLINE int alt_dev_reg (alt_dev* dev)
{
   42380:	defffd04 	addi	sp,sp,-12
   42384:	dfc00215 	stw	ra,8(sp)
   42388:	df000115 	stw	fp,4(sp)
   4238c:	df000104 	addi	fp,sp,4
   42390:	e13fff15 	stw	r4,-4(fp)
  extern alt_llist alt_dev_list;

  return alt_dev_llist_insert ((alt_dev_llist*) dev, &alt_dev_list);
   42394:	d1600804 	addi	r5,gp,-32736
   42398:	e13fff17 	ldw	r4,-4(fp)
   4239c:	00429040 	call	42904 <alt_dev_llist_insert>
}
   423a0:	e037883a 	mov	sp,fp
   423a4:	dfc00117 	ldw	ra,4(sp)
   423a8:	df000017 	ldw	fp,0(sp)
   423ac:	dec00204 	addi	sp,sp,8
   423b0:	f800283a 	ret

000423b4 <alt_irq_init>:
 * The "base" parameter is ignored and only
 * present for backwards-compatibility.
 */

void alt_irq_init ( const void* base )
{
   423b4:	defffd04 	addi	sp,sp,-12
   423b8:	dfc00215 	stw	ra,8(sp)
   423bc:	df000115 	stw	fp,4(sp)
   423c0:	df000104 	addi	fp,sp,4
   423c4:	e13fff15 	stw	r4,-4(fp)
    ALTERA_NIOS2_GEN2_IRQ_INIT ( NIOSII_CPU, NiosII_CPU);
   423c8:	00430140 	call	43014 <altera_nios2_gen2_irq_init>
 * alt_irq_cpu_enable_interrupts() enables the CPU to start taking interrupts.
 */
static ALT_INLINE void ALT_ALWAYS_INLINE 
       alt_irq_cpu_enable_interrupts (void)
{
    NIOS2_WRITE_STATUS(NIOS2_STATUS_PIE_MSK
   423cc:	00800044 	movi	r2,1
   423d0:	1001703a 	wrctl	status,r2
    alt_irq_cpu_enable_interrupts();
}
   423d4:	0001883a 	nop
   423d8:	e037883a 	mov	sp,fp
   423dc:	dfc00117 	ldw	ra,4(sp)
   423e0:	df000017 	ldw	fp,0(sp)
   423e4:	dec00204 	addi	sp,sp,8
   423e8:	f800283a 	ret

000423ec <alt_sys_init>:
 * Initialize the non-interrupt controller devices.
 * Called after alt_irq_init().
 */

void alt_sys_init( void )
{
   423ec:	defffe04 	addi	sp,sp,-8
   423f0:	dfc00115 	stw	ra,4(sp)
   423f4:	df000015 	stw	fp,0(sp)
   423f8:	d839883a 	mov	fp,sp
    ALTERA_AVALON_TIMER_INIT ( SYS_CLK_TIMER, SYS_CLK_timer);
   423fc:	01c0fa04 	movi	r7,1000
   42400:	000d883a 	mov	r6,zero
   42404:	000b883a 	mov	r5,zero
   42408:	01000234 	movhi	r4,8
   4240c:	21040804 	addi	r4,r4,4128
   42410:	00426f40 	call	426f4 <alt_avalon_timer_sc_init>
    ALTERA_AVALON_TIMER_INIT ( TIMER_SECOND, timer_second);
    ALTERA_AVALON_JTAG_UART_INIT ( JTAG_UART_0, jtag_uart_0);
   42414:	01000134 	movhi	r4,4
   42418:	210e1d04 	addi	r4,r4,14452
   4241c:	00423800 	call	42380 <alt_dev_reg>
    ALTERA_AVALON_SYSID_QSYS_INIT ( SYSID_QSYS_0, sysid_qsys_0);
   42420:	0001883a 	nop
}
   42424:	0001883a 	nop
   42428:	e037883a 	mov	sp,fp
   4242c:	dfc00117 	ldw	ra,4(sp)
   42430:	df000017 	ldw	fp,0(sp)
   42434:	dec00204 	addi	sp,sp,8
   42438:	f800283a 	ret

0004243c <altera_avalon_jtag_uart_read_fd>:
 *
 */

int 
altera_avalon_jtag_uart_read_fd(alt_fd* fd, char* buffer, int space)
{
   4243c:	defffa04 	addi	sp,sp,-24
   42440:	dfc00515 	stw	ra,20(sp)
   42444:	df000415 	stw	fp,16(sp)
   42448:	df000404 	addi	fp,sp,16
   4244c:	e13ffd15 	stw	r4,-12(fp)
   42450:	e17ffe15 	stw	r5,-8(fp)
   42454:	e1bfff15 	stw	r6,-4(fp)
    altera_avalon_jtag_uart_dev* dev = (altera_avalon_jtag_uart_dev*) fd->dev; 
   42458:	e0bffd17 	ldw	r2,-12(fp)
   4245c:	10800017 	ldw	r2,0(r2)
   42460:	e0bffc15 	stw	r2,-16(fp)

    return altera_avalon_jtag_uart_read(&dev->state, buffer, space,
   42464:	e0bffc17 	ldw	r2,-16(fp)
   42468:	10c00a04 	addi	r3,r2,40
   4246c:	e0bffd17 	ldw	r2,-12(fp)
   42470:	10800217 	ldw	r2,8(r2)
   42474:	100f883a 	mov	r7,r2
   42478:	e1bfff17 	ldw	r6,-4(fp)
   4247c:	e17ffe17 	ldw	r5,-8(fp)
   42480:	1809883a 	mov	r4,r3
   42484:	00424fc0 	call	424fc <altera_avalon_jtag_uart_read>
      fd->fd_flags);
}
   42488:	e037883a 	mov	sp,fp
   4248c:	dfc00117 	ldw	ra,4(sp)
   42490:	df000017 	ldw	fp,0(sp)
   42494:	dec00204 	addi	sp,sp,8
   42498:	f800283a 	ret

0004249c <altera_avalon_jtag_uart_write_fd>:

int 
altera_avalon_jtag_uart_write_fd(alt_fd* fd, const char* buffer, int space)
{
   4249c:	defffa04 	addi	sp,sp,-24
   424a0:	dfc00515 	stw	ra,20(sp)
   424a4:	df000415 	stw	fp,16(sp)
   424a8:	df000404 	addi	fp,sp,16
   424ac:	e13ffd15 	stw	r4,-12(fp)
   424b0:	e17ffe15 	stw	r5,-8(fp)
   424b4:	e1bfff15 	stw	r6,-4(fp)
    altera_avalon_jtag_uart_dev* dev = (altera_avalon_jtag_uart_dev*) fd->dev; 
   424b8:	e0bffd17 	ldw	r2,-12(fp)
   424bc:	10800017 	ldw	r2,0(r2)
   424c0:	e0bffc15 	stw	r2,-16(fp)

    return altera_avalon_jtag_uart_write(&dev->state, buffer, space,
   424c4:	e0bffc17 	ldw	r2,-16(fp)
   424c8:	10c00a04 	addi	r3,r2,40
   424cc:	e0bffd17 	ldw	r2,-12(fp)
   424d0:	10800217 	ldw	r2,8(r2)
   424d4:	100f883a 	mov	r7,r2
   424d8:	e1bfff17 	ldw	r6,-4(fp)
   424dc:	e17ffe17 	ldw	r5,-8(fp)
   424e0:	1809883a 	mov	r4,r3
   424e4:	00425e80 	call	425e8 <altera_avalon_jtag_uart_write>
      fd->fd_flags);
}
   424e8:	e037883a 	mov	sp,fp
   424ec:	dfc00117 	ldw	ra,4(sp)
   424f0:	df000017 	ldw	fp,0(sp)
   424f4:	dec00204 	addi	sp,sp,8
   424f8:	f800283a 	ret

000424fc <altera_avalon_jtag_uart_read>:
 */

int 
altera_avalon_jtag_uart_read(altera_avalon_jtag_uart_state* sp, 
  char* buffer, int space, int flags)
{
   424fc:	defff704 	addi	sp,sp,-36
   42500:	df000815 	stw	fp,32(sp)
   42504:	df000804 	addi	fp,sp,32
   42508:	e13ffc15 	stw	r4,-16(fp)
   4250c:	e17ffd15 	stw	r5,-12(fp)
   42510:	e1bffe15 	stw	r6,-8(fp)
   42514:	e1ffff15 	stw	r7,-4(fp)
  unsigned int base = sp->base;
   42518:	e0bffc17 	ldw	r2,-16(fp)
   4251c:	10800017 	ldw	r2,0(r2)
   42520:	e0bff915 	stw	r2,-28(fp)

  char * ptr = buffer;
   42524:	e0bffd17 	ldw	r2,-12(fp)
   42528:	e0bff815 	stw	r2,-32(fp)
  char * end = buffer + space;
   4252c:	e0bffe17 	ldw	r2,-8(fp)
   42530:	e0fffd17 	ldw	r3,-12(fp)
   42534:	1885883a 	add	r2,r3,r2
   42538:	e0bffa15 	stw	r2,-24(fp)

  while (ptr < end)
   4253c:	00001206 	br	42588 <altera_avalon_jtag_uart_read+0x8c>
  {
    unsigned int data = IORD_ALTERA_AVALON_JTAG_UART_DATA(base);
   42540:	e0bff917 	ldw	r2,-28(fp)
   42544:	10800037 	ldwio	r2,0(r2)
   42548:	e0bffb15 	stw	r2,-20(fp)

    if (data & ALTERA_AVALON_JTAG_UART_DATA_RVALID_MSK)
   4254c:	e0bffb17 	ldw	r2,-20(fp)
   42550:	10a0000c 	andi	r2,r2,32768
   42554:	10000626 	beq	r2,zero,42570 <altera_avalon_jtag_uart_read+0x74>
      *ptr++ = (data & ALTERA_AVALON_JTAG_UART_DATA_DATA_MSK) >> ALTERA_AVALON_JTAG_UART_DATA_DATA_OFST;
   42558:	e0bff817 	ldw	r2,-32(fp)
   4255c:	10c00044 	addi	r3,r2,1
   42560:	e0fff815 	stw	r3,-32(fp)
   42564:	e0fffb17 	ldw	r3,-20(fp)
   42568:	10c00005 	stb	r3,0(r2)
   4256c:	00000606 	br	42588 <altera_avalon_jtag_uart_read+0x8c>
    else if (ptr != buffer)
   42570:	e0fff817 	ldw	r3,-32(fp)
   42574:	e0bffd17 	ldw	r2,-12(fp)
   42578:	1880071e 	bne	r3,r2,42598 <altera_avalon_jtag_uart_read+0x9c>
      break;
    else if(flags & O_NONBLOCK)
   4257c:	e0bfff17 	ldw	r2,-4(fp)
   42580:	1090000c 	andi	r2,r2,16384
   42584:	1000061e 	bne	r2,zero,425a0 <altera_avalon_jtag_uart_read+0xa4>
  unsigned int base = sp->base;

  char * ptr = buffer;
  char * end = buffer + space;

  while (ptr < end)
   42588:	e0fff817 	ldw	r3,-32(fp)
   4258c:	e0bffa17 	ldw	r2,-24(fp)
   42590:	18bfeb36 	bltu	r3,r2,42540 <__alt_data_end+0xfffda540>
   42594:	00000306 	br	425a4 <altera_avalon_jtag_uart_read+0xa8>
    unsigned int data = IORD_ALTERA_AVALON_JTAG_UART_DATA(base);

    if (data & ALTERA_AVALON_JTAG_UART_DATA_RVALID_MSK)
      *ptr++ = (data & ALTERA_AVALON_JTAG_UART_DATA_DATA_MSK) >> ALTERA_AVALON_JTAG_UART_DATA_DATA_OFST;
    else if (ptr != buffer)
      break;
   42598:	0001883a 	nop
   4259c:	00000106 	br	425a4 <altera_avalon_jtag_uart_read+0xa8>
    else if(flags & O_NONBLOCK)
      break;   
   425a0:	0001883a 	nop
    
  }

  if (ptr != buffer)
   425a4:	e0fff817 	ldw	r3,-32(fp)
   425a8:	e0bffd17 	ldw	r2,-12(fp)
   425ac:	18800426 	beq	r3,r2,425c0 <altera_avalon_jtag_uart_read+0xc4>
    return ptr - buffer;
   425b0:	e0fff817 	ldw	r3,-32(fp)
   425b4:	e0bffd17 	ldw	r2,-12(fp)
   425b8:	1885c83a 	sub	r2,r3,r2
   425bc:	00000606 	br	425d8 <altera_avalon_jtag_uart_read+0xdc>
  else if (flags & O_NONBLOCK)
   425c0:	e0bfff17 	ldw	r2,-4(fp)
   425c4:	1090000c 	andi	r2,r2,16384
   425c8:	10000226 	beq	r2,zero,425d4 <altera_avalon_jtag_uart_read+0xd8>
    return -EWOULDBLOCK;
   425cc:	00bffd44 	movi	r2,-11
   425d0:	00000106 	br	425d8 <altera_avalon_jtag_uart_read+0xdc>
  else
    return -EIO;
   425d4:	00bffec4 	movi	r2,-5
}
   425d8:	e037883a 	mov	sp,fp
   425dc:	df000017 	ldw	fp,0(sp)
   425e0:	dec00104 	addi	sp,sp,4
   425e4:	f800283a 	ret

000425e8 <altera_avalon_jtag_uart_write>:
 * one FIFOs worth of data.  But you said you didn't want to use interrupts :-)
 */

int altera_avalon_jtag_uart_write(altera_avalon_jtag_uart_state* sp, 
  const char * ptr, int count, int flags)
{
   425e8:	defff904 	addi	sp,sp,-28
   425ec:	df000615 	stw	fp,24(sp)
   425f0:	df000604 	addi	fp,sp,24
   425f4:	e13ffc15 	stw	r4,-16(fp)
   425f8:	e17ffd15 	stw	r5,-12(fp)
   425fc:	e1bffe15 	stw	r6,-8(fp)
   42600:	e1ffff15 	stw	r7,-4(fp)
  unsigned int base = sp->base;
   42604:	e0bffc17 	ldw	r2,-16(fp)
   42608:	10800017 	ldw	r2,0(r2)
   4260c:	e0bffa15 	stw	r2,-24(fp)

  const char * end = ptr + count;
   42610:	e0bffe17 	ldw	r2,-8(fp)
   42614:	e0fffd17 	ldw	r3,-12(fp)
   42618:	1885883a 	add	r2,r3,r2
   4261c:	e0bffb15 	stw	r2,-20(fp)

  while (ptr < end)
   42620:	00000e06 	br	4265c <altera_avalon_jtag_uart_write+0x74>
    if ((IORD_ALTERA_AVALON_JTAG_UART_CONTROL(base) & ALTERA_AVALON_JTAG_UART_CONTROL_WSPACE_MSK) != 0)
   42624:	e0bffa17 	ldw	r2,-24(fp)
   42628:	10800104 	addi	r2,r2,4
   4262c:	10800037 	ldwio	r2,0(r2)
   42630:	10bfffec 	andhi	r2,r2,65535
   42634:	10000926 	beq	r2,zero,4265c <altera_avalon_jtag_uart_write+0x74>
      IOWR_ALTERA_AVALON_JTAG_UART_DATA(base, *ptr++);
   42638:	e0fffa17 	ldw	r3,-24(fp)
   4263c:	e0bffd17 	ldw	r2,-12(fp)
   42640:	11000044 	addi	r4,r2,1
   42644:	e13ffd15 	stw	r4,-12(fp)
   42648:	10800003 	ldbu	r2,0(r2)
   4264c:	10803fcc 	andi	r2,r2,255
   42650:	1080201c 	xori	r2,r2,128
   42654:	10bfe004 	addi	r2,r2,-128
   42658:	18800035 	stwio	r2,0(r3)
{
  unsigned int base = sp->base;

  const char * end = ptr + count;

  while (ptr < end)
   4265c:	e0fffd17 	ldw	r3,-12(fp)
   42660:	e0bffb17 	ldw	r2,-20(fp)
   42664:	18bfef36 	bltu	r3,r2,42624 <__alt_data_end+0xfffda624>
    if ((IORD_ALTERA_AVALON_JTAG_UART_CONTROL(base) & ALTERA_AVALON_JTAG_UART_CONTROL_WSPACE_MSK) != 0)
      IOWR_ALTERA_AVALON_JTAG_UART_DATA(base, *ptr++);

  return count;
   42668:	e0bffe17 	ldw	r2,-8(fp)
}
   4266c:	e037883a 	mov	sp,fp
   42670:	df000017 	ldw	fp,0(sp)
   42674:	dec00104 	addi	sp,sp,4
   42678:	f800283a 	ret

0004267c <alt_avalon_timer_sc_irq>:
#ifdef ALT_ENHANCED_INTERRUPT_API_PRESENT
static void alt_avalon_timer_sc_irq (void* base)
#else
static void alt_avalon_timer_sc_irq (void* base, alt_u32 id)
#endif
{
   4267c:	defffa04 	addi	sp,sp,-24
   42680:	dfc00515 	stw	ra,20(sp)
   42684:	df000415 	stw	fp,16(sp)
   42688:	df000404 	addi	fp,sp,16
   4268c:	e13fff15 	stw	r4,-4(fp)
  alt_irq_context cpu_sr;
  
  /* clear the interrupt */
  IOWR_ALTERA_AVALON_TIMER_STATUS (base, 0);
   42690:	0007883a 	mov	r3,zero
   42694:	e0bfff17 	ldw	r2,-4(fp)
   42698:	10c00035 	stwio	r3,0(r2)
  /* 
   * Dummy read to ensure IRQ is negated before the ISR returns.
   * The control register is read because reading the status
   * register has side-effects per the register map documentation.
   */
  IORD_ALTERA_AVALON_TIMER_CONTROL (base);
   4269c:	e0bfff17 	ldw	r2,-4(fp)
   426a0:	10800104 	addi	r2,r2,4
   426a4:	10800037 	ldwio	r2,0(r2)
static ALT_INLINE alt_irq_context ALT_ALWAYS_INLINE 
       alt_irq_disable_all (void)
{
  alt_irq_context context;

  NIOS2_READ_STATUS (context);
   426a8:	0005303a 	rdctl	r2,status
   426ac:	e0bffd15 	stw	r2,-12(fp)

  NIOS2_WRITE_STATUS (context & ~NIOS2_STATUS_PIE_MSK);
   426b0:	e0fffd17 	ldw	r3,-12(fp)
   426b4:	00bfff84 	movi	r2,-2
   426b8:	1884703a 	and	r2,r3,r2
   426bc:	1001703a 	wrctl	status,r2
  
  return context;
   426c0:	e0bffd17 	ldw	r2,-12(fp)

  /* 
   * Notify the system of a clock tick. disable interrupts 
   * during this time to safely support ISR preemption
   */
  cpu_sr = alt_irq_disable_all();
   426c4:	e0bffc15 	stw	r2,-16(fp)
  alt_tick ();
   426c8:	0042f0c0 	call	42f0c <alt_tick>
   426cc:	e0bffc17 	ldw	r2,-16(fp)
   426d0:	e0bffe15 	stw	r2,-8(fp)
  status &= ~NIOS2_STATUS_PIE_MSK;
  status |= (context & NIOS2_STATUS_PIE_MSK);
  
  NIOS2_WRITE_STATUS (status);
#else
  NIOS2_WRITE_STATUS (context);
   426d4:	e0bffe17 	ldw	r2,-8(fp)
   426d8:	1001703a 	wrctl	status,r2
  alt_irq_enable_all(cpu_sr);
}
   426dc:	0001883a 	nop
   426e0:	e037883a 	mov	sp,fp
   426e4:	dfc00117 	ldw	ra,4(sp)
   426e8:	df000017 	ldw	fp,0(sp)
   426ec:	dec00204 	addi	sp,sp,8
   426f0:	f800283a 	ret

000426f4 <alt_avalon_timer_sc_init>:
 * auto-generated alt_sys_init() function.
 */

void alt_avalon_timer_sc_init (void* base, alt_u32 irq_controller_id, 
                                alt_u32 irq, alt_u32 freq)
{
   426f4:	defff804 	addi	sp,sp,-32
   426f8:	dfc00715 	stw	ra,28(sp)
   426fc:	df000615 	stw	fp,24(sp)
   42700:	df000604 	addi	fp,sp,24
   42704:	e13ffc15 	stw	r4,-16(fp)
   42708:	e17ffd15 	stw	r5,-12(fp)
   4270c:	e1bffe15 	stw	r6,-8(fp)
   42710:	e1ffff15 	stw	r7,-4(fp)
   42714:	e0bfff17 	ldw	r2,-4(fp)
   42718:	e0bffb15 	stw	r2,-20(fp)
 * in order to initialise the value of the clock frequency.
 */

static ALT_INLINE int ALT_ALWAYS_INLINE alt_sysclk_init (alt_u32 nticks)
{
  if (! _alt_tick_rate)
   4271c:	d0a0d417 	ldw	r2,-31920(gp)
   42720:	1000021e 	bne	r2,zero,4272c <alt_avalon_timer_sc_init+0x38>
  {
    _alt_tick_rate = nticks;
   42724:	e0bffb17 	ldw	r2,-20(fp)
   42728:	d0a0d415 	stw	r2,-31920(gp)
  
  alt_sysclk_init (freq);
  
  /* set to free running mode */
  
  IOWR_ALTERA_AVALON_TIMER_CONTROL (base, 
   4272c:	e0bffc17 	ldw	r2,-16(fp)
   42730:	10800104 	addi	r2,r2,4
   42734:	00c001c4 	movi	r3,7
   42738:	10c00035 	stwio	r3,0(r2)
            ALTERA_AVALON_TIMER_CONTROL_CONT_MSK |
            ALTERA_AVALON_TIMER_CONTROL_START_MSK);

  /* register the interrupt handler, and enable the interrupt */
#ifdef ALT_ENHANCED_INTERRUPT_API_PRESENT
  alt_ic_isr_register(irq_controller_id, irq, alt_avalon_timer_sc_irq, 
   4273c:	d8000015 	stw	zero,0(sp)
   42740:	e1fffc17 	ldw	r7,-16(fp)
   42744:	01800134 	movhi	r6,4
   42748:	31899f04 	addi	r6,r6,9852
   4274c:	e17ffe17 	ldw	r5,-8(fp)
   42750:	e13ffd17 	ldw	r4,-12(fp)
   42754:	0041e540 	call	41e54 <alt_ic_isr_register>
                      base, NULL);
#else
  alt_irq_register (irq, base, alt_avalon_timer_sc_irq);
#endif  
}
   42758:	0001883a 	nop
   4275c:	e037883a 	mov	sp,fp
   42760:	dfc00117 	ldw	ra,4(sp)
   42764:	df000017 	ldw	fp,0(sp)
   42768:	dec00204 	addi	sp,sp,8
   4276c:	f800283a 	ret

00042770 <alt_get_errno>:
#undef errno

extern int errno;

static ALT_INLINE int* alt_get_errno(void)
{
   42770:	defffe04 	addi	sp,sp,-8
   42774:	dfc00115 	stw	ra,4(sp)
   42778:	df000015 	stw	fp,0(sp)
   4277c:	d839883a 	mov	fp,sp
  return ((alt_errno) ? alt_errno() : &errno);
   42780:	d0a00b17 	ldw	r2,-32724(gp)
   42784:	10000326 	beq	r2,zero,42794 <alt_get_errno+0x24>
   42788:	d0a00b17 	ldw	r2,-32724(gp)
   4278c:	103ee83a 	callr	r2
   42790:	00000106 	br	42798 <alt_get_errno+0x28>
   42794:	d0a0ce04 	addi	r2,gp,-31944
}
   42798:	e037883a 	mov	sp,fp
   4279c:	dfc00117 	ldw	ra,4(sp)
   427a0:	df000017 	ldw	fp,0(sp)
   427a4:	dec00204 	addi	sp,sp,8
   427a8:	f800283a 	ret

000427ac <close>:
 *
 * ALT_CLOSE is mapped onto the close() system call in alt_syscall.h
 */
 
int ALT_CLOSE (int fildes)
{
   427ac:	defffb04 	addi	sp,sp,-20
   427b0:	dfc00415 	stw	ra,16(sp)
   427b4:	df000315 	stw	fp,12(sp)
   427b8:	df000304 	addi	fp,sp,12
   427bc:	e13fff15 	stw	r4,-4(fp)
   * A common error case is that when the file descriptor was created, the call
   * to open() failed resulting in a negative file descriptor. This is trapped
   * below so that we don't try and process an invalid file descriptor.
   */

  fd = (fildes < 0) ? NULL : &alt_fd_list[fildes];
   427c0:	e0bfff17 	ldw	r2,-4(fp)
   427c4:	10000616 	blt	r2,zero,427e0 <close+0x34>
   427c8:	e0bfff17 	ldw	r2,-4(fp)
   427cc:	10c00324 	muli	r3,r2,12
   427d0:	00800134 	movhi	r2,4
   427d4:	108e3204 	addi	r2,r2,14536
   427d8:	1885883a 	add	r2,r3,r2
   427dc:	00000106 	br	427e4 <close+0x38>
   427e0:	0005883a 	mov	r2,zero
   427e4:	e0bffd15 	stw	r2,-12(fp)

  if (fd)
   427e8:	e0bffd17 	ldw	r2,-12(fp)
   427ec:	10001926 	beq	r2,zero,42854 <close+0xa8>
    /*
     * If the associated file system/device has a close function, call it so 
     * that any necessary cleanup code can run.
     */

    rval = (fd->dev->close) ? fd->dev->close(fd) : 0;
   427f0:	e0bffd17 	ldw	r2,-12(fp)
   427f4:	10800017 	ldw	r2,0(r2)
   427f8:	10800417 	ldw	r2,16(r2)
   427fc:	10000626 	beq	r2,zero,42818 <close+0x6c>
   42800:	e0bffd17 	ldw	r2,-12(fp)
   42804:	10800017 	ldw	r2,0(r2)
   42808:	10800417 	ldw	r2,16(r2)
   4280c:	e13ffd17 	ldw	r4,-12(fp)
   42810:	103ee83a 	callr	r2
   42814:	00000106 	br	4281c <close+0x70>
   42818:	0005883a 	mov	r2,zero
   4281c:	e0bffe15 	stw	r2,-8(fp)

    /* Free the file descriptor structure and return. */

    alt_release_fd (fildes);
   42820:	e13fff17 	ldw	r4,-4(fp)
   42824:	0042e0c0 	call	42e0c <alt_release_fd>
    if (rval < 0)
   42828:	e0bffe17 	ldw	r2,-8(fp)
   4282c:	1000070e 	bge	r2,zero,4284c <close+0xa0>
    {
      ALT_ERRNO = -rval;
   42830:	00427700 	call	42770 <alt_get_errno>
   42834:	1007883a 	mov	r3,r2
   42838:	e0bffe17 	ldw	r2,-8(fp)
   4283c:	0085c83a 	sub	r2,zero,r2
   42840:	18800015 	stw	r2,0(r3)
      return -1;
   42844:	00bfffc4 	movi	r2,-1
   42848:	00000706 	br	42868 <close+0xbc>
    }
    return 0;
   4284c:	0005883a 	mov	r2,zero
   42850:	00000506 	br	42868 <close+0xbc>
  }
  else
  {
    ALT_ERRNO = EBADFD;
   42854:	00427700 	call	42770 <alt_get_errno>
   42858:	1007883a 	mov	r3,r2
   4285c:	00801444 	movi	r2,81
   42860:	18800015 	stw	r2,0(r3)
    return -1;
   42864:	00bfffc4 	movi	r2,-1
  }
}
   42868:	e037883a 	mov	sp,fp
   4286c:	dfc00117 	ldw	ra,4(sp)
   42870:	df000017 	ldw	fp,0(sp)
   42874:	dec00204 	addi	sp,sp,8
   42878:	f800283a 	ret

0004287c <alt_dcache_flush_all>:
/*
 * alt_dcache_flush_all() is called to flush the entire data cache.
 */

void alt_dcache_flush_all (void)
{
   4287c:	deffff04 	addi	sp,sp,-4
   42880:	df000015 	stw	fp,0(sp)
   42884:	d839883a 	mov	fp,sp
  for (i = (char*) 0; i < (char*) NIOS2_DCACHE_SIZE; i+= NIOS2_DCACHE_LINE_SIZE)
  { 
    __asm__ volatile ("flushd (%0)" :: "r" (i));
  }
#endif /* NIOS2_DCACHE_SIZE > 0 */
}
   42888:	0001883a 	nop
   4288c:	e037883a 	mov	sp,fp
   42890:	df000017 	ldw	fp,0(sp)
   42894:	dec00104 	addi	sp,sp,4
   42898:	f800283a 	ret

0004289c <alt_dev_null_write>:
 * by the alt_dev_null device. It simple discards all data passed to it, and
 * indicates that the data has been successfully transmitted.
 */

static int alt_dev_null_write (alt_fd* fd, const char* ptr, int len)
{
   4289c:	defffc04 	addi	sp,sp,-16
   428a0:	df000315 	stw	fp,12(sp)
   428a4:	df000304 	addi	fp,sp,12
   428a8:	e13ffd15 	stw	r4,-12(fp)
   428ac:	e17ffe15 	stw	r5,-8(fp)
   428b0:	e1bfff15 	stw	r6,-4(fp)
  return len;
   428b4:	e0bfff17 	ldw	r2,-4(fp)
}
   428b8:	e037883a 	mov	sp,fp
   428bc:	df000017 	ldw	fp,0(sp)
   428c0:	dec00104 	addi	sp,sp,4
   428c4:	f800283a 	ret

000428c8 <alt_get_errno>:
#undef errno

extern int errno;

static ALT_INLINE int* alt_get_errno(void)
{
   428c8:	defffe04 	addi	sp,sp,-8
   428cc:	dfc00115 	stw	ra,4(sp)
   428d0:	df000015 	stw	fp,0(sp)
   428d4:	d839883a 	mov	fp,sp
  return ((alt_errno) ? alt_errno() : &errno);
   428d8:	d0a00b17 	ldw	r2,-32724(gp)
   428dc:	10000326 	beq	r2,zero,428ec <alt_get_errno+0x24>
   428e0:	d0a00b17 	ldw	r2,-32724(gp)
   428e4:	103ee83a 	callr	r2
   428e8:	00000106 	br	428f0 <alt_get_errno+0x28>
   428ec:	d0a0ce04 	addi	r2,gp,-31944
}
   428f0:	e037883a 	mov	sp,fp
   428f4:	dfc00117 	ldw	ra,4(sp)
   428f8:	df000017 	ldw	fp,0(sp)
   428fc:	dec00204 	addi	sp,sp,8
   42900:	f800283a 	ret

00042904 <alt_dev_llist_insert>:
/*
 *
 */

int alt_dev_llist_insert (alt_dev_llist* dev, alt_llist* list)
{
   42904:	defffa04 	addi	sp,sp,-24
   42908:	dfc00515 	stw	ra,20(sp)
   4290c:	df000415 	stw	fp,16(sp)
   42910:	df000404 	addi	fp,sp,16
   42914:	e13ffe15 	stw	r4,-8(fp)
   42918:	e17fff15 	stw	r5,-4(fp)
  /*
   * check that the device exists, and that it has a valid name.
   */

  if (!dev || !dev->name)
   4291c:	e0bffe17 	ldw	r2,-8(fp)
   42920:	10000326 	beq	r2,zero,42930 <alt_dev_llist_insert+0x2c>
   42924:	e0bffe17 	ldw	r2,-8(fp)
   42928:	10800217 	ldw	r2,8(r2)
   4292c:	1000061e 	bne	r2,zero,42948 <alt_dev_llist_insert+0x44>
  {
    ALT_ERRNO = EINVAL;
   42930:	00428c80 	call	428c8 <alt_get_errno>
   42934:	1007883a 	mov	r3,r2
   42938:	00800584 	movi	r2,22
   4293c:	18800015 	stw	r2,0(r3)
    return -EINVAL;
   42940:	00bffa84 	movi	r2,-22
   42944:	00001306 	br	42994 <alt_dev_llist_insert+0x90>
  
  /*
   * register the device.
   */
  
  alt_llist_insert(list, &dev->llist);
   42948:	e0bffe17 	ldw	r2,-8(fp)
   4294c:	e0ffff17 	ldw	r3,-4(fp)
   42950:	e0fffc15 	stw	r3,-16(fp)
   42954:	e0bffd15 	stw	r2,-12(fp)
 */

static ALT_INLINE void ALT_ALWAYS_INLINE alt_llist_insert(alt_llist* list, 
                alt_llist* entry)
{
  entry->previous = list;
   42958:	e0bffd17 	ldw	r2,-12(fp)
   4295c:	e0fffc17 	ldw	r3,-16(fp)
   42960:	10c00115 	stw	r3,4(r2)
  entry->next     = list->next;
   42964:	e0bffc17 	ldw	r2,-16(fp)
   42968:	10c00017 	ldw	r3,0(r2)
   4296c:	e0bffd17 	ldw	r2,-12(fp)
   42970:	10c00015 	stw	r3,0(r2)

  list->next->previous = entry;
   42974:	e0bffc17 	ldw	r2,-16(fp)
   42978:	10800017 	ldw	r2,0(r2)
   4297c:	e0fffd17 	ldw	r3,-12(fp)
   42980:	10c00115 	stw	r3,4(r2)
  list->next           = entry;
   42984:	e0bffc17 	ldw	r2,-16(fp)
   42988:	e0fffd17 	ldw	r3,-12(fp)
   4298c:	10c00015 	stw	r3,0(r2)

  return 0;  
   42990:	0005883a 	mov	r2,zero
}
   42994:	e037883a 	mov	sp,fp
   42998:	dfc00117 	ldw	ra,4(sp)
   4299c:	df000017 	ldw	fp,0(sp)
   429a0:	dec00204 	addi	sp,sp,8
   429a4:	f800283a 	ret

000429a8 <alt_icache_flush_all>:
/*
 * alt_icache_flush_all() is called to flush the entire instruction cache.
 */

void alt_icache_flush_all (void)
{
   429a8:	defffe04 	addi	sp,sp,-8
   429ac:	dfc00115 	stw	ra,4(sp)
   429b0:	df000015 	stw	fp,0(sp)
   429b4:	d839883a 	mov	fp,sp
#if NIOS2_ICACHE_SIZE > 0
  alt_icache_flush (0, NIOS2_ICACHE_SIZE);
   429b8:	01420004 	movi	r5,2048
   429bc:	0009883a 	mov	r4,zero
   429c0:	00432740 	call	43274 <alt_icache_flush>
#endif
}
   429c4:	0001883a 	nop
   429c8:	e037883a 	mov	sp,fp
   429cc:	dfc00117 	ldw	ra,4(sp)
   429d0:	df000017 	ldw	fp,0(sp)
   429d4:	dec00204 	addi	sp,sp,8
   429d8:	f800283a 	ret

000429dc <alt_exception_cause_generated_bad_addr>:
 * Return: 1: BADADDR (bad_addr argument to handler) is valid
 *         0: BADADDR is not valid
 */
int 
alt_exception_cause_generated_bad_addr(alt_exception_cause cause)
{
   429dc:	defffe04 	addi	sp,sp,-8
   429e0:	df000115 	stw	fp,4(sp)
   429e4:	df000104 	addi	fp,sp,4
   429e8:	e13fff15 	stw	r4,-4(fp)
  switch (cause) {
   429ec:	e0bfff17 	ldw	r2,-4(fp)
   429f0:	10bffe84 	addi	r2,r2,-6
   429f4:	10c00428 	cmpgeui	r3,r2,16
   429f8:	18001a1e 	bne	r3,zero,42a64 <alt_exception_cause_generated_bad_addr+0x88>
   429fc:	100690ba 	slli	r3,r2,2
   42a00:	00800134 	movhi	r2,4
   42a04:	108a8504 	addi	r2,r2,10772
   42a08:	1885883a 	add	r2,r3,r2
   42a0c:	10800017 	ldw	r2,0(r2)
   42a10:	1000683a 	jmp	r2
   42a14:	00042a54 	movui	zero,4265
   42a18:	00042a54 	movui	zero,4265
   42a1c:	00042a64 	muli	zero,zero,4265
   42a20:	00042a64 	muli	zero,zero,4265
   42a24:	00042a64 	muli	zero,zero,4265
   42a28:	00042a54 	movui	zero,4265
   42a2c:	00042a5c 	xori	zero,zero,4265
   42a30:	00042a64 	muli	zero,zero,4265
   42a34:	00042a54 	movui	zero,4265
   42a38:	00042a54 	movui	zero,4265
   42a3c:	00042a64 	muli	zero,zero,4265
   42a40:	00042a54 	movui	zero,4265
   42a44:	00042a5c 	xori	zero,zero,4265
   42a48:	00042a64 	muli	zero,zero,4265
   42a4c:	00042a64 	muli	zero,zero,4265
   42a50:	00042a54 	movui	zero,4265
  case NIOS2_EXCEPTION_MISALIGNED_TARGET_PC:
  case NIOS2_EXCEPTION_TLB_READ_PERM_VIOLATION:
  case NIOS2_EXCEPTION_TLB_WRITE_PERM_VIOLATION:
  case NIOS2_EXCEPTION_MPU_DATA_REGION_VIOLATION:
  case NIOS2_EXCEPTION_ECC_DATA_ERR:
    return 1;
   42a54:	00800044 	movi	r2,1
   42a58:	00000306 	br	42a68 <alt_exception_cause_generated_bad_addr+0x8c>

  case NIOS2_EXCEPTION_TLB_MISS:
  case NIOS2_EXCEPTION_ECC_TLB_ERR:
    return 0;
   42a5c:	0005883a 	mov	r2,zero
   42a60:	00000106 	br	42a68 <alt_exception_cause_generated_bad_addr+0x8c>

  default:
    return 0;
   42a64:	0005883a 	mov	r2,zero
  }
}
   42a68:	e037883a 	mov	sp,fp
   42a6c:	df000017 	ldw	fp,0(sp)
   42a70:	dec00104 	addi	sp,sp,4
   42a74:	f800283a 	ret

00042a78 <alt_open_fd>:
 * If the device can not be succesfully opened, then the input file descriptor
 * remains unchanged.
 */

static void alt_open_fd(alt_fd* fd, const char* name, int flags, int mode)
{
   42a78:	defff904 	addi	sp,sp,-28
   42a7c:	dfc00615 	stw	ra,24(sp)
   42a80:	df000515 	stw	fp,20(sp)
   42a84:	df000504 	addi	fp,sp,20
   42a88:	e13ffc15 	stw	r4,-16(fp)
   42a8c:	e17ffd15 	stw	r5,-12(fp)
   42a90:	e1bffe15 	stw	r6,-8(fp)
   42a94:	e1ffff15 	stw	r7,-4(fp)
  int old;

  old = open (name, flags, mode);
   42a98:	e1bfff17 	ldw	r6,-4(fp)
   42a9c:	e17ffe17 	ldw	r5,-8(fp)
   42aa0:	e13ffd17 	ldw	r4,-12(fp)
   42aa4:	0042cb80 	call	42cb8 <open>
   42aa8:	e0bffb15 	stw	r2,-20(fp)

  if (old >= 0)
   42aac:	e0bffb17 	ldw	r2,-20(fp)
   42ab0:	10001c16 	blt	r2,zero,42b24 <alt_open_fd+0xac>
  {
    fd->dev      = alt_fd_list[old].dev;
   42ab4:	00800134 	movhi	r2,4
   42ab8:	108e3204 	addi	r2,r2,14536
   42abc:	e0fffb17 	ldw	r3,-20(fp)
   42ac0:	18c00324 	muli	r3,r3,12
   42ac4:	10c5883a 	add	r2,r2,r3
   42ac8:	10c00017 	ldw	r3,0(r2)
   42acc:	e0bffc17 	ldw	r2,-16(fp)
   42ad0:	10c00015 	stw	r3,0(r2)
    fd->priv     = alt_fd_list[old].priv;
   42ad4:	00800134 	movhi	r2,4
   42ad8:	108e3204 	addi	r2,r2,14536
   42adc:	e0fffb17 	ldw	r3,-20(fp)
   42ae0:	18c00324 	muli	r3,r3,12
   42ae4:	10c5883a 	add	r2,r2,r3
   42ae8:	10800104 	addi	r2,r2,4
   42aec:	10c00017 	ldw	r3,0(r2)
   42af0:	e0bffc17 	ldw	r2,-16(fp)
   42af4:	10c00115 	stw	r3,4(r2)
    fd->fd_flags = alt_fd_list[old].fd_flags;
   42af8:	00800134 	movhi	r2,4
   42afc:	108e3204 	addi	r2,r2,14536
   42b00:	e0fffb17 	ldw	r3,-20(fp)
   42b04:	18c00324 	muli	r3,r3,12
   42b08:	10c5883a 	add	r2,r2,r3
   42b0c:	10800204 	addi	r2,r2,8
   42b10:	10c00017 	ldw	r3,0(r2)
   42b14:	e0bffc17 	ldw	r2,-16(fp)
   42b18:	10c00215 	stw	r3,8(r2)

    alt_release_fd (old);
   42b1c:	e13ffb17 	ldw	r4,-20(fp)
   42b20:	0042e0c0 	call	42e0c <alt_release_fd>
  }
} 
   42b24:	0001883a 	nop
   42b28:	e037883a 	mov	sp,fp
   42b2c:	dfc00117 	ldw	ra,4(sp)
   42b30:	df000017 	ldw	fp,0(sp)
   42b34:	dec00204 	addi	sp,sp,8
   42b38:	f800283a 	ret

00042b3c <alt_io_redirect>:
 */
 
void alt_io_redirect(const char* stdout_dev, 
                     const char* stdin_dev, 
                     const char* stderr_dev)
{
   42b3c:	defffb04 	addi	sp,sp,-20
   42b40:	dfc00415 	stw	ra,16(sp)
   42b44:	df000315 	stw	fp,12(sp)
   42b48:	df000304 	addi	fp,sp,12
   42b4c:	e13ffd15 	stw	r4,-12(fp)
   42b50:	e17ffe15 	stw	r5,-8(fp)
   42b54:	e1bfff15 	stw	r6,-4(fp)
  /* Redirect the channels */

  alt_open_fd (&alt_fd_list[STDOUT_FILENO], stdout_dev, O_WRONLY, 0777);
   42b58:	01c07fc4 	movi	r7,511
   42b5c:	01800044 	movi	r6,1
   42b60:	e17ffd17 	ldw	r5,-12(fp)
   42b64:	01000134 	movhi	r4,4
   42b68:	210e3504 	addi	r4,r4,14548
   42b6c:	0042a780 	call	42a78 <alt_open_fd>
  alt_open_fd (&alt_fd_list[STDIN_FILENO], stdin_dev, O_RDONLY, 0777);
   42b70:	01c07fc4 	movi	r7,511
   42b74:	000d883a 	mov	r6,zero
   42b78:	e17ffe17 	ldw	r5,-8(fp)
   42b7c:	01000134 	movhi	r4,4
   42b80:	210e3204 	addi	r4,r4,14536
   42b84:	0042a780 	call	42a78 <alt_open_fd>
  alt_open_fd (&alt_fd_list[STDERR_FILENO], stderr_dev, O_WRONLY, 0777);
   42b88:	01c07fc4 	movi	r7,511
   42b8c:	01800044 	movi	r6,1
   42b90:	e17fff17 	ldw	r5,-4(fp)
   42b94:	01000134 	movhi	r4,4
   42b98:	210e3804 	addi	r4,r4,14560
   42b9c:	0042a780 	call	42a78 <alt_open_fd>
}  
   42ba0:	0001883a 	nop
   42ba4:	e037883a 	mov	sp,fp
   42ba8:	dfc00117 	ldw	ra,4(sp)
   42bac:	df000017 	ldw	fp,0(sp)
   42bb0:	dec00204 	addi	sp,sp,8
   42bb4:	f800283a 	ret

00042bb8 <alt_get_errno>:
#undef errno

extern int errno;

static ALT_INLINE int* alt_get_errno(void)
{
   42bb8:	defffe04 	addi	sp,sp,-8
   42bbc:	dfc00115 	stw	ra,4(sp)
   42bc0:	df000015 	stw	fp,0(sp)
   42bc4:	d839883a 	mov	fp,sp
  return ((alt_errno) ? alt_errno() : &errno);
   42bc8:	d0a00b17 	ldw	r2,-32724(gp)
   42bcc:	10000326 	beq	r2,zero,42bdc <alt_get_errno+0x24>
   42bd0:	d0a00b17 	ldw	r2,-32724(gp)
   42bd4:	103ee83a 	callr	r2
   42bd8:	00000106 	br	42be0 <alt_get_errno+0x28>
   42bdc:	d0a0ce04 	addi	r2,gp,-31944
}
   42be0:	e037883a 	mov	sp,fp
   42be4:	dfc00117 	ldw	ra,4(sp)
   42be8:	df000017 	ldw	fp,0(sp)
   42bec:	dec00204 	addi	sp,sp,8
   42bf0:	f800283a 	ret

00042bf4 <alt_file_locked>:
 * performed for devices. Filesystems are required to handle the ioctl() call
 * themselves, and report the error from the filesystems open() function. 
 */ 

static int alt_file_locked (alt_fd* fd)
{
   42bf4:	defffd04 	addi	sp,sp,-12
   42bf8:	df000215 	stw	fp,8(sp)
   42bfc:	df000204 	addi	fp,sp,8
   42c00:	e13fff15 	stw	r4,-4(fp)

  /*
   * Mark the file descriptor as belonging to a device.
   */

  fd->fd_flags |= ALT_FD_DEV;
   42c04:	e0bfff17 	ldw	r2,-4(fp)
   42c08:	10800217 	ldw	r2,8(r2)
   42c0c:	10d00034 	orhi	r3,r2,16384
   42c10:	e0bfff17 	ldw	r2,-4(fp)
   42c14:	10c00215 	stw	r3,8(r2)
  /*
   * Loop through all current file descriptors searching for one that's locked
   * for exclusive access. If a match is found, generate an error.
   */

  for (i = 0; i <= alt_max_fd; i++)
   42c18:	e03ffe15 	stw	zero,-8(fp)
   42c1c:	00001d06 	br	42c94 <alt_file_locked+0xa0>
  {
    if ((alt_fd_list[i].dev == fd->dev) &&
   42c20:	00800134 	movhi	r2,4
   42c24:	108e3204 	addi	r2,r2,14536
   42c28:	e0fffe17 	ldw	r3,-8(fp)
   42c2c:	18c00324 	muli	r3,r3,12
   42c30:	10c5883a 	add	r2,r2,r3
   42c34:	10c00017 	ldw	r3,0(r2)
   42c38:	e0bfff17 	ldw	r2,-4(fp)
   42c3c:	10800017 	ldw	r2,0(r2)
   42c40:	1880111e 	bne	r3,r2,42c88 <alt_file_locked+0x94>
        (alt_fd_list[i].fd_flags & ALT_FD_EXCL) &&
   42c44:	00800134 	movhi	r2,4
   42c48:	108e3204 	addi	r2,r2,14536
   42c4c:	e0fffe17 	ldw	r3,-8(fp)
   42c50:	18c00324 	muli	r3,r3,12
   42c54:	10c5883a 	add	r2,r2,r3
   42c58:	10800204 	addi	r2,r2,8
   42c5c:	10800017 	ldw	r2,0(r2)
   * for exclusive access. If a match is found, generate an error.
   */

  for (i = 0; i <= alt_max_fd; i++)
  {
    if ((alt_fd_list[i].dev == fd->dev) &&
   42c60:	1000090e 	bge	r2,zero,42c88 <alt_file_locked+0x94>
        (alt_fd_list[i].fd_flags & ALT_FD_EXCL) &&
        (&alt_fd_list[i] != fd))
   42c64:	e0bffe17 	ldw	r2,-8(fp)
   42c68:	10c00324 	muli	r3,r2,12
   42c6c:	00800134 	movhi	r2,4
   42c70:	108e3204 	addi	r2,r2,14536
   42c74:	1887883a 	add	r3,r3,r2
   */

  for (i = 0; i <= alt_max_fd; i++)
  {
    if ((alt_fd_list[i].dev == fd->dev) &&
        (alt_fd_list[i].fd_flags & ALT_FD_EXCL) &&
   42c78:	e0bfff17 	ldw	r2,-4(fp)
   42c7c:	18800226 	beq	r3,r2,42c88 <alt_file_locked+0x94>
        (&alt_fd_list[i] != fd))
    {
      return -EACCES;
   42c80:	00bffcc4 	movi	r2,-13
   42c84:	00000806 	br	42ca8 <alt_file_locked+0xb4>
  /*
   * Loop through all current file descriptors searching for one that's locked
   * for exclusive access. If a match is found, generate an error.
   */

  for (i = 0; i <= alt_max_fd; i++)
   42c88:	e0bffe17 	ldw	r2,-8(fp)
   42c8c:	10800044 	addi	r2,r2,1
   42c90:	e0bffe15 	stw	r2,-8(fp)
   42c94:	d0a00a17 	ldw	r2,-32728(gp)
   42c98:	1007883a 	mov	r3,r2
   42c9c:	e0bffe17 	ldw	r2,-8(fp)
   42ca0:	18bfdf2e 	bgeu	r3,r2,42c20 <__alt_data_end+0xfffdac20>
    }
  }
  
  /* The device is not locked */
 
  return 0;
   42ca4:	0005883a 	mov	r2,zero
}
   42ca8:	e037883a 	mov	sp,fp
   42cac:	df000017 	ldw	fp,0(sp)
   42cb0:	dec00104 	addi	sp,sp,4
   42cb4:	f800283a 	ret

00042cb8 <open>:
 *
 * ALT_OPEN is mapped onto the open() system call in alt_syscall.h
 */
 
int ALT_OPEN (const char* file, int flags, int mode)
{ 
   42cb8:	defff604 	addi	sp,sp,-40
   42cbc:	dfc00915 	stw	ra,36(sp)
   42cc0:	df000815 	stw	fp,32(sp)
   42cc4:	df000804 	addi	fp,sp,32
   42cc8:	e13ffd15 	stw	r4,-12(fp)
   42ccc:	e17ffe15 	stw	r5,-8(fp)
   42cd0:	e1bfff15 	stw	r6,-4(fp)
  alt_dev* dev;
  alt_fd*  fd;
  int index  = -1;
   42cd4:	00bfffc4 	movi	r2,-1
   42cd8:	e0bff915 	stw	r2,-28(fp)
  int status = -ENODEV;
   42cdc:	00bffb44 	movi	r2,-19
   42ce0:	e0bffa15 	stw	r2,-24(fp)
  int isafs = 0;
   42ce4:	e03ffb15 	stw	zero,-20(fp)
  /* 
   * Check the device list, to see if a device with a matching name is 
   * registered.
   */
  
  if (!(dev = alt_find_dev (file, &alt_dev_list)))
   42ce8:	d1600804 	addi	r5,gp,-32736
   42cec:	e13ffd17 	ldw	r4,-12(fp)
   42cf0:	00430380 	call	43038 <alt_find_dev>
   42cf4:	e0bff815 	stw	r2,-32(fp)
   42cf8:	e0bff817 	ldw	r2,-32(fp)
   42cfc:	1000051e 	bne	r2,zero,42d14 <open+0x5c>
  {
    /* No matching device, so try the filesystem list */

    dev   = alt_find_file (file);
   42d00:	e13ffd17 	ldw	r4,-12(fp)
   42d04:	00430c80 	call	430c8 <alt_find_file>
   42d08:	e0bff815 	stw	r2,-32(fp)
    isafs = 1;
   42d0c:	00800044 	movi	r2,1
   42d10:	e0bffb15 	stw	r2,-20(fp)

  /* 
   * If a matching device or filesystem is found, allocate a file descriptor. 
   */

  if (dev)
   42d14:	e0bff817 	ldw	r2,-32(fp)
   42d18:	10002926 	beq	r2,zero,42dc0 <open+0x108>
  {
    if ((index = alt_get_fd (dev)) < 0)
   42d1c:	e13ff817 	ldw	r4,-32(fp)
   42d20:	00431d00 	call	431d0 <alt_get_fd>
   42d24:	e0bff915 	stw	r2,-28(fp)
   42d28:	e0bff917 	ldw	r2,-28(fp)
   42d2c:	1000030e 	bge	r2,zero,42d3c <open+0x84>
    {
      status = index;
   42d30:	e0bff917 	ldw	r2,-28(fp)
   42d34:	e0bffa15 	stw	r2,-24(fp)
   42d38:	00002306 	br	42dc8 <open+0x110>
    }
    else
    {
      fd = &alt_fd_list[index];
   42d3c:	e0bff917 	ldw	r2,-28(fp)
   42d40:	10c00324 	muli	r3,r2,12
   42d44:	00800134 	movhi	r2,4
   42d48:	108e3204 	addi	r2,r2,14536
   42d4c:	1885883a 	add	r2,r3,r2
   42d50:	e0bffc15 	stw	r2,-16(fp)
      fd->fd_flags = (flags & ~ALT_FD_FLAGS_MASK);
   42d54:	e0fffe17 	ldw	r3,-8(fp)
   42d58:	00900034 	movhi	r2,16384
   42d5c:	10bfffc4 	addi	r2,r2,-1
   42d60:	1886703a 	and	r3,r3,r2
   42d64:	e0bffc17 	ldw	r2,-16(fp)
   42d68:	10c00215 	stw	r3,8(r2)
      
      /* If this is a device, ensure it isn't already locked */

      if (isafs || ((status = alt_file_locked (fd)) >= 0))
   42d6c:	e0bffb17 	ldw	r2,-20(fp)
   42d70:	1000051e 	bne	r2,zero,42d88 <open+0xd0>
   42d74:	e13ffc17 	ldw	r4,-16(fp)
   42d78:	0042bf40 	call	42bf4 <alt_file_locked>
   42d7c:	e0bffa15 	stw	r2,-24(fp)
   42d80:	e0bffa17 	ldw	r2,-24(fp)
   42d84:	10001016 	blt	r2,zero,42dc8 <open+0x110>
        /* 
         * If the device or filesystem provides an open() callback function,
         * call it now to perform any device/filesystem specific operations.
         */
    
        status = (dev->open) ? dev->open(fd, file, flags, mode): 0;
   42d88:	e0bff817 	ldw	r2,-32(fp)
   42d8c:	10800317 	ldw	r2,12(r2)
   42d90:	10000826 	beq	r2,zero,42db4 <open+0xfc>
   42d94:	e0bff817 	ldw	r2,-32(fp)
   42d98:	10800317 	ldw	r2,12(r2)
   42d9c:	e1ffff17 	ldw	r7,-4(fp)
   42da0:	e1bffe17 	ldw	r6,-8(fp)
   42da4:	e17ffd17 	ldw	r5,-12(fp)
   42da8:	e13ffc17 	ldw	r4,-16(fp)
   42dac:	103ee83a 	callr	r2
   42db0:	00000106 	br	42db8 <open+0x100>
   42db4:	0005883a 	mov	r2,zero
   42db8:	e0bffa15 	stw	r2,-24(fp)
   42dbc:	00000206 	br	42dc8 <open+0x110>
      }
    }
  }
  else
  {
    status = -ENODEV;
   42dc0:	00bffb44 	movi	r2,-19
   42dc4:	e0bffa15 	stw	r2,-24(fp)
  }

  /* Allocation failed, so clean up and return an error */ 

  if (status < 0)
   42dc8:	e0bffa17 	ldw	r2,-24(fp)
   42dcc:	1000090e 	bge	r2,zero,42df4 <open+0x13c>
  {
    alt_release_fd (index);  
   42dd0:	e13ff917 	ldw	r4,-28(fp)
   42dd4:	0042e0c0 	call	42e0c <alt_release_fd>
    ALT_ERRNO = -status;
   42dd8:	0042bb80 	call	42bb8 <alt_get_errno>
   42ddc:	1007883a 	mov	r3,r2
   42de0:	e0bffa17 	ldw	r2,-24(fp)
   42de4:	0085c83a 	sub	r2,zero,r2
   42de8:	18800015 	stw	r2,0(r3)
    return -1;
   42dec:	00bfffc4 	movi	r2,-1
   42df0:	00000106 	br	42df8 <open+0x140>
  }
  
  /* return the reference upon success */

  return index;
   42df4:	e0bff917 	ldw	r2,-28(fp)
}
   42df8:	e037883a 	mov	sp,fp
   42dfc:	dfc00117 	ldw	ra,4(sp)
   42e00:	df000017 	ldw	fp,0(sp)
   42e04:	dec00204 	addi	sp,sp,8
   42e08:	f800283a 	ret

00042e0c <alt_release_fd>:
 * File descriptors correcponding to standard in, standard out and standard 
 * error cannont be released backed to the pool. They are always reserved.
 */

void alt_release_fd (int fd)
{
   42e0c:	defffe04 	addi	sp,sp,-8
   42e10:	df000115 	stw	fp,4(sp)
   42e14:	df000104 	addi	fp,sp,4
   42e18:	e13fff15 	stw	r4,-4(fp)
  if (fd > 2)
   42e1c:	e0bfff17 	ldw	r2,-4(fp)
   42e20:	108000d0 	cmplti	r2,r2,3
   42e24:	10000d1e 	bne	r2,zero,42e5c <alt_release_fd+0x50>
  {
    alt_fd_list[fd].fd_flags = 0;
   42e28:	00800134 	movhi	r2,4
   42e2c:	108e3204 	addi	r2,r2,14536
   42e30:	e0ffff17 	ldw	r3,-4(fp)
   42e34:	18c00324 	muli	r3,r3,12
   42e38:	10c5883a 	add	r2,r2,r3
   42e3c:	10800204 	addi	r2,r2,8
   42e40:	10000015 	stw	zero,0(r2)
    alt_fd_list[fd].dev      = 0;
   42e44:	00800134 	movhi	r2,4
   42e48:	108e3204 	addi	r2,r2,14536
   42e4c:	e0ffff17 	ldw	r3,-4(fp)
   42e50:	18c00324 	muli	r3,r3,12
   42e54:	10c5883a 	add	r2,r2,r3
   42e58:	10000015 	stw	zero,0(r2)
  }
}
   42e5c:	0001883a 	nop
   42e60:	e037883a 	mov	sp,fp
   42e64:	df000017 	ldw	fp,0(sp)
   42e68:	dec00104 	addi	sp,sp,4
   42e6c:	f800283a 	ret

00042e70 <alt_alarm_stop>:
 * alarms. Alternatively an alarm can unregister itself by returning zero when 
 * the alarm executes.
 */

void alt_alarm_stop (alt_alarm* alarm)
{
   42e70:	defffa04 	addi	sp,sp,-24
   42e74:	df000515 	stw	fp,20(sp)
   42e78:	df000504 	addi	fp,sp,20
   42e7c:	e13fff15 	stw	r4,-4(fp)
static ALT_INLINE alt_irq_context ALT_ALWAYS_INLINE 
       alt_irq_disable_all (void)
{
  alt_irq_context context;

  NIOS2_READ_STATUS (context);
   42e80:	0005303a 	rdctl	r2,status
   42e84:	e0bffc15 	stw	r2,-16(fp)

  NIOS2_WRITE_STATUS (context & ~NIOS2_STATUS_PIE_MSK);
   42e88:	e0fffc17 	ldw	r3,-16(fp)
   42e8c:	00bfff84 	movi	r2,-2
   42e90:	1884703a 	and	r2,r3,r2
   42e94:	1001703a 	wrctl	status,r2
  
  return context;
   42e98:	e0bffc17 	ldw	r2,-16(fp)
  alt_irq_context irq_context;

  irq_context = alt_irq_disable_all();
   42e9c:	e0bffb15 	stw	r2,-20(fp)
  alt_llist_remove (&alarm->llist);
   42ea0:	e0bfff17 	ldw	r2,-4(fp)
   42ea4:	e0bffd15 	stw	r2,-12(fp)
 * input argument is the element to remove.
 */
     
static ALT_INLINE void ALT_ALWAYS_INLINE alt_llist_remove(alt_llist* entry)
{
  entry->next->previous = entry->previous;
   42ea8:	e0bffd17 	ldw	r2,-12(fp)
   42eac:	10800017 	ldw	r2,0(r2)
   42eb0:	e0fffd17 	ldw	r3,-12(fp)
   42eb4:	18c00117 	ldw	r3,4(r3)
   42eb8:	10c00115 	stw	r3,4(r2)
  entry->previous->next = entry->next;
   42ebc:	e0bffd17 	ldw	r2,-12(fp)
   42ec0:	10800117 	ldw	r2,4(r2)
   42ec4:	e0fffd17 	ldw	r3,-12(fp)
   42ec8:	18c00017 	ldw	r3,0(r3)
   42ecc:	10c00015 	stw	r3,0(r2)
  /* 
   * Set the entry to point to itself, so that any further calls to
   * alt_llist_remove() are harmless.
   */

  entry->previous = entry;
   42ed0:	e0bffd17 	ldw	r2,-12(fp)
   42ed4:	e0fffd17 	ldw	r3,-12(fp)
   42ed8:	10c00115 	stw	r3,4(r2)
  entry->next     = entry;
   42edc:	e0bffd17 	ldw	r2,-12(fp)
   42ee0:	e0fffd17 	ldw	r3,-12(fp)
   42ee4:	10c00015 	stw	r3,0(r2)
   42ee8:	e0bffb17 	ldw	r2,-20(fp)
   42eec:	e0bffe15 	stw	r2,-8(fp)
  status &= ~NIOS2_STATUS_PIE_MSK;
  status |= (context & NIOS2_STATUS_PIE_MSK);
  
  NIOS2_WRITE_STATUS (status);
#else
  NIOS2_WRITE_STATUS (context);
   42ef0:	e0bffe17 	ldw	r2,-8(fp)
   42ef4:	1001703a 	wrctl	status,r2
  alt_irq_enable_all (irq_context);
}
   42ef8:	0001883a 	nop
   42efc:	e037883a 	mov	sp,fp
   42f00:	df000017 	ldw	fp,0(sp)
   42f04:	dec00104 	addi	sp,sp,4
   42f08:	f800283a 	ret

00042f0c <alt_tick>:
 * 
 * alt_tick() is expected to run at interrupt level.
 */

void alt_tick (void)
{
   42f0c:	defffb04 	addi	sp,sp,-20
   42f10:	dfc00415 	stw	ra,16(sp)
   42f14:	df000315 	stw	fp,12(sp)
   42f18:	df000304 	addi	fp,sp,12
  alt_alarm* next;
  alt_alarm* alarm = (alt_alarm*) alt_alarm_list.next;
   42f1c:	d0a00c17 	ldw	r2,-32720(gp)
   42f20:	e0bffd15 	stw	r2,-12(fp)

  alt_u32    next_callback;

  /* update the tick counter */

  _alt_nticks++;
   42f24:	d0a0d517 	ldw	r2,-31916(gp)
   42f28:	10800044 	addi	r2,r2,1
   42f2c:	d0a0d515 	stw	r2,-31916(gp)

  /* process the registered callbacks */

  while (alarm != (alt_alarm*) &alt_alarm_list)
   42f30:	00002e06 	br	42fec <alt_tick+0xe0>
  {
    next = (alt_alarm*) alarm->llist.next;
   42f34:	e0bffd17 	ldw	r2,-12(fp)
   42f38:	10800017 	ldw	r2,0(r2)
   42f3c:	e0bffe15 	stw	r2,-8(fp)
    /* 
     * Upon the tick-counter rolling over it is safe to clear the 
     * roll-over flag; once the flag is cleared this (or subsequnt)
     * tick events are enabled to generate an alarm event. 
     */
    if ((alarm->rollover) && (_alt_nticks == 0))
   42f40:	e0bffd17 	ldw	r2,-12(fp)
   42f44:	10800403 	ldbu	r2,16(r2)
   42f48:	10803fcc 	andi	r2,r2,255
   42f4c:	10000426 	beq	r2,zero,42f60 <alt_tick+0x54>
   42f50:	d0a0d517 	ldw	r2,-31916(gp)
   42f54:	1000021e 	bne	r2,zero,42f60 <alt_tick+0x54>
    {
      alarm->rollover = 0;
   42f58:	e0bffd17 	ldw	r2,-12(fp)
   42f5c:	10000405 	stb	zero,16(r2)
    }
    
    /* if the alarm period has expired, make the callback */    
    if ((alarm->time <= _alt_nticks) && (alarm->rollover == 0))
   42f60:	e0bffd17 	ldw	r2,-12(fp)
   42f64:	10800217 	ldw	r2,8(r2)
   42f68:	d0e0d517 	ldw	r3,-31916(gp)
   42f6c:	18801d36 	bltu	r3,r2,42fe4 <alt_tick+0xd8>
   42f70:	e0bffd17 	ldw	r2,-12(fp)
   42f74:	10800403 	ldbu	r2,16(r2)
   42f78:	10803fcc 	andi	r2,r2,255
   42f7c:	1000191e 	bne	r2,zero,42fe4 <alt_tick+0xd8>
    {
      next_callback = alarm->callback (alarm->context);
   42f80:	e0bffd17 	ldw	r2,-12(fp)
   42f84:	10800317 	ldw	r2,12(r2)
   42f88:	e0fffd17 	ldw	r3,-12(fp)
   42f8c:	18c00517 	ldw	r3,20(r3)
   42f90:	1809883a 	mov	r4,r3
   42f94:	103ee83a 	callr	r2
   42f98:	e0bfff15 	stw	r2,-4(fp)

      /* deactivate the alarm if the return value is zero */

      if (next_callback == 0)
   42f9c:	e0bfff17 	ldw	r2,-4(fp)
   42fa0:	1000031e 	bne	r2,zero,42fb0 <alt_tick+0xa4>
      {
        alt_alarm_stop (alarm);
   42fa4:	e13ffd17 	ldw	r4,-12(fp)
   42fa8:	0042e700 	call	42e70 <alt_alarm_stop>
   42fac:	00000d06 	br	42fe4 <alt_tick+0xd8>
      }
      else
      {
        alarm->time += next_callback;
   42fb0:	e0bffd17 	ldw	r2,-12(fp)
   42fb4:	10c00217 	ldw	r3,8(r2)
   42fb8:	e0bfff17 	ldw	r2,-4(fp)
   42fbc:	1887883a 	add	r3,r3,r2
   42fc0:	e0bffd17 	ldw	r2,-12(fp)
   42fc4:	10c00215 	stw	r3,8(r2)
        /* 
         * If the desired alarm time causes a roll-over, set the rollover
         * flag. This will prevent the subsequent tick event from causing
         * an alarm too early.
         */
        if(alarm->time < _alt_nticks)
   42fc8:	e0bffd17 	ldw	r2,-12(fp)
   42fcc:	10c00217 	ldw	r3,8(r2)
   42fd0:	d0a0d517 	ldw	r2,-31916(gp)
   42fd4:	1880032e 	bgeu	r3,r2,42fe4 <alt_tick+0xd8>
        {
          alarm->rollover = 1;
   42fd8:	e0bffd17 	ldw	r2,-12(fp)
   42fdc:	00c00044 	movi	r3,1
   42fe0:	10c00405 	stb	r3,16(r2)
        }
      }
    }
    alarm = next;
   42fe4:	e0bffe17 	ldw	r2,-8(fp)
   42fe8:	e0bffd15 	stw	r2,-12(fp)

  _alt_nticks++;

  /* process the registered callbacks */

  while (alarm != (alt_alarm*) &alt_alarm_list)
   42fec:	e0fffd17 	ldw	r3,-12(fp)
   42ff0:	d0a00c04 	addi	r2,gp,-32720
   42ff4:	18bfcf1e 	bne	r3,r2,42f34 <__alt_data_end+0xfffdaf34>

  /* 
   * Update the operating system specific timer facilities.
   */

  ALT_OS_TIME_TICK();
   42ff8:	0001883a 	nop
}
   42ffc:	0001883a 	nop
   43000:	e037883a 	mov	sp,fp
   43004:	dfc00117 	ldw	ra,4(sp)
   43008:	df000017 	ldw	fp,0(sp)
   4300c:	dec00204 	addi	sp,sp,8
   43010:	f800283a 	ret

00043014 <altera_nios2_gen2_irq_init>:
/*
 * To initialize the internal interrupt controller, just clear the IENABLE
 * register so that all possible IRQs are disabled.
 */
void altera_nios2_gen2_irq_init(void) 
{
   43014:	deffff04 	addi	sp,sp,-4
   43018:	df000015 	stw	fp,0(sp)
   4301c:	d839883a 	mov	fp,sp
    NIOS2_WRITE_IENABLE(0);
   43020:	000170fa 	wrctl	ienable,zero
}
   43024:	0001883a 	nop
   43028:	e037883a 	mov	sp,fp
   4302c:	df000017 	ldw	fp,0(sp)
   43030:	dec00104 	addi	sp,sp,4
   43034:	f800283a 	ret

00043038 <alt_find_dev>:
 * "name" must be an exact match for the devices registered name for a match to
 * be found.
 */
 
alt_dev* alt_find_dev(const char* name, alt_llist* llist)
{
   43038:	defffa04 	addi	sp,sp,-24
   4303c:	dfc00515 	stw	ra,20(sp)
   43040:	df000415 	stw	fp,16(sp)
   43044:	df000404 	addi	fp,sp,16
   43048:	e13ffe15 	stw	r4,-8(fp)
   4304c:	e17fff15 	stw	r5,-4(fp)
  alt_dev* next = (alt_dev*) llist->next;
   43050:	e0bfff17 	ldw	r2,-4(fp)
   43054:	10800017 	ldw	r2,0(r2)
   43058:	e0bffc15 	stw	r2,-16(fp)
  alt_32 len;

  len  = strlen(name) + 1;
   4305c:	e13ffe17 	ldw	r4,-8(fp)
   43060:	004177c0 	call	4177c <strlen>
   43064:	10800044 	addi	r2,r2,1
   43068:	e0bffd15 	stw	r2,-12(fp)
  /*
   * Check each list entry in turn, until a match is found, or we reach the
   * end of the list (i.e. next winds up pointing back to the list head).
   */ 

  while (next != (alt_dev*) llist)
   4306c:	00000d06 	br	430a4 <alt_find_dev+0x6c>
    /* 
     * memcmp() is used here rather than strcmp() in order to reduce the size
     * of the executable.
     */

    if (!memcmp (next->name, name, len))
   43070:	e0bffc17 	ldw	r2,-16(fp)
   43074:	10800217 	ldw	r2,8(r2)
   43078:	e0fffd17 	ldw	r3,-12(fp)
   4307c:	180d883a 	mov	r6,r3
   43080:	e17ffe17 	ldw	r5,-8(fp)
   43084:	1009883a 	mov	r4,r2
   43088:	00433240 	call	43324 <memcmp>
   4308c:	1000021e 	bne	r2,zero,43098 <alt_find_dev+0x60>
    {
      /* match found */

      return next;
   43090:	e0bffc17 	ldw	r2,-16(fp)
   43094:	00000706 	br	430b4 <alt_find_dev+0x7c>
    }
    next = (alt_dev*) next->llist.next;
   43098:	e0bffc17 	ldw	r2,-16(fp)
   4309c:	10800017 	ldw	r2,0(r2)
   430a0:	e0bffc15 	stw	r2,-16(fp)
  /*
   * Check each list entry in turn, until a match is found, or we reach the
   * end of the list (i.e. next winds up pointing back to the list head).
   */ 

  while (next != (alt_dev*) llist)
   430a4:	e0fffc17 	ldw	r3,-16(fp)
   430a8:	e0bfff17 	ldw	r2,-4(fp)
   430ac:	18bff01e 	bne	r3,r2,43070 <__alt_data_end+0xfffdb070>
    next = (alt_dev*) next->llist.next;
  }
  
  /* No match found */
  
  return NULL;
   430b0:	0005883a 	mov	r2,zero
}
   430b4:	e037883a 	mov	sp,fp
   430b8:	dfc00117 	ldw	ra,4(sp)
   430bc:	df000017 	ldw	fp,0(sp)
   430c0:	dec00204 	addi	sp,sp,8
   430c4:	f800283a 	ret

000430c8 <alt_find_file>:
 * either '/' or '\0' is the prefix of the filename. For example the filename:
 * "/myfilesystem/junk.txt" would match: "/myfilesystem", but not: "/myfile". 
 */
 
alt_dev* alt_find_file (const char* name)
{
   430c8:	defffb04 	addi	sp,sp,-20
   430cc:	dfc00415 	stw	ra,16(sp)
   430d0:	df000315 	stw	fp,12(sp)
   430d4:	df000304 	addi	fp,sp,12
   430d8:	e13fff15 	stw	r4,-4(fp)
  alt_dev* next = (alt_dev*) alt_fs_list.next;   
   430dc:	d0a00617 	ldw	r2,-32744(gp)
   430e0:	e0bffd15 	stw	r2,-12(fp)
  /*
   * Check each list entry in turn, until a match is found, or we reach the
   * end of the list (i.e. next winds up pointing back to the list head).
   */ 
 
  while (next != (alt_dev*) &alt_fs_list)
   430e4:	00003106 	br	431ac <alt_find_file+0xe4>
  {
    len = strlen(next->name);
   430e8:	e0bffd17 	ldw	r2,-12(fp)
   430ec:	10800217 	ldw	r2,8(r2)
   430f0:	1009883a 	mov	r4,r2
   430f4:	004177c0 	call	4177c <strlen>
   430f8:	e0bffe15 	stw	r2,-8(fp)
    
    if (next->name[len-1] == '/')
   430fc:	e0bffd17 	ldw	r2,-12(fp)
   43100:	10c00217 	ldw	r3,8(r2)
   43104:	e0bffe17 	ldw	r2,-8(fp)
   43108:	10bfffc4 	addi	r2,r2,-1
   4310c:	1885883a 	add	r2,r3,r2
   43110:	10800003 	ldbu	r2,0(r2)
   43114:	10803fcc 	andi	r2,r2,255
   43118:	1080201c 	xori	r2,r2,128
   4311c:	10bfe004 	addi	r2,r2,-128
   43120:	10800bd8 	cmpnei	r2,r2,47
   43124:	1000031e 	bne	r2,zero,43134 <alt_find_file+0x6c>
    {
      len -= 1;
   43128:	e0bffe17 	ldw	r2,-8(fp)
   4312c:	10bfffc4 	addi	r2,r2,-1
   43130:	e0bffe15 	stw	r2,-8(fp)
    }

    if (((name[len] == '/') || (name[len] == '\0')) && 
   43134:	e0bffe17 	ldw	r2,-8(fp)
   43138:	e0ffff17 	ldw	r3,-4(fp)
   4313c:	1885883a 	add	r2,r3,r2
   43140:	10800003 	ldbu	r2,0(r2)
   43144:	10803fcc 	andi	r2,r2,255
   43148:	1080201c 	xori	r2,r2,128
   4314c:	10bfe004 	addi	r2,r2,-128
   43150:	10800be0 	cmpeqi	r2,r2,47
   43154:	1000081e 	bne	r2,zero,43178 <alt_find_file+0xb0>
   43158:	e0bffe17 	ldw	r2,-8(fp)
   4315c:	e0ffff17 	ldw	r3,-4(fp)
   43160:	1885883a 	add	r2,r3,r2
   43164:	10800003 	ldbu	r2,0(r2)
   43168:	10803fcc 	andi	r2,r2,255
   4316c:	1080201c 	xori	r2,r2,128
   43170:	10bfe004 	addi	r2,r2,-128
   43174:	10000a1e 	bne	r2,zero,431a0 <alt_find_file+0xd8>
        !memcmp (next->name, name, len))
   43178:	e0bffd17 	ldw	r2,-12(fp)
   4317c:	10800217 	ldw	r2,8(r2)
   43180:	e0fffe17 	ldw	r3,-8(fp)
   43184:	180d883a 	mov	r6,r3
   43188:	e17fff17 	ldw	r5,-4(fp)
   4318c:	1009883a 	mov	r4,r2
   43190:	00433240 	call	43324 <memcmp>
    if (next->name[len-1] == '/')
    {
      len -= 1;
    }

    if (((name[len] == '/') || (name[len] == '\0')) && 
   43194:	1000021e 	bne	r2,zero,431a0 <alt_find_file+0xd8>
        !memcmp (next->name, name, len))
    {
      /* match found */

      return next;
   43198:	e0bffd17 	ldw	r2,-12(fp)
   4319c:	00000706 	br	431bc <alt_find_file+0xf4>
    }
    next = (alt_dev*) next->llist.next;
   431a0:	e0bffd17 	ldw	r2,-12(fp)
   431a4:	10800017 	ldw	r2,0(r2)
   431a8:	e0bffd15 	stw	r2,-12(fp)
  /*
   * Check each list entry in turn, until a match is found, or we reach the
   * end of the list (i.e. next winds up pointing back to the list head).
   */ 
 
  while (next != (alt_dev*) &alt_fs_list)
   431ac:	e0fffd17 	ldw	r3,-12(fp)
   431b0:	d0a00604 	addi	r2,gp,-32744
   431b4:	18bfcc1e 	bne	r3,r2,430e8 <__alt_data_end+0xfffdb0e8>
    next = (alt_dev*) next->llist.next;
  }
  
  /* No match found */
  
  return NULL;     
   431b8:	0005883a 	mov	r2,zero
}
   431bc:	e037883a 	mov	sp,fp
   431c0:	dfc00117 	ldw	ra,4(sp)
   431c4:	df000017 	ldw	fp,0(sp)
   431c8:	dec00204 	addi	sp,sp,8
   431cc:	f800283a 	ret

000431d0 <alt_get_fd>:
 * the offset of the file descriptor within the file descriptor array). A
 * negative value indicates failure.
 */

int alt_get_fd (alt_dev* dev)
{
   431d0:	defffc04 	addi	sp,sp,-16
   431d4:	df000315 	stw	fp,12(sp)
   431d8:	df000304 	addi	fp,sp,12
   431dc:	e13fff15 	stw	r4,-4(fp)
  alt_32 i;
  int rc = -EMFILE;
   431e0:	00bffa04 	movi	r2,-24
   431e4:	e0bffe15 	stw	r2,-8(fp)
   * indicates the highest file descriptor ever allocated. This is used to
   * improve efficency when searching the file descriptor list, and 
   * therefore reduce contention on the alt_fd_list_lock semaphore. 
   */

  for (i = 0; i < ALT_MAX_FD; i++)
   431e8:	e03ffd15 	stw	zero,-12(fp)
   431ec:	00001906 	br	43254 <alt_get_fd+0x84>
  {
    if (!alt_fd_list[i].dev)
   431f0:	00800134 	movhi	r2,4
   431f4:	108e3204 	addi	r2,r2,14536
   431f8:	e0fffd17 	ldw	r3,-12(fp)
   431fc:	18c00324 	muli	r3,r3,12
   43200:	10c5883a 	add	r2,r2,r3
   43204:	10800017 	ldw	r2,0(r2)
   43208:	10000f1e 	bne	r2,zero,43248 <alt_get_fd+0x78>
    {
      alt_fd_list[i].dev = dev;
   4320c:	00800134 	movhi	r2,4
   43210:	108e3204 	addi	r2,r2,14536
   43214:	e0fffd17 	ldw	r3,-12(fp)
   43218:	18c00324 	muli	r3,r3,12
   4321c:	10c5883a 	add	r2,r2,r3
   43220:	e0ffff17 	ldw	r3,-4(fp)
   43224:	10c00015 	stw	r3,0(r2)
      if (i > alt_max_fd)
   43228:	d0e00a17 	ldw	r3,-32728(gp)
   4322c:	e0bffd17 	ldw	r2,-12(fp)
   43230:	1880020e 	bge	r3,r2,4323c <alt_get_fd+0x6c>
      {
        alt_max_fd = i;
   43234:	e0bffd17 	ldw	r2,-12(fp)
   43238:	d0a00a15 	stw	r2,-32728(gp)
      }
      rc = i;
   4323c:	e0bffd17 	ldw	r2,-12(fp)
   43240:	e0bffe15 	stw	r2,-8(fp)
      goto alt_get_fd_exit;
   43244:	00000606 	br	43260 <alt_get_fd+0x90>
   * indicates the highest file descriptor ever allocated. This is used to
   * improve efficency when searching the file descriptor list, and 
   * therefore reduce contention on the alt_fd_list_lock semaphore. 
   */

  for (i = 0; i < ALT_MAX_FD; i++)
   43248:	e0bffd17 	ldw	r2,-12(fp)
   4324c:	10800044 	addi	r2,r2,1
   43250:	e0bffd15 	stw	r2,-12(fp)
   43254:	e0bffd17 	ldw	r2,-12(fp)
   43258:	10800810 	cmplti	r2,r2,32
   4325c:	103fe41e 	bne	r2,zero,431f0 <__alt_data_end+0xfffdb1f0>
   * file descriptor pool.
   */

  ALT_SEM_POST(alt_fd_list_lock);

  return rc;
   43260:	e0bffe17 	ldw	r2,-8(fp)
}
   43264:	e037883a 	mov	sp,fp
   43268:	df000017 	ldw	fp,0(sp)
   4326c:	dec00104 	addi	sp,sp,4
   43270:	f800283a 	ret

00043274 <alt_icache_flush>:
 * alt_icache_flush() is called to flush the instruction cache for a memory
 * region of length "len" bytes, starting at address "start".
 */

void alt_icache_flush (void* start, alt_u32 len)
{
   43274:	defffb04 	addi	sp,sp,-20
   43278:	df000415 	stw	fp,16(sp)
   4327c:	df000404 	addi	fp,sp,16
   43280:	e13ffe15 	stw	r4,-8(fp)
   43284:	e17fff15 	stw	r5,-4(fp)

  /*
   * This is the most we would ever need to flush.
   */
 
  if (len > NIOS2_ICACHE_SIZE)
   43288:	e0bfff17 	ldw	r2,-4(fp)
   4328c:	10820070 	cmpltui	r2,r2,2049
   43290:	1000021e 	bne	r2,zero,4329c <alt_icache_flush+0x28>
  {
    len = NIOS2_ICACHE_SIZE;
   43294:	00820004 	movi	r2,2048
   43298:	e0bfff15 	stw	r2,-4(fp)
  }

  end = ((char*) start) + len;
   4329c:	e0fffe17 	ldw	r3,-8(fp)
   432a0:	e0bfff17 	ldw	r2,-4(fp)
   432a4:	1885883a 	add	r2,r3,r2
   432a8:	e0bffd15 	stw	r2,-12(fp)

  for (i = start; i < end; i+= NIOS2_ICACHE_LINE_SIZE)
   432ac:	e0bffe17 	ldw	r2,-8(fp)
   432b0:	e0bffc15 	stw	r2,-16(fp)
   432b4:	00000506 	br	432cc <alt_icache_flush+0x58>
  { 
    __asm__ volatile ("flushi %0" :: "r" (i)); 
   432b8:	e0bffc17 	ldw	r2,-16(fp)
   432bc:	1000603a 	flushi	r2
    len = NIOS2_ICACHE_SIZE;
  }

  end = ((char*) start) + len;

  for (i = start; i < end; i+= NIOS2_ICACHE_LINE_SIZE)
   432c0:	e0bffc17 	ldw	r2,-16(fp)
   432c4:	10800804 	addi	r2,r2,32
   432c8:	e0bffc15 	stw	r2,-16(fp)
   432cc:	e0fffc17 	ldw	r3,-16(fp)
   432d0:	e0bffd17 	ldw	r2,-12(fp)
   432d4:	18bff836 	bltu	r3,r2,432b8 <__alt_data_end+0xfffdb2b8>
   * For an unaligned flush request, we've got one more line left.
   * Note that this is dependent on NIOS2_ICACHE_LINE_SIZE to be a 
   * multiple of 2 (which it always is).
   */

  if (((alt_u32) start) & (NIOS2_ICACHE_LINE_SIZE - 1))
   432d8:	e0bffe17 	ldw	r2,-8(fp)
   432dc:	108007cc 	andi	r2,r2,31
   432e0:	10000226 	beq	r2,zero,432ec <alt_icache_flush+0x78>
  {
    __asm__ volatile ("flushi %0" :: "r" (i));
   432e4:	e0bffc17 	ldw	r2,-16(fp)
   432e8:	1000603a 	flushi	r2
  /* 
   * Having flushed the cache, flush any stale instructions in the 
   * pipeline 
   */

  __asm__ volatile ("flushp");
   432ec:	0000203a 	flushp

#endif /* NIOS2_ICACHE_SIZE > 0 */
}
   432f0:	0001883a 	nop
   432f4:	e037883a 	mov	sp,fp
   432f8:	df000017 	ldw	fp,0(sp)
   432fc:	dec00104 	addi	sp,sp,4
   43300:	f800283a 	ret

00043304 <exit>:
   43304:	defffe04 	addi	sp,sp,-8
   43308:	000b883a 	mov	r5,zero
   4330c:	dc000015 	stw	r16,0(sp)
   43310:	dfc00115 	stw	ra,4(sp)
   43314:	2021883a 	mov	r16,r4
   43318:	00433540 	call	43354 <__call_exitprocs>
   4331c:	8009883a 	mov	r4,r16
   43320:	00434e40 	call	434e4 <_exit>

00043324 <memcmp>:
   43324:	218d883a 	add	r6,r4,r6
   43328:	21800826 	beq	r4,r6,4334c <memcmp+0x28>
   4332c:	20800003 	ldbu	r2,0(r4)
   43330:	28c00003 	ldbu	r3,0(r5)
   43334:	10c00226 	beq	r2,r3,43340 <memcmp+0x1c>
   43338:	10c5c83a 	sub	r2,r2,r3
   4333c:	f800283a 	ret
   43340:	21000044 	addi	r4,r4,1
   43344:	29400044 	addi	r5,r5,1
   43348:	003ff706 	br	43328 <__alt_data_end+0xfffdb328>
   4334c:	0005883a 	mov	r2,zero
   43350:	f800283a 	ret

00043354 <__call_exitprocs>:
   43354:	defff504 	addi	sp,sp,-44
   43358:	dd000515 	stw	r20,20(sp)
   4335c:	05000134 	movhi	r20,4
   43360:	dc800315 	stw	r18,12(sp)
   43364:	dfc00a15 	stw	ra,40(sp)
   43368:	df000915 	stw	fp,36(sp)
   4336c:	ddc00815 	stw	r23,32(sp)
   43370:	dd800715 	stw	r22,28(sp)
   43374:	dd400615 	stw	r21,24(sp)
   43378:	dcc00415 	stw	r19,16(sp)
   4337c:	dc400215 	stw	r17,8(sp)
   43380:	dc000115 	stw	r16,4(sp)
   43384:	d9000015 	stw	r4,0(sp)
   43388:	2825883a 	mov	r18,r5
   4338c:	a50e9504 	addi	r20,r20,14932
   43390:	a4400017 	ldw	r17,0(r20)
   43394:	8cc00c17 	ldw	r19,48(r17)
   43398:	8c400c04 	addi	r17,r17,48
   4339c:	98004526 	beq	r19,zero,434b4 <__call_exitprocs+0x160>
   433a0:	9c000117 	ldw	r16,4(r19)
   433a4:	00900034 	movhi	r2,16384
   433a8:	10bfffc4 	addi	r2,r2,-1
   433ac:	9d402217 	ldw	r21,136(r19)
   433b0:	85bfffc4 	addi	r22,r16,-1
   433b4:	80a1883a 	add	r16,r16,r2
   433b8:	8421883a 	add	r16,r16,r16
   433bc:	8421883a 	add	r16,r16,r16
   433c0:	ac2f883a 	add	r23,r21,r16
   433c4:	84000204 	addi	r16,r16,8
   433c8:	9c21883a 	add	r16,r19,r16
   433cc:	b0002716 	blt	r22,zero,4346c <__call_exitprocs+0x118>
   433d0:	90000726 	beq	r18,zero,433f0 <__call_exitprocs+0x9c>
   433d4:	a800041e 	bne	r21,zero,433e8 <__call_exitprocs+0x94>
   433d8:	b5bfffc4 	addi	r22,r22,-1
   433dc:	bdffff04 	addi	r23,r23,-4
   433e0:	843fff04 	addi	r16,r16,-4
   433e4:	003ff906 	br	433cc <__alt_data_end+0xfffdb3cc>
   433e8:	b9002017 	ldw	r4,128(r23)
   433ec:	913ffa1e 	bne	r18,r4,433d8 <__alt_data_end+0xfffdb3d8>
   433f0:	99000117 	ldw	r4,4(r19)
   433f4:	82000017 	ldw	r8,0(r16)
   433f8:	213fffc4 	addi	r4,r4,-1
   433fc:	b100021e 	bne	r22,r4,43408 <__call_exitprocs+0xb4>
   43400:	9d800115 	stw	r22,4(r19)
   43404:	00000106 	br	4340c <__call_exitprocs+0xb8>
   43408:	80000015 	stw	zero,0(r16)
   4340c:	403ff226 	beq	r8,zero,433d8 <__alt_data_end+0xfffdb3d8>
   43410:	9f000117 	ldw	fp,4(r19)
   43414:	a8000526 	beq	r21,zero,4342c <__call_exitprocs+0xd8>
   43418:	00800044 	movi	r2,1
   4341c:	1592983a 	sll	r9,r2,r22
   43420:	a9404017 	ldw	r5,256(r21)
   43424:	494a703a 	and	r5,r9,r5
   43428:	2800021e 	bne	r5,zero,43434 <__call_exitprocs+0xe0>
   4342c:	403ee83a 	callr	r8
   43430:	00000906 	br	43458 <__call_exitprocs+0x104>
   43434:	a9004117 	ldw	r4,260(r21)
   43438:	4908703a 	and	r4,r9,r4
   4343c:	2000041e 	bne	r4,zero,43450 <__call_exitprocs+0xfc>
   43440:	b9400017 	ldw	r5,0(r23)
   43444:	d9000017 	ldw	r4,0(sp)
   43448:	403ee83a 	callr	r8
   4344c:	00000206 	br	43458 <__call_exitprocs+0x104>
   43450:	b9000017 	ldw	r4,0(r23)
   43454:	403ee83a 	callr	r8
   43458:	99000117 	ldw	r4,4(r19)
   4345c:	e13fcc1e 	bne	fp,r4,43390 <__alt_data_end+0xfffdb390>
   43460:	89000017 	ldw	r4,0(r17)
   43464:	993fdc26 	beq	r19,r4,433d8 <__alt_data_end+0xfffdb3d8>
   43468:	003fc906 	br	43390 <__alt_data_end+0xfffdb390>
   4346c:	00800034 	movhi	r2,0
   43470:	10800004 	addi	r2,r2,0
   43474:	10000f26 	beq	r2,zero,434b4 <__call_exitprocs+0x160>
   43478:	99400117 	ldw	r5,4(r19)
   4347c:	99000017 	ldw	r4,0(r19)
   43480:	2800091e 	bne	r5,zero,434a8 <__call_exitprocs+0x154>
   43484:	20000826 	beq	r4,zero,434a8 <__call_exitprocs+0x154>
   43488:	89000015 	stw	r4,0(r17)
   4348c:	a8000226 	beq	r21,zero,43498 <__call_exitprocs+0x144>
   43490:	a809883a 	mov	r4,r21
   43494:	00000000 	call	0 <__alt_mem_onchip_memory-0x40000>
   43498:	9809883a 	mov	r4,r19
   4349c:	00000000 	call	0 <__alt_mem_onchip_memory-0x40000>
   434a0:	8cc00017 	ldw	r19,0(r17)
   434a4:	003fbd06 	br	4339c <__alt_data_end+0xfffdb39c>
   434a8:	9823883a 	mov	r17,r19
   434ac:	2027883a 	mov	r19,r4
   434b0:	003fba06 	br	4339c <__alt_data_end+0xfffdb39c>
   434b4:	dfc00a17 	ldw	ra,40(sp)
   434b8:	df000917 	ldw	fp,36(sp)
   434bc:	ddc00817 	ldw	r23,32(sp)
   434c0:	dd800717 	ldw	r22,28(sp)
   434c4:	dd400617 	ldw	r21,24(sp)
   434c8:	dd000517 	ldw	r20,20(sp)
   434cc:	dcc00417 	ldw	r19,16(sp)
   434d0:	dc800317 	ldw	r18,12(sp)
   434d4:	dc400217 	ldw	r17,8(sp)
   434d8:	dc000117 	ldw	r16,4(sp)
   434dc:	dec00b04 	addi	sp,sp,44
   434e0:	f800283a 	ret

000434e4 <_exit>:
 *
 * ALT_EXIT is mapped onto the _exit() system call in alt_syscall.h
 */

void ALT_EXIT (int exit_code)
{
   434e4:	defffd04 	addi	sp,sp,-12
   434e8:	df000215 	stw	fp,8(sp)
   434ec:	df000204 	addi	fp,sp,8
   434f0:	e13fff15 	stw	r4,-4(fp)
  ALT_LOG_PRINT_BOOT("[alt_exit.c] Entering _exit() function.\r\n");
  ALT_LOG_PRINT_BOOT("[alt_exit.c] Exit code from main was %d.\r\n",exit_code);
  /* Stop all other threads */

  ALT_LOG_PRINT_BOOT("[alt_exit.c] Calling ALT_OS_STOP().\r\n");
  ALT_OS_STOP();
   434f4:	0001883a 	nop
   434f8:	e0bfff17 	ldw	r2,-4(fp)
   434fc:	e0bffe15 	stw	r2,-8(fp)
/*
 * Routine called on exit.
 */
static ALT_INLINE ALT_ALWAYS_INLINE void alt_sim_halt(int exit_code)
{
  register int r2 asm ("r2") = exit_code;
   43500:	e0bffe17 	ldw	r2,-8(fp)
  __asm__ volatile ("\n0:\n\taddi %0,%0, -1\n\tbgt %0,zero,0b" : : "r" (ALT_CPU_FREQ/100) ); /* Delay for >30ms */

  __asm__ volatile ("break 2" : : "r"(r2), "r"(r3) ALT_GMON_DATA );

#else /* !DEBUG_STUB */
  if (r2) {
   43504:	10000226 	beq	r2,zero,43510 <_exit+0x2c>
    ALT_SIM_FAIL();
   43508:	002af070 	cmpltui	zero,zero,43969
   4350c:	00000106 	br	43514 <_exit+0x30>
  } else {
    ALT_SIM_PASS();
   43510:	002af0b0 	cmpltui	zero,zero,43970
  ALT_SIM_HALT(exit_code);

  /* spin forever, since there's no where to go back to */

  ALT_LOG_PRINT_BOOT("[alt_exit.c] Spinning forever.\r\n");
  while (1);
   43514:	003fff06 	br	43514 <__alt_data_end+0xfffdb514>
